source_filename = "test"
target datalayout = "e-m:e-i64:64-i128:128-n32:64-S128"

%sockaddr = type { i64, [14 x i8] }

@global_var_100003dec = constant [24 x i8] c"Error creating socket.\0A\00"
@global_var_100002408 = local_unnamed_addr constant i64 -5179628132285546488
@global_var_100003e04 = constant [15 x i8] c"Connecting to \00"
@global_var_100003e13 = constant [4 x i8] c"...\00"
@global_var_100003e17 = constant [28 x i8] c"Error connecting to server.\00"
@global_var_1000024bc = local_unnamed_addr constant i64 -5179628132285546488
@global_var_100003e33 = constant [9 x i8] c"ALL:!ADH\00"
@global_var_100003e3b = local_unnamed_addr constant i64 3977015119937220864
@global_var_100002704 = local_unnamed_addr constant i64 -486361234115919864
@global_var_100008000 = global i64 4294982480
@global_var_100002868 = local_unnamed_addr constant i64 -963765884319432632
@global_var_100003e3c = constant [14 x i8] c"172.217.18.99\00"
@global_var_1000029ec = local_unnamed_addr constant i64 -3458764334237220824
@global_var_100003e4a = constant [20 x i8] c"Error creating SSL.\00"
@global_var_100002a1c = local_unnamed_addr constant i64 -5179205919820480504
@global_var_100003e5e = constant [44 x i8] c"Error creating SSL connection. Error Code: \00"
@global_var_100002ac8 = local_unnamed_addr constant i64 -5179205915525513207
@global_var_100002b44 = local_unnamed_addr constant i64 -5179205915525513207
@global_var_100004010 = local_unnamed_addr global i64 0
@global_var_100003e8a = constant [36 x i8] c"Call to SSL_get_verify_result is ok\00"
@global_var_100003eae = constant [37 x i8] c"SSL communication established using \00"
@global_var_100002b90 = local_unnamed_addr constant i64 -486194108348497880
@global_var_100002f24 = local_unnamed_addr constant i64 1441151954695749696
@global_var_1000031a8 = local_unnamed_addr constant i64 -5116001219722084343
@global_var_1000032e0 = local_unnamed_addr constant i64 1441151916041044032
@global_var_100003438 = local_unnamed_addr constant i64 -6250578478773567452
@global_var_1000034fc = local_unnamed_addr constant i64 1441151903156142144
@global_var_100004020 = local_unnamed_addr global i64 0
@global_var_100003844 = local_unnamed_addr constant i64 1441151903156142144
@global_var_100003de8 = local_unnamed_addr constant [4 x i8] c"MD5\00"
@global_var_1000038f8 = local_unnamed_addr constant i64 -486387622931857400
@global_var_100003b50 = local_unnamed_addr constant i64 1729382227248152656
@global_var_100008008 = local_unnamed_addr global i64 4294982492
@global_var_100003b5c = local_unnamed_addr constant i64 1729382214363250768
@global_var_100008010 = local_unnamed_addr global i64 4294982504
@global_var_100003b68 = local_unnamed_addr constant i64 1729382201478348880
@global_var_100008018 = local_unnamed_addr global i64 4294982516
@global_var_100003b74 = local_unnamed_addr constant i64 1729382188593446992
@global_var_100008020 = local_unnamed_addr global i64 4294982528
@global_var_100003b80 = local_unnamed_addr constant i64 1729382175708545104
@global_var_100008028 = local_unnamed_addr global i64 4294982540
@global_var_100003b8c = local_unnamed_addr constant i64 1729382162823643216
@global_var_100008030 = local_unnamed_addr global i64 4294982552
@global_var_100003b98 = local_unnamed_addr constant i64 1729382149938741328
@global_var_100008038 = local_unnamed_addr global i64 4294982564
@global_var_100003ba4 = local_unnamed_addr constant i64 1729382137053839440
@global_var_100008040 = local_unnamed_addr global i64 4294982576
@global_var_100003bb0 = local_unnamed_addr constant i64 1729382124168937552
@global_var_100008048 = local_unnamed_addr global i64 4294982588
@global_var_100003bbc = local_unnamed_addr constant i64 1729382111284035664
@global_var_100008050 = local_unnamed_addr global i64 4294982600
@global_var_100003bc8 = local_unnamed_addr constant i64 1729382098399133776
@global_var_100008058 = local_unnamed_addr global i64 4294982612
@global_var_100003bd4 = local_unnamed_addr constant i64 1729382085514231888
@global_var_100008060 = local_unnamed_addr global i64 4294982624
@global_var_100003be0 = local_unnamed_addr constant i64 1729382072629330000
@global_var_100008068 = local_unnamed_addr global i64 4294982828
@global_var_100003cac = local_unnamed_addr constant i64 1729381853585997904
@global_var_100008070 = local_unnamed_addr global i64 4294982636
@global_var_100003bec = local_unnamed_addr constant i64 1729382059744428112
@global_var_100008078 = local_unnamed_addr global i64 4294982648
@global_var_100003bf8 = local_unnamed_addr constant i64 1729382046859526224
@global_var_100008080 = local_unnamed_addr global i64 4294981324
@global_var_100008088 = local_unnamed_addr global i64 4294981364
@global_var_100008090 = local_unnamed_addr global i64 4294978820
@global_var_100008098 = local_unnamed_addr global i64 4294982660
@global_var_100003c04 = local_unnamed_addr constant i64 1729382033974624336
@global_var_1000080a0 = local_unnamed_addr global i64 4294982672
@global_var_100003c10 = local_unnamed_addr constant i64 1729382021089722448
@global_var_1000080a8 = local_unnamed_addr global i64 4294982684
@global_var_100003c1c = local_unnamed_addr constant i64 1729382008204820560
@global_var_1000080b0 = local_unnamed_addr global i64 4294982696
@global_var_100003c28 = local_unnamed_addr constant i64 1729381995319918672
@global_var_1000080b8 = local_unnamed_addr global i64 4294982708
@global_var_100003c34 = local_unnamed_addr constant i64 1729381982435016784
@global_var_1000080c0 = local_unnamed_addr global i64 4294982720
@global_var_100003c40 = local_unnamed_addr constant i64 1729381969550114896
@global_var_1000080c8 = local_unnamed_addr global i64 4294982732
@global_var_100003c4c = local_unnamed_addr constant i64 1729381956665213008
@global_var_1000080d0 = local_unnamed_addr global i64 4294979064
@global_var_1000080d8 = local_unnamed_addr global i64 4294982744
@global_var_100003c58 = local_unnamed_addr constant i64 1729381943780311120
@global_var_1000080e0 = local_unnamed_addr global i64 4294982756
@global_var_100003c64 = local_unnamed_addr constant i64 1729381930895409232
@global_var_1000080e8 = local_unnamed_addr global i64 4294982768
@global_var_100003c70 = local_unnamed_addr constant i64 1729381918010507344
@global_var_1000080f0 = local_unnamed_addr global i64 4294976772
@global_var_1000080f8 = local_unnamed_addr global i64 4294976856
@global_var_100008100 = local_unnamed_addr global i64 4294982780
@global_var_100003c7c = local_unnamed_addr constant i64 1729381905125605456
@global_var_100008108 = local_unnamed_addr global i64 4294982840
@global_var_100003cb8 = local_unnamed_addr constant i64 1729381840701096016
@global_var_100008110 = local_unnamed_addr global i64 4294982792
@global_var_100003c88 = local_unnamed_addr constant i64 1729381892240703568
@global_var_100008118 = local_unnamed_addr global i64 4294982804
@global_var_100003c94 = local_unnamed_addr constant i64 1729381879355801680
@global_var_100008120 = local_unnamed_addr global i64 4294982816
@global_var_100003ca0 = local_unnamed_addr constant i64 1729381866470899792
@global_var_100008128 = local_unnamed_addr global i64 4294982852
@global_var_100003cc4 = local_unnamed_addr constant i64 1729381827816194128
@global_var_100008130 = local_unnamed_addr global i64 4294982864
@global_var_100003cd0 = local_unnamed_addr constant i64 1729381814931292240
@global_var_100008138 = local_unnamed_addr global i64 4294982876
@global_var_100003cdc = local_unnamed_addr constant i64 1729381802046390352
@global_var_100008140 = local_unnamed_addr global i64 4294982888
@global_var_100003ce8 = local_unnamed_addr constant i64 1729381789161488464
@global_var_100008148 = local_unnamed_addr global i64 4294982900
@global_var_100003cf4 = local_unnamed_addr constant i64 1729381776276586576
@global_var_100008150 = local_unnamed_addr global i64 4294982912
@global_var_100003d00 = local_unnamed_addr constant i64 1729381763391684688
@global_var_100008158 = local_unnamed_addr global i64 0
@global_var_100004038 = local_unnamed_addr global i64 0
@global_var_100003b70 = local_unnamed_addr constant i64 1729382600507654189
@global_var_100003b7c = local_unnamed_addr constant i64 1729382600507654213
@global_var_100003b88 = local_unnamed_addr constant i64 1729382600507654240
@global_var_100003b94 = local_unnamed_addr constant i64 1729382600507654259
@global_var_100004018 = local_unnamed_addr global i64* (i64*)* inttoptr (i64 4294976992 to i64* (i64*)*)

define i64 @__ZNSt3__112basic_stringIcNS_11char_traitsIcEENS_9allocatorIcEEEC1INS_9nullptr_tEEEPKc(i64* %result, i8* %arg2) local_unnamed_addr {
dec_label_pc_100002378:
  %0 = ptrtoint i64* %result to i64
  %1 = call i64 @__ZNSt3__112basic_stringIcNS_11char_traitsIcEENS_9allocatorIcEEEC2INS_9nullptr_tEEEPKc(i64* %result, i8* %arg2), !insn.addr !0
  ret i64 %0, !insn.addr !1
}

define i64 @__Z9connectToNSt3__112basic_stringIcNS_11char_traitsIcEENS_9allocatorIcEEEEi(i64 %arg1, i32 %arg2) local_unnamed_addr {
dec_label_pc_1000023b4:
  %stack_var_-44.0.reg2mem = alloca i64, !insn.addr !2
  %stack_var_-40 = alloca i64, align 8
  %0 = load i64, i64* inttoptr (i64 4294983728 to i64*), align 16, !insn.addr !3
  %1 = inttoptr i64 %0 to i64*, !insn.addr !4
  %2 = load i64, i64* %1, align 8, !insn.addr !4
  %3 = call i32 @_socket(i32 2, i32 1, i32 0), !insn.addr !5
  %4 = icmp eq i32 %3, 0, !insn.addr !6
  br i1 %4, label %dec_label_pc_1000023fc, label %dec_label_pc_100002414, !insn.addr !6

dec_label_pc_1000023fc:                           ; preds = %dec_label_pc_1000023b4
  %5 = call i32 (i8*, ...) @_printf(i8* getelementptr inbounds ([24 x i8], [24 x i8]* @global_var_100003dec, i64 0, i64 0)), !insn.addr !7
  store i64 4294967295, i64* %stack_var_-44.0.reg2mem, !insn.addr !8
  br label %dec_label_pc_1000024d0, !insn.addr !8

dec_label_pc_100002414:                           ; preds = %dec_label_pc_1000023b4
  %6 = load i64, i64* inttoptr (i64 4294983688 to i64*), align 8, !insn.addr !9
  %7 = inttoptr i64 %6 to i64*, !insn.addr !10
  %8 = call i64 @__ZNSt3__1lsINS_11char_traitsIcEEEERNS_13basic_ostreamIcT_EES6_PKc(i64* %7, i8* getelementptr inbounds ([15 x i8], [15 x i8]* @global_var_100003e04, i64 0, i64 0)), !insn.addr !10
  %9 = inttoptr i64 %8 to i64*, !insn.addr !11
  %10 = inttoptr i64 %arg1 to i64*, !insn.addr !11
  %11 = call i64 @__ZNSt3__1lsIcNS_11char_traitsIcEENS_9allocatorIcEEEERNS_13basic_ostreamIT_T0_EES9_RKNS_12basic_stringIS6_S7_T1_EE(i64* %9, i64* %10), !insn.addr !11
  %12 = inttoptr i64 %11 to i64*, !insn.addr !12
  %13 = call i64 @__ZNSt3__1lsINS_11char_traitsIcEEEERNS_13basic_ostreamIcT_EES6_PKc(i64* %12, i8* getelementptr inbounds ([4 x i8], [4 x i8]* @global_var_100003e13, i64 0, i64 0)), !insn.addr !12
  %14 = load i64* (i64*)*, i64* (i64*)** @global_var_100004018, align 8, !insn.addr !13
  %15 = inttoptr i64 %13 to i64*, !insn.addr !14
  %16 = call i64 @__ZNSt3__113basic_ostreamIcNS_11char_traitsIcEEElsEPFRS3_S4_E(i64* %15, i64* (i64*)* %14), !insn.addr !14
  store i64 0, i64* %stack_var_-40, align 8, !insn.addr !15
  %17 = ptrtoint i64* %stack_var_-40 to i64, !insn.addr !16
  %18 = call i64 @__ZNKSt3__112basic_stringIcNS_11char_traitsIcEENS_9allocatorIcEEE5c_strEv(i64* %10), !insn.addr !17
  %19 = inttoptr i64 %18 to i8*, !insn.addr !18
  %20 = call i32 @_inet_addr(i8* %19), !insn.addr !18
  %21 = or i64 %17, 2, !insn.addr !19
  %22 = inttoptr i64 %21 to i16*, !insn.addr !19
  store i16 -17663, i16* %22, align 2, !insn.addr !19
  %23 = bitcast i64* %stack_var_-40 to %sockaddr*, !insn.addr !20
  %24 = call i32 @_connect(i32 %3, %sockaddr* nonnull %23, i32 16), !insn.addr !20
  %25 = icmp eq i32 %24, 0, !insn.addr !21
  br i1 %25, label %dec_label_pc_1000024c8, label %dec_label_pc_10000249c, !insn.addr !21

dec_label_pc_10000249c:                           ; preds = %dec_label_pc_100002414
  %26 = load i64, i64* inttoptr (i64 4294983688 to i64*), align 8, !insn.addr !22
  %27 = inttoptr i64 %26 to i64*, !insn.addr !23
  %28 = call i64 @__ZNSt3__1lsINS_11char_traitsIcEEEERNS_13basic_ostreamIcT_EES6_PKc(i64* %27, i8* getelementptr inbounds ([28 x i8], [28 x i8]* @global_var_100003e17, i64 0, i64 0)), !insn.addr !23
  %29 = load i64* (i64*)*, i64* (i64*)** @global_var_100004018, align 8, !insn.addr !24
  %30 = inttoptr i64 %28 to i64*, !insn.addr !25
  %31 = call i64 @__ZNSt3__113basic_ostreamIcNS_11char_traitsIcEEElsEPFRS3_S4_E(i64* %30, i64* (i64*)* %29), !insn.addr !25
  store i64 4294967295, i64* %stack_var_-44.0.reg2mem, !insn.addr !26
  br label %dec_label_pc_1000024d0, !insn.addr !26

dec_label_pc_1000024c8:                           ; preds = %dec_label_pc_100002414
  %phitmp = zext i32 %3 to i64
  store i64 %phitmp, i64* %stack_var_-44.0.reg2mem, !insn.addr !27
  br label %dec_label_pc_1000024d0, !insn.addr !27

dec_label_pc_1000024d0:                           ; preds = %dec_label_pc_1000024c8, %dec_label_pc_10000249c, %dec_label_pc_1000023fc
  %stack_var_-44.0.reload = load i64, i64* %stack_var_-44.0.reg2mem
  %32 = load i64, i64* inttoptr (i64 4294983728 to i64*), align 16, !insn.addr !28
  %33 = inttoptr i64 %32 to i64*, !insn.addr !29
  %34 = load i64, i64* %33, align 8, !insn.addr !29
  %35 = icmp eq i64 %34, %2, !insn.addr !30
  br i1 %35, label %dec_label_pc_1000024f0, label %dec_label_pc_100002500, !insn.addr !30

dec_label_pc_1000024f0:                           ; preds = %dec_label_pc_1000024d0
  ret i64 %stack_var_-44.0.reload, !insn.addr !31

dec_label_pc_100002500:                           ; preds = %dec_label_pc_1000024d0
  %36 = trunc i64 %stack_var_-44.0.reload to i32, !insn.addr !32
  %37 = call i64 @function_100003af0(i32 %36), !insn.addr !32
  ret i64 %37, !insn.addr !32
}

define i64 @__ZNSt3__113basic_ostreamIcNS_11char_traitsIcEEElsEPFRS3_S4_E(i64* %result, i64* (i64*)* %arg2) local_unnamed_addr {
dec_label_pc_1000025b4:
  %0 = ptrtoint i64* %result to i64
  ret i64 %0, !insn.addr !33
}

define i64 @__ZNKSt3__112basic_stringIcNS_11char_traitsIcEENS_9allocatorIcEEE5c_strEv(i64* %result) local_unnamed_addr {
dec_label_pc_100002650:
  %0 = call i64 @__ZNKSt3__112basic_stringIcNS_11char_traitsIcEENS_9allocatorIcEEE4dataEv(i64* %result), !insn.addr !34
  ret i64 %0, !insn.addr !35
}

define i64 @__Z23failDisableVerificationP10ssl_ctx_st(i64* %arg1) local_unnamed_addr {
dec_label_pc_100002674:
  %0 = ptrtoint i64* %arg1 to i64
  %1 = call i64 @function_10000397c(i64 %0, i64 1, i64 4294977188), !insn.addr !36
  ret i64 %1, !insn.addr !37
}

define i64 @__Z22failSetInsecureCiphersP10ssl_ctx_st(i64* %arg1) local_unnamed_addr {
dec_label_pc_1000026bc:
  %0 = ptrtoint i64* %arg1 to i64
  %stack_var_-40 = alloca i8*, align 8
  %1 = load i64, i64* inttoptr (i64 4294983728 to i64*), align 16, !insn.addr !38
  %2 = inttoptr i64 %1 to i64*, !insn.addr !39
  %3 = load i64, i64* %2, align 8, !insn.addr !39
  store i8* inttoptr (i64 5207358680114940993 to i8*), i8** %stack_var_-40, align 8, !insn.addr !40
  %4 = bitcast i8** %stack_var_-40 to i64*, !insn.addr !41
  %5 = call i64 @function_100003970(i64 %0, i64* nonnull %4), !insn.addr !41
  %6 = load i64, i64* inttoptr (i64 4294983728 to i64*), align 16, !insn.addr !42
  %7 = inttoptr i64 %6 to i64*, !insn.addr !43
  %8 = load i64, i64* %7, align 8, !insn.addr !43
  %9 = icmp eq i64 %8, %3, !insn.addr !44
  br i1 %9, label %dec_label_pc_10000271c, label %dec_label_pc_100002728, !insn.addr !44

dec_label_pc_10000271c:                           ; preds = %dec_label_pc_1000026bc
  ret i64 %5, !insn.addr !45

dec_label_pc_100002728:                           ; preds = %dec_label_pc_1000026bc
  %10 = trunc i64 %5 to i32, !insn.addr !46
  %11 = call i64 @function_100003af0(i32 %10), !insn.addr !46
  ret i64 %11, !insn.addr !46
}

define i64 @__Z29failSetInsecureCiphersLiteralP10ssl_ctx_st(i64* %arg1) local_unnamed_addr {
dec_label_pc_10000272c:
  %0 = ptrtoint i64* %arg1 to i64
  %1 = call i64 @function_100003970(i64 %0, i64* bitcast ([9 x i8]* @global_var_100003e33 to i64*)), !insn.addr !47
  ret i64 %1, !insn.addr !48
}

define i64 @__Z25failSetInsecureCiphersSTLP10ssl_ctx_st(i64* %arg1) local_unnamed_addr {
dec_label_pc_100002758:
  %0 = ptrtoint i64* %arg1 to i64
  %stack_var_-48 = alloca i64, align 8
  %1 = call i64 @__ZNSt3__112basic_stringIcNS_11char_traitsIcEENS_9allocatorIcEEEC1INS_9nullptr_tEEEPKc(i64* nonnull %stack_var_-48, i8* getelementptr inbounds ([9 x i8], [9 x i8]* @global_var_100003e33, i64 0, i64 0)), !insn.addr !49
  %2 = call i64 @__ZNKSt3__112basic_stringIcNS_11char_traitsIcEENS_9allocatorIcEEE5c_strEv(i64* nonnull %stack_var_-48), !insn.addr !50
  %3 = inttoptr i64 %2 to i64*, !insn.addr !51
  %4 = call i64 @function_100003970(i64 %0, i64* %3), !insn.addr !51
  %5 = call i64 @function_100003a30(i64* nonnull %stack_var_-48), !insn.addr !52
  ret i64 %5, !insn.addr !53
}

define i64 @___clang_call_terminate(i64 %arg1) local_unnamed_addr {
dec_label_pc_1000027e0:
  %0 = call i64 @function_100003acc(i64 %arg1), !insn.addr !54
  %1 = call i64 @__ZSt9terminatev(), !insn.addr !55
  ret i64 %1, !insn.addr !55
}

define i64 @__Z28failSetInsecureCiphersGlobalP10ssl_ctx_st(i64* %arg1) local_unnamed_addr {
dec_label_pc_1000027ec:
  %0 = ptrtoint i64* %arg1 to i64
  %1 = call i64 @__ZNKSt3__112basic_stringIcNS_11char_traitsIcEENS_9allocatorIcEEE5c_strEv(i64* inttoptr (i64 add (i64 ptrtoint (i64* @global_var_100008000 to i64), i64 360) to i64*)), !insn.addr !56
  %2 = inttoptr i64 %1 to i64*, !insn.addr !57
  %3 = call i64 @function_100003970(i64 %0, i64* %2), !insn.addr !57
  ret i64 %3, !insn.addr !58
}

define i64 @__Z14initTLSContextv(i64* %result) local_unnamed_addr {
dec_label_pc_100002844:
  %stack_var_-32 = alloca i64, align 8
  %0 = call i64 @function_10000394c(i64 0, i64 0), !insn.addr !59
  %1 = call i64 @function_10000394c(i64 2097154, i64 0), !insn.addr !60
  %2 = call i64 @function_1000039c4(i64 %1), !insn.addr !61
  %3 = call i64 @function_100003964(i64 %2), !insn.addr !62
  %4 = inttoptr i64 %3 to i64*, !insn.addr !63
  %5 = call i64 @__Z22failSetInsecureCiphersP10ssl_ctx_st(i64* %4), !insn.addr !63
  %6 = call i64 @__Z29failSetInsecureCiphersLiteralP10ssl_ctx_st(i64* %4), !insn.addr !64
  %7 = call i64 @__Z25failSetInsecureCiphersSTLP10ssl_ctx_st(i64* %4), !insn.addr !65
  %8 = call i64 @__Z28failSetInsecureCiphersGlobalP10ssl_ctx_st(i64* %4), !insn.addr !66
  %9 = call i64 @__ZNSt3__1L15__get_nullptr_tEv(i64* %4), !insn.addr !67
  store i64 %9, i64* %stack_var_-32, align 8, !insn.addr !68
  %10 = call i64 @__ZNKSt3__19nullptr_tcvPT_IFiiP17x509_store_ctx_stEEEv(i64* nonnull %stack_var_-32), !insn.addr !69
  %11 = call i64 @function_10000397c(i64 %3, i64 1, i64 %10), !insn.addr !70
  %12 = call i64 @__Z23failDisableVerificationP10ssl_ctx_st(i64* %4), !insn.addr !71
  ret i64 %3, !insn.addr !72
}

define i64 @__ZNSt3__1L15__get_nullptr_tEv(i64* %result) local_unnamed_addr {
dec_label_pc_1000028f4:
  %stack_var_-24 = alloca i64, align 8
  %0 = call i64 @__ZNSt3__19nullptr_tC1EMNS0_5__natEi(i64* nonnull %stack_var_-24, i64 -1), !insn.addr !73
  %1 = load i64, i64* %stack_var_-24, align 8, !insn.addr !74
  ret i64 %1, !insn.addr !75
}

define i64 @__ZNKSt3__19nullptr_tcvPT_IFiiP17x509_store_ctx_stEEEv(i64* %result) local_unnamed_addr {
dec_label_pc_100002920:
  ret i64 0, !insn.addr !76
}

define i64 @main(i64 %argc, i8** %argv) local_unnamed_addr {
dec_label_pc_100002938:
  %stack_var_-20.0.reg2mem = alloca i64, !insn.addr !77
  %stack_var_-104 = alloca i64, align 8
  %stack_var_-64 = alloca i64, align 8
  %0 = load i64, i64* inttoptr (i64 4294983688 to i64*), align 8, !insn.addr !78
  %1 = load i64* (i64*)*, i64* (i64*)** @global_var_100004018, align 8
  %2 = ptrtoint i64* %stack_var_-64 to i64, !insn.addr !79
  %3 = call i64 @__ZNSt3__112basic_stringIcNS_11char_traitsIcEENS_9allocatorIcEEEC1INS_9nullptr_tEEEPKc(i64* nonnull %stack_var_-64, i8* getelementptr inbounds ([14 x i8], [14 x i8]* @global_var_100003e3c, i64 0, i64 0)), !insn.addr !80
  %4 = call i64 @__Z9connectToNSt3__112basic_stringIcNS_11char_traitsIcEENS_9allocatorIcEEEEi(i64 %2, i32 2), !insn.addr !81
  %5 = trunc i64 %4 to i32, !insn.addr !82
  %6 = call i64 @function_100003a30(i64* nonnull %stack_var_-64), !insn.addr !83
  %7 = icmp slt i32 %5, 0, !insn.addr !84
  store i64 4294967295, i64* %stack_var_-20.0.reg2mem, !insn.addr !85
  br i1 %7, label %dec_label_pc_100002bc8, label %dec_label_pc_1000029dc, !insn.addr !85

dec_label_pc_1000029dc:                           ; preds = %dec_label_pc_100002938
  %8 = inttoptr i64 %6 to i64*, !insn.addr !86
  %9 = call i64 @__Z14initTLSContextv(i64* %8), !insn.addr !86
  %10 = call i64 @function_1000039ac(i64 %9), !insn.addr !87
  store i64 %10, i64* inttoptr (i64 add (i64 ptrtoint (i64* @global_var_100008000 to i64), i64 352) to i64*), align 8, !insn.addr !88
  %11 = icmp eq i64 %10, 0, !insn.addr !89
  br i1 %11, label %dec_label_pc_100002a04, label %dec_label_pc_100002a28, !insn.addr !89

dec_label_pc_100002a04:                           ; preds = %dec_label_pc_1000029dc
  %12 = inttoptr i64 %0 to i64*, !insn.addr !90
  %13 = call i64 @__ZNSt3__1lsINS_11char_traitsIcEEEERNS_13basic_ostreamIcT_EES6_PKc(i64* %12, i8* getelementptr inbounds ([20 x i8], [20 x i8]* @global_var_100003e4a, i64 0, i64 0)), !insn.addr !90
  %14 = inttoptr i64 %13 to i64*, !insn.addr !91
  %15 = call i64 @__ZNSt3__113basic_ostreamIcNS_11char_traitsIcEEElsEPFRS3_S4_E(i64* %14, i64* (i64*)* %1), !insn.addr !91
  store i64 4294967295, i64* %stack_var_-20.0.reg2mem, !insn.addr !92
  br label %dec_label_pc_100002bc8, !insn.addr !92

dec_label_pc_100002a28:                           ; preds = %dec_label_pc_1000029dc
  %16 = call i64 @function_1000039b8(i64 %10, i32 %5), !insn.addr !93
  %17 = load i64, i64* inttoptr (i64 add (i64 ptrtoint (i64* @global_var_100008000 to i64), i64 352) to i64*), align 8, !insn.addr !94
  %18 = call i64 @function_100003988(i64 %17), !insn.addr !95
  %19 = trunc i64 %18 to i32, !insn.addr !96
  %20 = icmp slt i32 %19, 1
  br i1 %20, label %dec_label_pc_100002a60, label %dec_label_pc_100002b50, !insn.addr !97

dec_label_pc_100002a60:                           ; preds = %dec_label_pc_100002a28
  %21 = call i64 @function_100003940(i64 %18), !insn.addr !98
  %22 = inttoptr i64 %0 to i64*, !insn.addr !99
  %23 = call i64 @__ZNSt3__1lsINS_11char_traitsIcEEEERNS_13basic_ostreamIcT_EES6_PKc(i64* %22, i8* getelementptr inbounds ([44 x i8], [44 x i8]* @global_var_100003e5e, i64 0, i64 0)), !insn.addr !99
  %sext = mul i64 %21, 4294967296
  %24 = sdiv i64 %sext, 4294967296, !insn.addr !100
  %25 = inttoptr i64 %23 to i64*, !insn.addr !101
  %26 = call i64 @__ZNSt3__1L15__get_nullptr_tEv(i64* %25), !insn.addr !101
  store i64 %26, i64* %stack_var_-104, align 8, !insn.addr !102
  %27 = call i64 @__ZNKSt3__19nullptr_tcvPT_IcEEv(i64* nonnull %stack_var_-104), !insn.addr !103
  %28 = call i64 @function_100003934(i64 %24, i64 %27), !insn.addr !104
  %29 = inttoptr i64 %28 to i8*, !insn.addr !105
  %30 = call i64 @__ZNSt3__1lsINS_11char_traitsIcEEEERNS_13basic_ostreamIcT_EES6_PKc(i64* %25, i8* %29), !insn.addr !105
  %31 = inttoptr i64 %30 to i64*, !insn.addr !106
  %32 = call i64 @__ZNSt3__113basic_ostreamIcNS_11char_traitsIcEEElsEPFRS3_S4_E(i64* %31, i64* (i64*)* %1), !insn.addr !106
  store i64 4294967295, i64* %stack_var_-20.0.reg2mem, !insn.addr !107
  br label %dec_label_pc_100002bc8, !insn.addr !107

dec_label_pc_100002b50:                           ; preds = %dec_label_pc_100002a28
  %33 = load i64, i64* inttoptr (i64 add (i64 ptrtoint (i64* @global_var_100008000 to i64), i64 352) to i64*), align 8, !insn.addr !108
  %34 = call i64 @function_1000039a0(i64 %33), !insn.addr !109
  %35 = icmp eq i64 %34, 0, !insn.addr !110
  br i1 %35, label %dec_label_pc_100002b60, label %dec_label_pc_100002b7c, !insn.addr !110

dec_label_pc_100002b60:                           ; preds = %dec_label_pc_100002b50
  %36 = load i64, i64* @global_var_100004010, align 8, !insn.addr !111
  %37 = inttoptr i64 %36 to i64*, !insn.addr !112
  %38 = call i64 @__ZNSt3__1lsINS_11char_traitsIcEEEERNS_13basic_ostreamIcT_EES6_PKc(i64* %37, i8* getelementptr inbounds ([36 x i8], [36 x i8]* @global_var_100003e8a, i64 0, i64 0)), !insn.addr !112
  %39 = inttoptr i64 %38 to i64*, !insn.addr !113
  %40 = call i64 @__ZNSt3__113basic_ostreamIcNS_11char_traitsIcEEElsEPFRS3_S4_E(i64* %39, i64* (i64*)* %1), !insn.addr !113
  br label %dec_label_pc_100002b7c, !insn.addr !113

dec_label_pc_100002b7c:                           ; preds = %dec_label_pc_100002b50, %dec_label_pc_100002b60
  %41 = load i64, i64* @global_var_100004010, align 8, !insn.addr !114
  %42 = inttoptr i64 %41 to i64*, !insn.addr !115
  %43 = call i64 @__ZNSt3__1lsINS_11char_traitsIcEEEERNS_13basic_ostreamIcT_EES6_PKc(i64* %42, i8* getelementptr inbounds ([37 x i8], [37 x i8]* @global_var_100003eae, i64 0, i64 0)), !insn.addr !115
  %44 = load i64, i64* inttoptr (i64 add (i64 ptrtoint (i64* @global_var_100008000 to i64), i64 352) to i64*), align 8, !insn.addr !116
  %45 = call i64 @function_100003994(i64 %44), !insn.addr !117
  %46 = call i64 @function_100003958(i64 %45), !insn.addr !118
  %47 = inttoptr i64 %43 to i64*, !insn.addr !119
  %48 = inttoptr i64 %46 to i8*, !insn.addr !119
  %49 = call i64 @__ZNSt3__1lsINS_11char_traitsIcEEEERNS_13basic_ostreamIcT_EES6_PKc(i64* %47, i8* %48), !insn.addr !119
  %50 = inttoptr i64 %49 to i64*, !insn.addr !120
  %51 = call i64 @__ZNSt3__113basic_ostreamIcNS_11char_traitsIcEEElsEPFRS3_S4_E(i64* %50, i64* (i64*)* %1), !insn.addr !120
  store i64 0, i64* %stack_var_-20.0.reg2mem, !insn.addr !121
  br label %dec_label_pc_100002bc8, !insn.addr !121

dec_label_pc_100002bc8:                           ; preds = %dec_label_pc_100002938, %dec_label_pc_100002b7c, %dec_label_pc_100002a60, %dec_label_pc_100002a04
  %stack_var_-20.0.reload = load i64, i64* %stack_var_-20.0.reg2mem
  ret i64 %stack_var_-20.0.reload, !insn.addr !122
}

define i64 @__ZNKSt3__19nullptr_tcvPT_IcEEv(i64* %result) local_unnamed_addr {
dec_label_pc_100002be4:
  ret i64 0, !insn.addr !123
}

define i64 @__ZNSt3__19nullptr_tC1EMNS0_5__natEi(i64* %result, i64 %arg2) local_unnamed_addr {
dec_label_pc_100002bfc:
  %0 = ptrtoint i64* %result to i64
  %1 = call i64 @__ZNSt3__19nullptr_tC2EMNS0_5__natEi(i64* %result, i64 %arg2), !insn.addr !124
  ret i64 %0, !insn.addr !125
}

define i64 @__ZNSt3__19nullptr_tC2EMNS0_5__natEi(i64* %result, i64 %arg2) local_unnamed_addr {
dec_label_pc_100002c38:
  %0 = ptrtoint i64* %result to i64
  store i64 0, i64* %result, align 8, !insn.addr !126
  ret i64 %0, !insn.addr !127
}

define i64 @__ZNSt3__112basic_stringIcNS_11char_traitsIcEENS_9allocatorIcEEEC2INS_9nullptr_tEEEPKc(i64* %result, i8* %arg2) local_unnamed_addr {
dec_label_pc_100002c58:
  %0 = ptrtoint i8* %arg2 to i64
  %1 = ptrtoint i64* %result to i64
  %stack_var_-34 = alloca i64, align 8
  %stack_var_-33 = alloca i64, align 8
  %2 = call i64 @__ZNSt3__117__compressed_pairINS_12basic_stringIcNS_11char_traitsIcEENS_9allocatorIcEEE5__repES5_EC1INS_18__default_init_tagESA_EEOT_OT0_(i64* %result, i64* nonnull %stack_var_-33, i64* nonnull %stack_var_-34), !insn.addr !128
  %3 = call i64 @__ZNSt3__111char_traitsIcE6lengthEPKc(i8* %arg2), !insn.addr !129
  %4 = bitcast i64* %result to i8*, !insn.addr !130
  %5 = call i64 @__ZNSt3__112basic_stringIcNS_11char_traitsIcEENS_9allocatorIcEEE6__initEPKcm(i8* %4, i64 %0), !insn.addr !130
  ret i64 %1, !insn.addr !131
}

define i64 @__ZNSt3__117__compressed_pairINS_12basic_stringIcNS_11char_traitsIcEENS_9allocatorIcEEE5__repES5_EC1INS_18__default_init_tagESA_EEOT_OT0_(i64* %result, i64* %arg2, i64* %arg3) local_unnamed_addr {
dec_label_pc_100002cc0:
  %0 = ptrtoint i64* %result to i64
  %1 = call i64 @__ZNSt3__117__compressed_pairINS_12basic_stringIcNS_11char_traitsIcEENS_9allocatorIcEEE5__repES5_EC2INS_18__default_init_tagESA_EEOT_OT0_(i64* %result, i64* %arg2, i64* %arg3), !insn.addr !132
  ret i64 %0, !insn.addr !133
}

define i64 @__ZNSt3__117__compressed_pairINS_12basic_stringIcNS_11char_traitsIcEENS_9allocatorIcEEE5__repES5_EC2INS_18__default_init_tagESA_EEOT_OT0_(i64* %result, i64* %arg2, i64* %arg3) local_unnamed_addr {
dec_label_pc_100002d28:
  %0 = ptrtoint i64* %result to i64
  %1 = call i64* @__ZNSt3__1L7forwardINS_18__default_init_tagEEEOT_RNS_16remove_referenceIS2_E4typeE(i64* %arg2), !insn.addr !134
  %2 = call i64 @__ZNSt3__122__compressed_pair_elemINS_12basic_stringIcNS_11char_traitsIcEENS_9allocatorIcEEE5__repELi0ELb0EEC2ENS_18__default_init_tagE(i64 %0), !insn.addr !135
  %3 = call i64* @__ZNSt3__1L7forwardINS_18__default_init_tagEEEOT_RNS_16remove_referenceIS2_E4typeE(i64* %arg3), !insn.addr !136
  %4 = call i64 @__ZNSt3__122__compressed_pair_elemINS_9allocatorIcEELi1ELb1EEC2ENS_18__default_init_tagE(i64 %0), !insn.addr !137
  ret i64 %0, !insn.addr !138
}

define i64* @__ZNSt3__1L7forwardINS_18__default_init_tagEEEOT_RNS_16remove_referenceIS2_E4typeE(i64* %arg1) local_unnamed_addr {
dec_label_pc_100002d88:
  ret i64* %arg1, !insn.addr !139
}

define i64 @__ZNSt3__122__compressed_pair_elemINS_12basic_stringIcNS_11char_traitsIcEENS_9allocatorIcEEE5__repELi0ELb0EEC2ENS_18__default_init_tagE(i64 %arg1) local_unnamed_addr {
dec_label_pc_100002d9c:
  ret i64 %arg1, !insn.addr !140
}

define i64 @__ZNSt3__122__compressed_pair_elemINS_9allocatorIcEELi1ELb1EEC2ENS_18__default_init_tagE(i64 %arg1) local_unnamed_addr {
dec_label_pc_100002db0:
  %0 = inttoptr i64 %arg1 to i64*, !insn.addr !141
  %1 = call i64 @__ZNSt3__19allocatorIcEC2Ev(i64* %0), !insn.addr !141
  ret i64 %arg1, !insn.addr !142
}

define i64 @__ZNSt3__19allocatorIcEC2Ev(i64* %result) local_unnamed_addr {
dec_label_pc_100002de4:
  %0 = ptrtoint i64* %result to i64
  ret i64 %0, !insn.addr !143
}

define i64 @__ZNKSt3__112basic_stringIcNS_11char_traitsIcEENS_9allocatorIcEEE4dataEv(i64* %result) local_unnamed_addr {
dec_label_pc_100003420:
  %0 = call i64 @__ZNKSt3__112basic_stringIcNS_11char_traitsIcEENS_9allocatorIcEEE13__get_pointerEv(i64* %result), !insn.addr !144
  %1 = inttoptr i64 %0 to i8*, !insn.addr !145
  %2 = call i8* @__ZNSt3__1L12__to_addressIKcEEPT_S3_(i8* %1), !insn.addr !145
  %3 = ptrtoint i8* %2 to i64, !insn.addr !145
  ret i64 %3, !insn.addr !146
}

define i8* @__ZNSt3__1L12__to_addressIKcEEPT_S3_(i8* %arg1) local_unnamed_addr {
dec_label_pc_1000034c8:
  ret i8* %arg1, !insn.addr !147
}

define i64 @__ZNKSt3__112basic_stringIcNS_11char_traitsIcEENS_9allocatorIcEEE13__get_pointerEv(i64* %result) local_unnamed_addr {
dec_label_pc_1000034dc:
  %storemerge.reg2mem = alloca i64, !insn.addr !148
  %0 = call i64 @__ZNKSt3__112basic_stringIcNS_11char_traitsIcEENS_9allocatorIcEEE9__is_longEv(i64* %result), !insn.addr !149
  %1 = urem i64 %0, 2
  %2 = icmp eq i64 %1, 0, !insn.addr !150
  br i1 %2, label %dec_label_pc_100003514, label %dec_label_pc_100003504, !insn.addr !150

dec_label_pc_100003504:                           ; preds = %dec_label_pc_1000034dc
  %3 = call i64 @__ZNKSt3__112basic_stringIcNS_11char_traitsIcEENS_9allocatorIcEEE18__get_long_pointerEv(i64* %result), !insn.addr !151
  store i64 %3, i64* %storemerge.reg2mem, !insn.addr !152
  br label %dec_label_pc_100003520, !insn.addr !152

dec_label_pc_100003514:                           ; preds = %dec_label_pc_1000034dc
  %4 = call i64 @__ZNKSt3__112basic_stringIcNS_11char_traitsIcEENS_9allocatorIcEEE19__get_short_pointerEv(i64* %result), !insn.addr !153
  store i64 %4, i64* %storemerge.reg2mem, !insn.addr !154
  br label %dec_label_pc_100003520, !insn.addr !154

dec_label_pc_100003520:                           ; preds = %dec_label_pc_100003514, %dec_label_pc_100003504
  %storemerge.reload = load i64, i64* %storemerge.reg2mem
  ret i64 %storemerge.reload, !insn.addr !155
}

define i64 @__ZNKSt3__112basic_stringIcNS_11char_traitsIcEENS_9allocatorIcEEE9__is_longEv(i64* %result) local_unnamed_addr {
dec_label_pc_100003534:
  %0 = call i64 @__ZNKSt3__117__compressed_pairINS_12basic_stringIcNS_11char_traitsIcEENS_9allocatorIcEEE5__repES5_E5firstEv(i64* %result), !insn.addr !156
  %1 = add i64 %0, 23, !insn.addr !157
  %2 = inttoptr i64 %1 to i8*, !insn.addr !157
  %3 = load i8, i8* %2, align 1, !insn.addr !157
  %4 = icmp sgt i8 %3, -1, !insn.addr !158
  %5 = icmp ne i1 %4, true, !insn.addr !159
  %6 = zext i1 %5 to i64, !insn.addr !160
  ret i64 %6, !insn.addr !161
}

define i64 @__ZNKSt3__112basic_stringIcNS_11char_traitsIcEENS_9allocatorIcEEE18__get_long_pointerEv(i64* %result) local_unnamed_addr {
dec_label_pc_10000356c:
  %0 = call i64 @__ZNKSt3__117__compressed_pairINS_12basic_stringIcNS_11char_traitsIcEENS_9allocatorIcEEE5__repES5_E5firstEv(i64* %result), !insn.addr !162
  %1 = inttoptr i64 %0 to i64*, !insn.addr !163
  %2 = load i64, i64* %1, align 8, !insn.addr !163
  ret i64 %2, !insn.addr !164
}

define i64 @__ZNKSt3__112basic_stringIcNS_11char_traitsIcEENS_9allocatorIcEEE19__get_short_pointerEv(i64* %result) local_unnamed_addr {
dec_label_pc_100003594:
  %0 = call i64 @__ZNKSt3__117__compressed_pairINS_12basic_stringIcNS_11char_traitsIcEENS_9allocatorIcEEE5__repES5_E5firstEv(i64* %result), !insn.addr !165
  %1 = inttoptr i64 %0 to i8*, !insn.addr !166
  %2 = call i64 @__ZNSt3__114pointer_traitsIPKcE10pointer_toERS1_(i8* %1), !insn.addr !166
  ret i64 %2, !insn.addr !167
}

define i64 @__ZNKSt3__117__compressed_pairINS_12basic_stringIcNS_11char_traitsIcEENS_9allocatorIcEEE5__repES5_E5firstEv(i64* %result) local_unnamed_addr {
dec_label_pc_1000035bc:
  %0 = call i64 @__ZNKSt3__122__compressed_pair_elemINS_12basic_stringIcNS_11char_traitsIcEENS_9allocatorIcEEE5__repELi0ELb0EE5__getEv(i64* %result), !insn.addr !168
  ret i64 %0, !insn.addr !169
}

define i64 @__ZNKSt3__122__compressed_pair_elemINS_12basic_stringIcNS_11char_traitsIcEENS_9allocatorIcEEE5__repELi0ELb0EE5__getEv(i64* %result) local_unnamed_addr {
dec_label_pc_1000035e0:
  %0 = ptrtoint i64* %result to i64
  ret i64 %0, !insn.addr !170
}

define i64 @__ZNSt3__114pointer_traitsIPKcE10pointer_toERS1_(i8* %arg1) local_unnamed_addr {
dec_label_pc_1000035f4:
  %0 = call i8* @__ZNSt3__1L9addressofIKcEEPT_RS2_(i8* %arg1), !insn.addr !171
  %1 = ptrtoint i8* %0 to i64, !insn.addr !171
  ret i64 %1, !insn.addr !172
}

define i8* @__ZNSt3__1L9addressofIKcEEPT_RS2_(i8* %arg1) local_unnamed_addr {
dec_label_pc_100003618:
  ret i8* %arg1, !insn.addr !173
}

define i64 @function_100003934(i64 %arg1, i64 %arg2) local_unnamed_addr {
dec_label_pc_100003934:
  %0 = call i64 @_ERR_error_string(), !insn.addr !174
  ret i64 %0, !insn.addr !174
}

define i64 @function_100003940(i64 %arg1) local_unnamed_addr {
dec_label_pc_100003940:
  %0 = call i64 @_ERR_get_error(), !insn.addr !175
  ret i64 %0, !insn.addr !175
}

define i64 @function_10000394c(i64 %arg1, i64 %arg2) local_unnamed_addr {
dec_label_pc_10000394c:
  %0 = call i64 @_OPENSSL_init_ssl(), !insn.addr !176
  ret i64 %0, !insn.addr !176
}

define i64 @function_100003958(i64 %arg1) local_unnamed_addr {
dec_label_pc_100003958:
  %0 = call i64 @_SSL_CIPHER_get_name(), !insn.addr !177
  ret i64 %0, !insn.addr !177
}

define i64 @function_100003964(i64 %arg1) local_unnamed_addr {
dec_label_pc_100003964:
  %0 = call i64 @_SSL_CTX_new(), !insn.addr !178
  ret i64 %0, !insn.addr !178
}

define i64 @function_100003970(i64 %arg1, i64* %arg2) local_unnamed_addr {
dec_label_pc_100003970:
  %0 = call i64 @_SSL_CTX_set_cipher_list(), !insn.addr !179
  ret i64 %0, !insn.addr !179
}

define i64 @function_10000397c(i64 %arg1, i64 %arg2, i64 %arg3) local_unnamed_addr {
dec_label_pc_10000397c:
  %0 = call i64 @_SSL_CTX_set_verify(), !insn.addr !180
  ret i64 %0, !insn.addr !180
}

define i64 @function_100003988(i64 %arg1) local_unnamed_addr {
dec_label_pc_100003988:
  %0 = call i64 @_SSL_connect(), !insn.addr !181
  ret i64 %0, !insn.addr !181
}

define i64 @function_100003994(i64 %arg1) local_unnamed_addr {
dec_label_pc_100003994:
  %0 = call i64 @_SSL_get_current_cipher(), !insn.addr !182
  ret i64 %0, !insn.addr !182
}

define i64 @function_1000039a0(i64 %arg1) local_unnamed_addr {
dec_label_pc_1000039a0:
  %0 = call i64 @_SSL_get_verify_result(), !insn.addr !183
  ret i64 %0, !insn.addr !183
}

define i64 @function_1000039ac(i64 %arg1) local_unnamed_addr {
dec_label_pc_1000039ac:
  %0 = call i64 @_SSL_new(), !insn.addr !184
  ret i64 %0, !insn.addr !184
}

define i64 @function_1000039b8(i64 %arg1, i32 %arg2) local_unnamed_addr {
dec_label_pc_1000039b8:
  %0 = call i64 @_SSL_set_fd(), !insn.addr !185
  ret i64 %0, !insn.addr !185
}

define i64 @function_1000039c4(i64 %arg1) local_unnamed_addr {
dec_label_pc_1000039c4:
  %0 = call i64 @_TLSv1_2_client_method(), !insn.addr !186
  ret i64 %0, !insn.addr !186
}

define i64 @function_1000039d0(i64 %arg1) local_unnamed_addr {
dec_label_pc_1000039d0:
  %0 = call i64 @__Unwind_Resume(), !insn.addr !187
  ret i64 %0, !insn.addr !187
}

define i64 @function_100003a30(i64* %arg1) local_unnamed_addr {
dec_label_pc_100003a30:
  %0 = call i64 @__ZNSt3__112basic_stringIcNS_11char_traitsIcEENS_9allocatorIcEEED1Ev.4(), !insn.addr !188
  ret i64 %0, !insn.addr !188
}

define i64 @function_100003acc(i64 %arg1) local_unnamed_addr {
dec_label_pc_100003acc:
  %0 = call i64 @___cxa_begin_catch(), !insn.addr !189
  ret i64 %0, !insn.addr !189
}

define i64 @function_100003af0(i32 %arg1) local_unnamed_addr {
dec_label_pc_100003af0:
  %0 = call i64 @___stack_chk_fail(), !insn.addr !190
  ret i64 %0, !insn.addr !190
}

declare i64 @_ERR_error_string() local_unnamed_addr

declare i64 @_ERR_get_error() local_unnamed_addr

declare i64 @_OPENSSL_init_ssl() local_unnamed_addr

declare i64 @_SSL_CIPHER_get_name() local_unnamed_addr

declare i64 @_SSL_CTX_new() local_unnamed_addr

declare i64 @_SSL_CTX_set_cipher_list() local_unnamed_addr

declare i64 @_SSL_CTX_set_verify() local_unnamed_addr

declare i64 @_SSL_connect() local_unnamed_addr

declare i64 @_SSL_get_current_cipher() local_unnamed_addr

declare i64 @_SSL_get_verify_result() local_unnamed_addr

declare i64 @_SSL_new() local_unnamed_addr

declare i64 @_SSL_set_fd() local_unnamed_addr

declare i64 @_TLSv1_2_client_method() local_unnamed_addr

declare i64 @__Unwind_Resume() local_unnamed_addr

declare i64 @__ZNSt3__111char_traitsIcE6lengthEPKc(i8*) local_unnamed_addr

declare i64 @__ZNSt3__112basic_stringIcNS_11char_traitsIcEENS_9allocatorIcEEE6__initEPKcm(i8*, i64) local_unnamed_addr

declare i64 @__ZNSt3__112basic_stringIcNS_11char_traitsIcEENS_9allocatorIcEEED1Ev.4() local_unnamed_addr

declare i64 @__ZNSt3__1lsINS_11char_traitsIcEEEERNS_13basic_ostreamIcT_EES6_PKc(i64*, i8*) local_unnamed_addr

declare i64 @__ZNSt3__1lsIcNS_11char_traitsIcEENS_9allocatorIcEEEERNS_13basic_ostreamIT_T0_EES9_RKNS_12basic_stringIS6_S7_T1_EE(i64*, i64*) local_unnamed_addr

declare i64 @__ZSt9terminatev() local_unnamed_addr

declare i64 @___cxa_begin_catch() local_unnamed_addr

declare i64 @___stack_chk_fail() local_unnamed_addr

declare i32 @_connect(i32, %sockaddr*, i32) local_unnamed_addr

declare i32 @_inet_addr(i8*) local_unnamed_addr

declare i32 @_printf(i8*, ...) local_unnamed_addr

declare i32 @_socket(i32, i32, i32) local_unnamed_addr

!0 = !{i64 4294976412}
!1 = !{i64 4294976432}
!2 = !{i64 4294976436}
!3 = !{i64 4294976452}
!4 = !{i64 4294976456}
!5 = !{i64 4294976492}
!6 = !{i64 4294976504}
!7 = !{i64 4294976516}
!8 = !{i64 4294976528}
!9 = !{i64 4294976536}
!10 = !{i64 4294976548}
!11 = !{i64 4294976556}
!12 = !{i64 4294976568}
!13 = !{i64 4294976576}
!14 = !{i64 4294976580}
!15 = !{i64 4294976588}
!16 = !{i64 4294976612}
!17 = !{i64 4294976616}
!18 = !{i64 4294976620}
!19 = !{i64 4294976636}
!20 = !{i64 4294976660}
!21 = !{i64 4294976664}
!22 = !{i64 4294976672}
!23 = !{i64 4294976684}
!24 = !{i64 4294976692}
!25 = !{i64 4294976696}
!26 = !{i64 4294976708}
!27 = !{i64 4294976716}
!28 = !{i64 4294976728}
!29 = !{i64 4294976732}
!30 = !{i64 4294976748}
!31 = !{i64 4294976764}
!32 = !{i64 4294976768}
!33 = !{i64 4294976976}
!34 = !{i64 4294977124}
!35 = !{i64 4294977136}
!36 = !{i64 4294977172}
!37 = !{i64 4294977184}
!38 = !{i64 4294977228}
!39 = !{i64 4294977232}
!40 = !{i64 4294977260}
!41 = !{i64 4294977280}
!42 = !{i64 4294977288}
!43 = !{i64 4294977292}
!44 = !{i64 4294977304}
!45 = !{i64 4294977316}
!46 = !{i64 4294977320}
!47 = !{i64 4294977352}
!48 = !{i64 4294977364}
!49 = !{i64 4294977404}
!50 = !{i64 4294977424}
!51 = !{i64 4294977444}
!52 = !{i64 4294977456}
!53 = !{i64 4294977468}
!54 = !{i64 4294977508}
!55 = !{i64 4294977512}
!56 = !{i64 4294977552}
!57 = !{i64 4294977572}
!58 = !{i64 4294977584}
!59 = !{i64 4294977636}
!60 = !{i64 4294977656}
!61 = !{i64 4294977660}
!62 = !{i64 4294977664}
!63 = !{i64 4294977676}
!64 = !{i64 4294977684}
!65 = !{i64 4294977692}
!66 = !{i64 4294977700}
!67 = !{i64 4294977712}
!68 = !{i64 4294977720}
!69 = !{i64 4294977728}
!70 = !{i64 4294977752}
!71 = !{i64 4294977760}
!72 = !{i64 4294977776}
!73 = !{i64 4294977800}
!74 = !{i64 4294977804}
!75 = !{i64 4294977820}
!76 = !{i64 4294977844}
!77 = !{i64 4294977848}
!78 = !{i64 4294977864}
!79 = !{i64 4294977912}
!80 = !{i64 4294977916}
!81 = !{i64 4294977932}
!82 = !{i64 4294977936}
!83 = !{i64 4294977948}
!84 = !{i64 4294977964}
!85 = !{i64 4294977972}
!86 = !{i64 4294978012}
!87 = !{i64 4294978024}
!88 = !{i64 4294978040}
!89 = !{i64 4294978048}
!90 = !{i64 4294978064}
!91 = !{i64 4294978072}
!92 = !{i64 4294978084}
!93 = !{i64 4294978104}
!94 = !{i64 4294978112}
!95 = !{i64 4294978120}
!96 = !{i64 4294978124}
!97 = !{i64 4294978140}
!98 = !{i64 4294978144}
!99 = !{i64 4294978164}
!100 = !{i64 4294978168}
!101 = !{i64 4294978180}
!102 = !{i64 4294978188}
!103 = !{i64 4294978196}
!104 = !{i64 4294978216}
!105 = !{i64 4294978236}
!106 = !{i64 4294978244}
!107 = !{i64 4294978256}
!108 = !{i64 4294978388}
!109 = !{i64 4294978392}
!110 = !{i64 4294978396}
!111 = !{i64 4294978404}
!112 = !{i64 4294978416}
!113 = !{i64 4294978424}
!114 = !{i64 4294978432}
!115 = !{i64 4294978444}
!116 = !{i64 4294978452}
!117 = !{i64 4294978464}
!118 = !{i64 4294978468}
!119 = !{i64 4294978488}
!120 = !{i64 4294978496}
!121 = !{i64 4294978500}
!122 = !{i64 4294978516}
!123 = !{i64 4294978552}
!124 = !{i64 4294978592}
!125 = !{i64 4294978612}
!126 = !{i64 4294978632}
!127 = !{i64 4294978644}
!128 = !{i64 4294978688}
!129 = !{i64 4294978708}
!130 = !{i64 4294978732}
!131 = !{i64 4294978748}
!132 = !{i64 4294978796}
!133 = !{i64 4294978816}
!134 = !{i64 4294978892}
!135 = !{i64 4294978904}
!136 = !{i64 4294978916}
!137 = !{i64 4294978928}
!138 = !{i64 4294978948}
!139 = !{i64 4294978968}
!140 = !{i64 4294978988}
!141 = !{i64 4294979020}
!142 = !{i64 4294979040}
!143 = !{i64 4294979060}
!144 = !{i64 4294980660}
!145 = !{i64 4294980664}
!146 = !{i64 4294980676}
!147 = !{i64 4294980824}
!148 = !{i64 4294980828}
!149 = !{i64 4294980856}
!150 = !{i64 4294980860}
!151 = !{i64 4294980872}
!152 = !{i64 4294980880}
!153 = !{i64 4294980888}
!154 = !{i64 4294980892}
!155 = !{i64 4294980912}
!156 = !{i64 4294980936}
!157 = !{i64 4294980940}
!158 = !{i64 4294980948}
!159 = !{i64 4294980952}
!160 = !{i64 4294980956}
!161 = !{i64 4294980968}
!162 = !{i64 4294980992}
!163 = !{i64 4294980996}
!164 = !{i64 4294981008}
!165 = !{i64 4294981032}
!166 = !{i64 4294981036}
!167 = !{i64 4294981048}
!168 = !{i64 4294981072}
!169 = !{i64 4294981084}
!170 = !{i64 4294981104}
!171 = !{i64 4294981128}
!172 = !{i64 4294981140}
!173 = !{i64 4294981160}
!174 = !{i64 4294981948}
!175 = !{i64 4294981960}
!176 = !{i64 4294981972}
!177 = !{i64 4294981984}
!178 = !{i64 4294981996}
!179 = !{i64 4294982008}
!180 = !{i64 4294982020}
!181 = !{i64 4294982032}
!182 = !{i64 4294982044}
!183 = !{i64 4294982056}
!184 = !{i64 4294982068}
!185 = !{i64 4294982080}
!186 = !{i64 4294982092}
!187 = !{i64 4294982104}
!188 = !{i64 4294982200}
!189 = !{i64 4294982356}
!190 = !{i64 4294982392}
