source_filename = "test"
target datalayout = "e-m:e-i64:64-i128:128-n32:64-S128"

%sockaddr = type { i64, [14 x i8] }

@global_var_100003dec = constant [24 x i8] c"Error creating socket.\0A\00"
@global_var_100002464 = local_unnamed_addr constant i64 -5179628132285546488
@global_var_100003e04 = constant [15 x i8] c"Connecting to \00"
@global_var_100003e13 = constant [4 x i8] c"...\00"
@global_var_100003e17 = constant [28 x i8] c"Error connecting to server.\00"
@global_var_100002518 = local_unnamed_addr constant i64 -5179628132285546488
@global_var_100003e33 = constant [9 x i8] c"ALL:!ADH\00"
@global_var_100003e3b = local_unnamed_addr constant i64 3977015119937220864
@global_var_100002760 = local_unnamed_addr constant i64 -486365632162430968
@global_var_100008000 = local_unnamed_addr global i64 4294982492
@global_var_100003de8 = constant [4 x i8] c"MD5\00"
@global_var_100008158 = local_unnamed_addr global [4 x i8]* @global_var_100003de8
@global_var_1000028e4 = local_unnamed_addr constant i64 -963765884319432632
@global_var_100003e3c = constant [14 x i8] c"172.217.18.99\00"
@global_var_100002a68 = local_unnamed_addr constant i64 -3458764334237220824
@global_var_100008160 = local_unnamed_addr global i64 72057649854544591
@global_var_100003e4a = constant [20 x i8] c"Error creating SSL.\00"
@global_var_100002a98 = local_unnamed_addr constant i64 -5179205919820480504
@global_var_100003e5e = constant [44 x i8] c"Error creating SSL connection. Error Code: \00"
@global_var_100002b44 = local_unnamed_addr constant i64 -5179205915525513207
@global_var_100002bc0 = local_unnamed_addr constant i64 -5179205915525513207
@global_var_100004008 = local_unnamed_addr global i64 0
@global_var_100003e8a = constant [36 x i8] c"Call to SSL_get_verify_result is ok\00"
@global_var_100003eae = constant [37 x i8] c"SSL communication established using \00"
@global_var_100002c0c = local_unnamed_addr constant i64 -486194108348497880
@global_var_100002e00 = local_unnamed_addr constant i64 1441151954695749696
@global_var_1000030a8 = local_unnamed_addr constant i64 -5116001219722084343
@global_var_1000031e0 = local_unnamed_addr constant i64 1441151916041044032
@global_var_100003338 = local_unnamed_addr constant i64 -6250578478773567383
@global_var_100003510 = local_unnamed_addr constant i64 1441151903156142144
@global_var_100004018 = local_unnamed_addr global i64 0
@global_var_100003858 = local_unnamed_addr constant i64 1441151903156142144
@global_var_100003b5c = local_unnamed_addr constant i64 1729382227248152656
@global_var_100008008 = local_unnamed_addr global i64 4294982504
@global_var_100003b68 = local_unnamed_addr constant i64 1729382214363250768
@global_var_100008010 = local_unnamed_addr global i64 4294982516
@global_var_100003b74 = local_unnamed_addr constant i64 1729382201478348880
@global_var_100008018 = local_unnamed_addr global i64 4294982528
@global_var_100003b80 = local_unnamed_addr constant i64 1729382188593446992
@global_var_100008020 = local_unnamed_addr global i64 4294982540
@global_var_100003b8c = local_unnamed_addr constant i64 1729382175708545104
@global_var_100008028 = local_unnamed_addr global i64 4294982552
@global_var_100003b98 = local_unnamed_addr constant i64 1729382162823643216
@global_var_100008030 = local_unnamed_addr global i64 4294982564
@global_var_100003ba4 = local_unnamed_addr constant i64 1729382149938741328
@global_var_100008038 = local_unnamed_addr global i64 4294982576
@global_var_100003bb0 = local_unnamed_addr constant i64 1729382137053839440
@global_var_100008040 = local_unnamed_addr global i64 4294982588
@global_var_100003bbc = local_unnamed_addr constant i64 1729382124168937552
@global_var_100008048 = local_unnamed_addr global i64 4294982600
@global_var_100003bc8 = local_unnamed_addr constant i64 1729382111284035664
@global_var_100008050 = local_unnamed_addr global i64 4294982612
@global_var_100003bd4 = local_unnamed_addr constant i64 1729382098399133776
@global_var_100008058 = local_unnamed_addr global i64 4294982624
@global_var_100003be0 = local_unnamed_addr constant i64 1729382085514231888
@global_var_100008060 = local_unnamed_addr global i64 4294982636
@global_var_100003bec = local_unnamed_addr constant i64 1729382072629330000
@global_var_100008068 = local_unnamed_addr global i64 4294982840
@global_var_100003cb8 = local_unnamed_addr constant i64 1729381853585997904
@global_var_100008070 = local_unnamed_addr global i64 4294982648
@global_var_100003bf8 = local_unnamed_addr constant i64 1729382059744428112
@global_var_100008078 = local_unnamed_addr global i64 4294982660
@global_var_100003c04 = local_unnamed_addr constant i64 1729382046859526224
@global_var_100008080 = local_unnamed_addr global i64 4294981344
@global_var_100008088 = local_unnamed_addr global i64 4294981384
@global_var_100008090 = local_unnamed_addr global i64 4294979244
@global_var_100008098 = local_unnamed_addr global i64 4294982672
@global_var_100003c10 = local_unnamed_addr constant i64 1729382033974624336
@global_var_1000080a0 = local_unnamed_addr global i64 4294982684
@global_var_100003c1c = local_unnamed_addr constant i64 1729382021089722448
@global_var_1000080a8 = local_unnamed_addr global i64 4294982696
@global_var_100003c28 = local_unnamed_addr constant i64 1729382008204820560
@global_var_1000080b0 = local_unnamed_addr global i64 4294982708
@global_var_100003c34 = local_unnamed_addr constant i64 1729381995319918672
@global_var_1000080b8 = local_unnamed_addr global i64 4294982720
@global_var_100003c40 = local_unnamed_addr constant i64 1729381982435016784
@global_var_1000080c0 = local_unnamed_addr global i64 4294982732
@global_var_100003c4c = local_unnamed_addr constant i64 1729381969550114896
@global_var_1000080c8 = local_unnamed_addr global i64 4294982744
@global_var_100003c58 = local_unnamed_addr constant i64 1729381956665213008
@global_var_1000080d0 = local_unnamed_addr global i64 4294978772
@global_var_1000080d8 = local_unnamed_addr global i64 4294982756
@global_var_100003c64 = local_unnamed_addr constant i64 1729381943780311120
@global_var_1000080e0 = local_unnamed_addr global i64 4294982768
@global_var_100003c70 = local_unnamed_addr constant i64 1729381930895409232
@global_var_1000080e8 = local_unnamed_addr global i64 4294982780
@global_var_100003c7c = local_unnamed_addr constant i64 1729381918010507344
@global_var_1000080f0 = local_unnamed_addr global i64 4294976864
@global_var_1000080f8 = local_unnamed_addr global i64 4294976948
@global_var_100008100 = local_unnamed_addr global i64 4294982792
@global_var_100003c88 = local_unnamed_addr constant i64 1729381905125605456
@global_var_100008108 = local_unnamed_addr global i64 4294982804
@global_var_100003c94 = local_unnamed_addr constant i64 1729381892240703568
@global_var_100008110 = local_unnamed_addr global i64 4294982816
@global_var_100003ca0 = local_unnamed_addr constant i64 1729381879355801680
@global_var_100008118 = local_unnamed_addr global i64 4294982828
@global_var_100003cac = local_unnamed_addr constant i64 1729381866470899792
@global_var_100008120 = local_unnamed_addr global i64 4294982852
@global_var_100003cc4 = local_unnamed_addr constant i64 1729381840701096016
@global_var_100008128 = local_unnamed_addr global i64 4294982864
@global_var_100003cd0 = local_unnamed_addr constant i64 1729381827816194128
@global_var_100008130 = local_unnamed_addr global i64 4294982876
@global_var_100003cdc = local_unnamed_addr constant i64 1729381814931292240
@global_var_100008138 = local_unnamed_addr global i64 4294982888
@global_var_100003ce8 = local_unnamed_addr constant i64 1729381802046390352
@global_var_100008140 = local_unnamed_addr global i64 4294982900
@global_var_100003cf4 = local_unnamed_addr constant i64 1729381789161488464
@global_var_100008148 = local_unnamed_addr global i64 4294982912
@global_var_100003d00 = local_unnamed_addr constant i64 1729381776276586576
@global_var_100008150 = local_unnamed_addr global i64 0
@global_var_100003b7c = local_unnamed_addr constant i64 1729382600507654189
@global_var_100003b88 = local_unnamed_addr constant i64 1729382600507654213
@global_var_100003b94 = local_unnamed_addr constant i64 1729382600507654240
@global_var_100003ba0 = local_unnamed_addr constant i64 1729382600507654259
@global_var_100004010 = local_unnamed_addr global i64* (i64*)* inttoptr (i64 4294977084 to i64* (i64*)*)

define i64 @__Z9connectToNSt3__112basic_stringIcNS_11char_traitsIcEENS_9allocatorIcEEEEi(i64 %arg1, i32 %arg2) local_unnamed_addr {
dec_label_pc_100002410:
  %stack_var_-44.0.reg2mem = alloca i64, !insn.addr !0
  %stack_var_-40 = alloca i64, align 8
  %0 = load i64, i64* inttoptr (i64 4294983720 to i64*), align 8, !insn.addr !1
  %1 = inttoptr i64 %0 to i64*, !insn.addr !2
  %2 = load i64, i64* %1, align 8, !insn.addr !2
  %3 = call i32 @_socket(i32 2, i32 1, i32 0), !insn.addr !3
  %4 = icmp eq i32 %3, 0, !insn.addr !4
  br i1 %4, label %dec_label_pc_100002458, label %dec_label_pc_100002470, !insn.addr !4

dec_label_pc_100002458:                           ; preds = %dec_label_pc_100002410
  %5 = call i32 (i8*, ...) @_printf(i8* getelementptr inbounds ([24 x i8], [24 x i8]* @global_var_100003dec, i64 0, i64 0)), !insn.addr !5
  store i64 4294967295, i64* %stack_var_-44.0.reg2mem, !insn.addr !6
  br label %dec_label_pc_10000252c, !insn.addr !6

dec_label_pc_100002470:                           ; preds = %dec_label_pc_100002410
  %6 = load i64, i64* inttoptr (i64 4294983680 to i64*), align 16384, !insn.addr !7
  %7 = inttoptr i64 %6 to i64*, !insn.addr !8
  %8 = call i64 @__ZNSt3__1lsINS_11char_traitsIcEEEERNS_13basic_ostreamIcT_EES6_PKc(i64* %7, i8* getelementptr inbounds ([15 x i8], [15 x i8]* @global_var_100003e04, i64 0, i64 0)), !insn.addr !8
  %9 = inttoptr i64 %8 to i64*, !insn.addr !9
  %10 = inttoptr i64 %arg1 to i64*, !insn.addr !9
  %11 = call i64 @__ZNSt3__1lsIcNS_11char_traitsIcEENS_9allocatorIcEEEERNS_13basic_ostreamIT_T0_EES9_RKNS_12basic_stringIS6_S7_T1_EE(i64* %9, i64* %10), !insn.addr !9
  %12 = inttoptr i64 %11 to i64*, !insn.addr !10
  %13 = call i64 @__ZNSt3__1lsINS_11char_traitsIcEEEERNS_13basic_ostreamIcT_EES6_PKc(i64* %12, i8* getelementptr inbounds ([4 x i8], [4 x i8]* @global_var_100003e13, i64 0, i64 0)), !insn.addr !10
  %14 = load i64* (i64*)*, i64* (i64*)** @global_var_100004010, align 8, !insn.addr !11
  %15 = inttoptr i64 %13 to i64*, !insn.addr !12
  %16 = call i64 @__ZNSt3__113basic_ostreamIcNS_11char_traitsIcEEElsEPFRS3_S4_E(i64* %15, i64* (i64*)* %14), !insn.addr !12
  store i64 0, i64* %stack_var_-40, align 8, !insn.addr !13
  %17 = ptrtoint i64* %stack_var_-40 to i64, !insn.addr !14
  %18 = call i64 @__ZNKSt3__112basic_stringIcNS_11char_traitsIcEENS_9allocatorIcEEE5c_strEv(i64* %10), !insn.addr !15
  %19 = inttoptr i64 %18 to i8*, !insn.addr !16
  %20 = call i32 @_inet_addr(i8* %19), !insn.addr !16
  %21 = or i64 %17, 2, !insn.addr !17
  %22 = inttoptr i64 %21 to i16*, !insn.addr !17
  store i16 -17663, i16* %22, align 2, !insn.addr !17
  %23 = bitcast i64* %stack_var_-40 to %sockaddr*, !insn.addr !18
  %24 = call i32 @_connect(i32 %3, %sockaddr* nonnull %23, i32 16), !insn.addr !18
  %25 = icmp eq i32 %24, 0, !insn.addr !19
  br i1 %25, label %dec_label_pc_100002524, label %dec_label_pc_1000024f8, !insn.addr !19

dec_label_pc_1000024f8:                           ; preds = %dec_label_pc_100002470
  %26 = load i64, i64* inttoptr (i64 4294983680 to i64*), align 16384, !insn.addr !20
  %27 = inttoptr i64 %26 to i64*, !insn.addr !21
  %28 = call i64 @__ZNSt3__1lsINS_11char_traitsIcEEEERNS_13basic_ostreamIcT_EES6_PKc(i64* %27, i8* getelementptr inbounds ([28 x i8], [28 x i8]* @global_var_100003e17, i64 0, i64 0)), !insn.addr !21
  %29 = load i64* (i64*)*, i64* (i64*)** @global_var_100004010, align 8, !insn.addr !22
  %30 = inttoptr i64 %28 to i64*, !insn.addr !23
  %31 = call i64 @__ZNSt3__113basic_ostreamIcNS_11char_traitsIcEEElsEPFRS3_S4_E(i64* %30, i64* (i64*)* %29), !insn.addr !23
  store i64 4294967295, i64* %stack_var_-44.0.reg2mem, !insn.addr !24
  br label %dec_label_pc_10000252c, !insn.addr !24

dec_label_pc_100002524:                           ; preds = %dec_label_pc_100002470
  %phitmp = zext i32 %3 to i64
  store i64 %phitmp, i64* %stack_var_-44.0.reg2mem, !insn.addr !25
  br label %dec_label_pc_10000252c, !insn.addr !25

dec_label_pc_10000252c:                           ; preds = %dec_label_pc_100002524, %dec_label_pc_1000024f8, %dec_label_pc_100002458
  %stack_var_-44.0.reload = load i64, i64* %stack_var_-44.0.reg2mem
  %32 = load i64, i64* inttoptr (i64 4294983720 to i64*), align 8, !insn.addr !26
  %33 = inttoptr i64 %32 to i64*, !insn.addr !27
  %34 = load i64, i64* %33, align 8, !insn.addr !27
  %35 = icmp eq i64 %34, %2, !insn.addr !28
  br i1 %35, label %dec_label_pc_10000254c, label %dec_label_pc_10000255c, !insn.addr !28

dec_label_pc_10000254c:                           ; preds = %dec_label_pc_10000252c
  ret i64 %stack_var_-44.0.reload, !insn.addr !29

dec_label_pc_10000255c:                           ; preds = %dec_label_pc_10000252c
  %36 = trunc i64 %stack_var_-44.0.reload to i32, !insn.addr !30
  %37 = call i64 @function_100003afc(i32 %36), !insn.addr !30
  ret i64 %37, !insn.addr !30
}

define i64 @__ZNSt3__113basic_ostreamIcNS_11char_traitsIcEEElsEPFRS3_S4_E(i64* %result, i64* (i64*)* %arg2) local_unnamed_addr {
dec_label_pc_100002610:
  %0 = ptrtoint i64* %result to i64
  ret i64 %0, !insn.addr !31
}

define i64 @__ZNKSt3__112basic_stringIcNS_11char_traitsIcEENS_9allocatorIcEEE5c_strEv(i64* %result) local_unnamed_addr {
dec_label_pc_1000026ac:
  %0 = call i64 @__ZNKSt3__112basic_stringIcNS_11char_traitsIcEENS_9allocatorIcEEE4dataEv(i64* %result), !insn.addr !32
  ret i64 %0, !insn.addr !33
}

define i64 @__Z23failDisableVerificationP10ssl_ctx_st(i64* %arg1) local_unnamed_addr {
dec_label_pc_1000026d0:
  %0 = ptrtoint i64* %arg1 to i64
  %1 = call i64 @function_100003994(i64 %0, i64 1, i64 4294977280), !insn.addr !34
  ret i64 %1, !insn.addr !35
}

define i64 @__Z22failSetInsecureCiphersP10ssl_ctx_st(i64* %arg1) local_unnamed_addr {
dec_label_pc_100002718:
  %0 = ptrtoint i64* %arg1 to i64
  %stack_var_-40 = alloca i8*, align 8
  %1 = load i64, i64* inttoptr (i64 4294983720 to i64*), align 8, !insn.addr !36
  %2 = inttoptr i64 %1 to i64*, !insn.addr !37
  %3 = load i64, i64* %2, align 8, !insn.addr !37
  store i8* inttoptr (i64 5207358680114940993 to i8*), i8** %stack_var_-40, align 8, !insn.addr !38
  %4 = bitcast i8** %stack_var_-40 to i64*, !insn.addr !39
  %5 = call i64 @function_100003988(i64 %0, i64* nonnull %4), !insn.addr !39
  %6 = load i64, i64* inttoptr (i64 4294983720 to i64*), align 8, !insn.addr !40
  %7 = inttoptr i64 %6 to i64*, !insn.addr !41
  %8 = load i64, i64* %7, align 8, !insn.addr !41
  %9 = icmp eq i64 %8, %3, !insn.addr !42
  br i1 %9, label %dec_label_pc_100002778, label %dec_label_pc_100002784, !insn.addr !42

dec_label_pc_100002778:                           ; preds = %dec_label_pc_100002718
  ret i64 %5, !insn.addr !43

dec_label_pc_100002784:                           ; preds = %dec_label_pc_100002718
  %10 = trunc i64 %5 to i32, !insn.addr !44
  %11 = call i64 @function_100003afc(i32 %10), !insn.addr !44
  ret i64 %11, !insn.addr !44
}

define i64 @__Z29failSetInsecureCiphersLiteralP10ssl_ctx_st(i64* %arg1) local_unnamed_addr {
dec_label_pc_100002788:
  %0 = ptrtoint i64* %arg1 to i64
  %1 = call i64 @function_100003988(i64 %0, i64* bitcast ([9 x i8]* @global_var_100003e33 to i64*)), !insn.addr !45
  ret i64 %1, !insn.addr !46
}

define i64 @__Z25failSetInsecureCiphersSTLP10ssl_ctx_st(i64* %arg1) local_unnamed_addr {
dec_label_pc_1000027b4:
  %0 = ptrtoint i64* %arg1 to i64
  %stack_var_-48 = alloca i64, align 8
  %1 = call i64 @__ZNSt3__112basic_stringIcNS_11char_traitsIcEENS_9allocatorIcEEEC1INS_9nullptr_tEEEPKc(i64* nonnull %stack_var_-48, i8* getelementptr inbounds ([9 x i8], [9 x i8]* @global_var_100003e33, i64 0, i64 0)), !insn.addr !47
  %2 = call i64 @__ZNKSt3__112basic_stringIcNS_11char_traitsIcEENS_9allocatorIcEEE5c_strEv(i64* nonnull %stack_var_-48), !insn.addr !48
  %3 = inttoptr i64 %2 to i64*, !insn.addr !49
  %4 = call i64 @function_100003988(i64 %0, i64* %3), !insn.addr !49
  %5 = call i64 @__ZNSt3__112basic_stringIcNS_11char_traitsIcEENS_9allocatorIcEEED1Ev(), !insn.addr !50
  ret i64 %5, !insn.addr !51
}

define i64 @__ZNSt3__112basic_stringIcNS_11char_traitsIcEENS_9allocatorIcEEEC1INS_9nullptr_tEEEPKc(i64* %result, i8* %arg2) local_unnamed_addr {
dec_label_pc_10000283c:
  %0 = ptrtoint i64* %result to i64
  %1 = call i64 @__ZNSt3__112basic_stringIcNS_11char_traitsIcEENS_9allocatorIcEEEC2INS_9nullptr_tEEEPKc(i64* %result, i8* %arg2), !insn.addr !52
  ret i64 %0, !insn.addr !53
}

define i64 @___clang_call_terminate(i64 %arg1) local_unnamed_addr {
dec_label_pc_100002878:
  %0 = call i64 @function_100003ad8(i64 %arg1), !insn.addr !54
  %1 = call i64 @__ZSt9terminatev(), !insn.addr !55
  ret i64 %1, !insn.addr !55
}

define i64 @__Z28failSetInsecureCiphersGlobalP10ssl_ctx_st(i64* %arg1) local_unnamed_addr {
dec_label_pc_100002884:
  %0 = ptrtoint i64* %arg1 to i64
  %1 = load [4 x i8]*, [4 x i8]** @global_var_100008158, align 8, !insn.addr !56
  %2 = bitcast [4 x i8]* %1 to i64*, !insn.addr !57
  %3 = call i64 @function_100003988(i64 %0, i64* %2), !insn.addr !57
  ret i64 %3, !insn.addr !58
}

define i64 @__Z14initTLSContextv(i64* %result) local_unnamed_addr {
dec_label_pc_1000028c0:
  %stack_var_-32 = alloca i64, align 8
  %0 = call i64 @function_100003964(i64 0, i64 0), !insn.addr !59
  %1 = call i64 @function_100003964(i64 2097154, i64 0), !insn.addr !60
  %2 = call i64 @function_1000039dc(i64 %1), !insn.addr !61
  %3 = call i64 @function_10000397c(i64 %2), !insn.addr !62
  %4 = inttoptr i64 %3 to i64*, !insn.addr !63
  %5 = call i64 @__Z22failSetInsecureCiphersP10ssl_ctx_st(i64* %4), !insn.addr !63
  %6 = call i64 @__Z29failSetInsecureCiphersLiteralP10ssl_ctx_st(i64* %4), !insn.addr !64
  %7 = call i64 @__Z25failSetInsecureCiphersSTLP10ssl_ctx_st(i64* %4), !insn.addr !65
  %8 = call i64 @__Z28failSetInsecureCiphersGlobalP10ssl_ctx_st(i64* %4), !insn.addr !66
  %9 = call i64 @__ZNSt3__1L15__get_nullptr_tEv(i64* %4), !insn.addr !67
  store i64 %9, i64* %stack_var_-32, align 8, !insn.addr !68
  %10 = call i64 @__ZNKSt3__19nullptr_tcvPT_IFiiP17x509_store_ctx_stEEEv(i64* nonnull %stack_var_-32), !insn.addr !69
  %11 = call i64 @function_100003994(i64 %3, i64 1, i64 %10), !insn.addr !70
  %12 = call i64 @__Z23failDisableVerificationP10ssl_ctx_st(i64* %4), !insn.addr !71
  ret i64 %3, !insn.addr !72
}

define i64 @__ZNSt3__1L15__get_nullptr_tEv(i64* %result) local_unnamed_addr {
dec_label_pc_100002970:
  %stack_var_-24 = alloca i64, align 8
  %0 = call i64 @__ZNSt3__19nullptr_tC1EMNS0_5__natEi(i64* nonnull %stack_var_-24, i64 -1), !insn.addr !73
  %1 = load i64, i64* %stack_var_-24, align 8, !insn.addr !74
  ret i64 %1, !insn.addr !75
}

define i64 @__ZNKSt3__19nullptr_tcvPT_IFiiP17x509_store_ctx_stEEEv(i64* %result) local_unnamed_addr {
dec_label_pc_10000299c:
  ret i64 0, !insn.addr !76
}

define i64 @main(i64 %argc, i8** %argv) local_unnamed_addr {
dec_label_pc_1000029b4:
  %stack_var_-20.0.reg2mem = alloca i64, !insn.addr !77
  %stack_var_-104 = alloca i64, align 8
  %stack_var_-64 = alloca i64, align 8
  %0 = load i64, i64* inttoptr (i64 4294983680 to i64*), align 16384, !insn.addr !78
  %1 = load i64* (i64*)*, i64* (i64*)** @global_var_100004010, align 8
  %2 = ptrtoint i64* %stack_var_-64 to i64, !insn.addr !79
  %3 = call i64 @__ZNSt3__112basic_stringIcNS_11char_traitsIcEENS_9allocatorIcEEEC1INS_9nullptr_tEEEPKc(i64* nonnull %stack_var_-64, i8* getelementptr inbounds ([14 x i8], [14 x i8]* @global_var_100003e3c, i64 0, i64 0)), !insn.addr !80
  %4 = call i64 @__Z9connectToNSt3__112basic_stringIcNS_11char_traitsIcEENS_9allocatorIcEEEEi(i64 %2, i32 2), !insn.addr !81
  %5 = trunc i64 %4 to i32, !insn.addr !82
  %6 = call i64 @__ZNSt3__112basic_stringIcNS_11char_traitsIcEENS_9allocatorIcEEED1Ev(), !insn.addr !83
  %7 = icmp slt i32 %5, 0, !insn.addr !84
  store i64 4294967295, i64* %stack_var_-20.0.reg2mem, !insn.addr !85
  br i1 %7, label %dec_label_pc_100002c44, label %dec_label_pc_100002a58, !insn.addr !85

dec_label_pc_100002a58:                           ; preds = %dec_label_pc_1000029b4
  %8 = inttoptr i64 %6 to i64*, !insn.addr !86
  %9 = call i64 @__Z14initTLSContextv(i64* %8), !insn.addr !86
  %10 = call i64 @function_1000039c4(i64 %9), !insn.addr !87
  store i64 %10, i64* @global_var_100008160, align 8, !insn.addr !88
  %11 = icmp eq i64 %10, 0, !insn.addr !89
  br i1 %11, label %dec_label_pc_100002a80, label %dec_label_pc_100002aa4, !insn.addr !89

dec_label_pc_100002a80:                           ; preds = %dec_label_pc_100002a58
  %12 = inttoptr i64 %0 to i64*, !insn.addr !90
  %13 = call i64 @__ZNSt3__1lsINS_11char_traitsIcEEEERNS_13basic_ostreamIcT_EES6_PKc(i64* %12, i8* getelementptr inbounds ([20 x i8], [20 x i8]* @global_var_100003e4a, i64 0, i64 0)), !insn.addr !90
  %14 = inttoptr i64 %13 to i64*, !insn.addr !91
  %15 = call i64 @__ZNSt3__113basic_ostreamIcNS_11char_traitsIcEEElsEPFRS3_S4_E(i64* %14, i64* (i64*)* %1), !insn.addr !91
  store i64 4294967295, i64* %stack_var_-20.0.reg2mem, !insn.addr !92
  br label %dec_label_pc_100002c44, !insn.addr !92

dec_label_pc_100002aa4:                           ; preds = %dec_label_pc_100002a58
  %16 = call i64 @function_1000039d0(i64 %10, i32 %5), !insn.addr !93
  %17 = load i64, i64* @global_var_100008160, align 8, !insn.addr !94
  %18 = call i64 @function_1000039a0(i64 %17), !insn.addr !95
  %19 = trunc i64 %18 to i32, !insn.addr !96
  %20 = icmp slt i32 %19, 1
  br i1 %20, label %dec_label_pc_100002adc, label %dec_label_pc_100002bcc, !insn.addr !97

dec_label_pc_100002adc:                           ; preds = %dec_label_pc_100002aa4
  %21 = call i64 @function_100003958(i64 %18), !insn.addr !98
  %22 = inttoptr i64 %0 to i64*, !insn.addr !99
  %23 = call i64 @__ZNSt3__1lsINS_11char_traitsIcEEEERNS_13basic_ostreamIcT_EES6_PKc(i64* %22, i8* getelementptr inbounds ([44 x i8], [44 x i8]* @global_var_100003e5e, i64 0, i64 0)), !insn.addr !99
  %sext = mul i64 %21, 4294967296
  %24 = sdiv i64 %sext, 4294967296, !insn.addr !100
  %25 = inttoptr i64 %23 to i64*, !insn.addr !101
  %26 = call i64 @__ZNSt3__1L15__get_nullptr_tEv(i64* %25), !insn.addr !101
  store i64 %26, i64* %stack_var_-104, align 8, !insn.addr !102
  %27 = call i64 @__ZNKSt3__19nullptr_tcvPT_IcEEv(i64* nonnull %stack_var_-104), !insn.addr !103
  %28 = call i64 @function_10000394c(i64 %24, i64 %27), !insn.addr !104
  %29 = inttoptr i64 %28 to i8*, !insn.addr !105
  %30 = call i64 @__ZNSt3__1lsINS_11char_traitsIcEEEERNS_13basic_ostreamIcT_EES6_PKc(i64* %25, i8* %29), !insn.addr !105
  %31 = inttoptr i64 %30 to i64*, !insn.addr !106
  %32 = call i64 @__ZNSt3__113basic_ostreamIcNS_11char_traitsIcEEElsEPFRS3_S4_E(i64* %31, i64* (i64*)* %1), !insn.addr !106
  store i64 4294967295, i64* %stack_var_-20.0.reg2mem, !insn.addr !107
  br label %dec_label_pc_100002c44, !insn.addr !107

dec_label_pc_100002bcc:                           ; preds = %dec_label_pc_100002aa4
  %33 = load i64, i64* @global_var_100008160, align 8, !insn.addr !108
  %34 = call i64 @function_1000039b8(i64 %33), !insn.addr !109
  %35 = icmp eq i64 %34, 0, !insn.addr !110
  br i1 %35, label %dec_label_pc_100002bdc, label %dec_label_pc_100002bf8, !insn.addr !110

dec_label_pc_100002bdc:                           ; preds = %dec_label_pc_100002bcc
  %36 = load i64, i64* @global_var_100004008, align 8, !insn.addr !111
  %37 = inttoptr i64 %36 to i64*, !insn.addr !112
  %38 = call i64 @__ZNSt3__1lsINS_11char_traitsIcEEEERNS_13basic_ostreamIcT_EES6_PKc(i64* %37, i8* getelementptr inbounds ([36 x i8], [36 x i8]* @global_var_100003e8a, i64 0, i64 0)), !insn.addr !112
  %39 = inttoptr i64 %38 to i64*, !insn.addr !113
  %40 = call i64 @__ZNSt3__113basic_ostreamIcNS_11char_traitsIcEEElsEPFRS3_S4_E(i64* %39, i64* (i64*)* %1), !insn.addr !113
  br label %dec_label_pc_100002bf8, !insn.addr !113

dec_label_pc_100002bf8:                           ; preds = %dec_label_pc_100002bcc, %dec_label_pc_100002bdc
  %41 = load i64, i64* @global_var_100004008, align 8, !insn.addr !114
  %42 = inttoptr i64 %41 to i64*, !insn.addr !115
  %43 = call i64 @__ZNSt3__1lsINS_11char_traitsIcEEEERNS_13basic_ostreamIcT_EES6_PKc(i64* %42, i8* getelementptr inbounds ([37 x i8], [37 x i8]* @global_var_100003eae, i64 0, i64 0)), !insn.addr !115
  %44 = load i64, i64* @global_var_100008160, align 8, !insn.addr !116
  %45 = call i64 @function_1000039ac(i64 %44), !insn.addr !117
  %46 = call i64 @function_100003970(i64 %45), !insn.addr !118
  %47 = inttoptr i64 %43 to i64*, !insn.addr !119
  %48 = inttoptr i64 %46 to i8*, !insn.addr !119
  %49 = call i64 @__ZNSt3__1lsINS_11char_traitsIcEEEERNS_13basic_ostreamIcT_EES6_PKc(i64* %47, i8* %48), !insn.addr !119
  %50 = inttoptr i64 %49 to i64*, !insn.addr !120
  %51 = call i64 @__ZNSt3__113basic_ostreamIcNS_11char_traitsIcEEElsEPFRS3_S4_E(i64* %50, i64* (i64*)* %1), !insn.addr !120
  store i64 0, i64* %stack_var_-20.0.reg2mem, !insn.addr !121
  br label %dec_label_pc_100002c44, !insn.addr !121

dec_label_pc_100002c44:                           ; preds = %dec_label_pc_1000029b4, %dec_label_pc_100002bf8, %dec_label_pc_100002adc, %dec_label_pc_100002a80
  %stack_var_-20.0.reload = load i64, i64* %stack_var_-20.0.reg2mem
  ret i64 %stack_var_-20.0.reload, !insn.addr !122
}

define i64 @__ZNKSt3__19nullptr_tcvPT_IcEEv(i64* %result) local_unnamed_addr {
dec_label_pc_100002c60:
  ret i64 0, !insn.addr !123
}

define i64 @__ZNSt3__19nullptr_tC1EMNS0_5__natEi(i64* %result, i64 %arg2) local_unnamed_addr {
dec_label_pc_100002c78:
  %0 = ptrtoint i64* %result to i64
  %1 = call i64 @__ZNSt3__19nullptr_tC2EMNS0_5__natEi(i64* %result, i64 %arg2), !insn.addr !124
  ret i64 %0, !insn.addr !125
}

define i64 @__ZNSt3__19nullptr_tC2EMNS0_5__natEi(i64* %result, i64 %arg2) local_unnamed_addr {
dec_label_pc_100002cb4:
  %0 = ptrtoint i64* %result to i64
  store i64 0, i64* %result, align 8, !insn.addr !126
  ret i64 %0, !insn.addr !127
}

define i64 @__ZNKSt3__112basic_stringIcNS_11char_traitsIcEENS_9allocatorIcEEE4dataEv(i64* %result) local_unnamed_addr {
dec_label_pc_100003320:
  %0 = call i64 @__ZNKSt3__112basic_stringIcNS_11char_traitsIcEENS_9allocatorIcEEE13__get_pointerEv(i64* %result), !insn.addr !128
  %1 = inttoptr i64 %0 to i8*, !insn.addr !129
  %2 = call i8* @__ZNSt3__1L12__to_addressIKcEEPT_S3_(i8* %1), !insn.addr !129
  %3 = ptrtoint i8* %2 to i64, !insn.addr !129
  ret i64 %3, !insn.addr !130
}

define i64 @__ZNSt3__117__compressed_pairINS_12basic_stringIcNS_11char_traitsIcEENS_9allocatorIcEEE5__repES5_EC1INS_18__default_init_tagESA_EEOT_OT0_(i64* %result, i64* %arg2, i64* %arg3) local_unnamed_addr {
dec_label_pc_1000033c8:
  %0 = ptrtoint i64* %result to i64
  %1 = call i64 @__ZNSt3__117__compressed_pairINS_12basic_stringIcNS_11char_traitsIcEENS_9allocatorIcEEE5__repES5_EC2INS_18__default_init_tagESA_EEOT_OT0_(i64* %result, i64* %arg2, i64* %arg3), !insn.addr !131
  ret i64 %0, !insn.addr !132
}

define i64 @__ZNSt3__117__compressed_pairINS_12basic_stringIcNS_11char_traitsIcEENS_9allocatorIcEEE5__repES5_EC2INS_18__default_init_tagESA_EEOT_OT0_(i64* %result, i64* %arg2, i64* %arg3) local_unnamed_addr {
dec_label_pc_10000340c:
  %0 = ptrtoint i64* %result to i64
  %1 = call i64* @__ZNSt3__1L7forwardINS_18__default_init_tagEEEOT_RNS_16remove_referenceIS2_E4typeE(i64* %arg2), !insn.addr !133
  %2 = call i64 @__ZNSt3__122__compressed_pair_elemINS_12basic_stringIcNS_11char_traitsIcEENS_9allocatorIcEEE5__repELi0ELb0EEC2ENS_18__default_init_tagE(i64 %0), !insn.addr !134
  %3 = call i64* @__ZNSt3__1L7forwardINS_18__default_init_tagEEEOT_RNS_16remove_referenceIS2_E4typeE(i64* %arg3), !insn.addr !135
  %4 = call i64 @__ZNSt3__122__compressed_pair_elemINS_9allocatorIcEELi1ELb1EEC2ENS_18__default_init_tagE(i64 %0), !insn.addr !136
  ret i64 %0, !insn.addr !137
}

define i64* @__ZNSt3__1L7forwardINS_18__default_init_tagEEEOT_RNS_16remove_referenceIS2_E4typeE(i64* %arg1) local_unnamed_addr {
dec_label_pc_10000346c:
  ret i64* %arg1, !insn.addr !138
}

define i64 @__ZNSt3__122__compressed_pair_elemINS_12basic_stringIcNS_11char_traitsIcEENS_9allocatorIcEEE5__repELi0ELb0EEC2ENS_18__default_init_tagE(i64 %arg1) local_unnamed_addr {
dec_label_pc_100003480:
  ret i64 %arg1, !insn.addr !139
}

define i64 @__ZNSt3__122__compressed_pair_elemINS_9allocatorIcEELi1ELb1EEC2ENS_18__default_init_tagE(i64 %arg1) local_unnamed_addr {
dec_label_pc_100003494:
  %0 = inttoptr i64 %arg1 to i64*, !insn.addr !140
  %1 = call i64 @__ZNSt3__19allocatorIcEC2Ev(i64* %0), !insn.addr !140
  ret i64 %arg1, !insn.addr !141
}

define i64 @__ZNSt3__19allocatorIcEC2Ev(i64* %result) local_unnamed_addr {
dec_label_pc_1000034c8:
  %0 = ptrtoint i64* %result to i64
  ret i64 %0, !insn.addr !142
}

define i8* @__ZNSt3__1L12__to_addressIKcEEPT_S3_(i8* %arg1) local_unnamed_addr {
dec_label_pc_1000034dc:
  ret i8* %arg1, !insn.addr !143
}

define i64 @__ZNKSt3__112basic_stringIcNS_11char_traitsIcEENS_9allocatorIcEEE13__get_pointerEv(i64* %result) local_unnamed_addr {
dec_label_pc_1000034f0:
  %storemerge.reg2mem = alloca i64, !insn.addr !144
  %0 = call i64 @__ZNKSt3__112basic_stringIcNS_11char_traitsIcEENS_9allocatorIcEEE9__is_longEv(i64* %result), !insn.addr !145
  %1 = urem i64 %0, 2
  %2 = icmp eq i64 %1, 0, !insn.addr !146
  br i1 %2, label %dec_label_pc_100003528, label %dec_label_pc_100003518, !insn.addr !146

dec_label_pc_100003518:                           ; preds = %dec_label_pc_1000034f0
  %3 = call i64 @__ZNKSt3__112basic_stringIcNS_11char_traitsIcEENS_9allocatorIcEEE18__get_long_pointerEv(i64* %result), !insn.addr !147
  store i64 %3, i64* %storemerge.reg2mem, !insn.addr !148
  br label %dec_label_pc_100003534, !insn.addr !148

dec_label_pc_100003528:                           ; preds = %dec_label_pc_1000034f0
  %4 = call i64 @__ZNKSt3__112basic_stringIcNS_11char_traitsIcEENS_9allocatorIcEEE19__get_short_pointerEv(i64* %result), !insn.addr !149
  store i64 %4, i64* %storemerge.reg2mem, !insn.addr !150
  br label %dec_label_pc_100003534, !insn.addr !150

dec_label_pc_100003534:                           ; preds = %dec_label_pc_100003528, %dec_label_pc_100003518
  %storemerge.reload = load i64, i64* %storemerge.reg2mem
  ret i64 %storemerge.reload, !insn.addr !151
}

define i64 @__ZNKSt3__112basic_stringIcNS_11char_traitsIcEENS_9allocatorIcEEE9__is_longEv(i64* %result) local_unnamed_addr {
dec_label_pc_100003548:
  %0 = call i64 @__ZNKSt3__117__compressed_pairINS_12basic_stringIcNS_11char_traitsIcEENS_9allocatorIcEEE5__repES5_E5firstEv(i64* %result), !insn.addr !152
  %1 = add i64 %0, 23, !insn.addr !153
  %2 = inttoptr i64 %1 to i8*, !insn.addr !153
  %3 = load i8, i8* %2, align 1, !insn.addr !153
  %4 = icmp sgt i8 %3, -1, !insn.addr !154
  %5 = icmp ne i1 %4, true, !insn.addr !155
  %6 = zext i1 %5 to i64, !insn.addr !156
  ret i64 %6, !insn.addr !157
}

define i64 @__ZNKSt3__112basic_stringIcNS_11char_traitsIcEENS_9allocatorIcEEE18__get_long_pointerEv(i64* %result) local_unnamed_addr {
dec_label_pc_100003580:
  %0 = call i64 @__ZNKSt3__117__compressed_pairINS_12basic_stringIcNS_11char_traitsIcEENS_9allocatorIcEEE5__repES5_E5firstEv(i64* %result), !insn.addr !158
  %1 = inttoptr i64 %0 to i64*, !insn.addr !159
  %2 = load i64, i64* %1, align 8, !insn.addr !159
  ret i64 %2, !insn.addr !160
}

define i64 @__ZNKSt3__112basic_stringIcNS_11char_traitsIcEENS_9allocatorIcEEE19__get_short_pointerEv(i64* %result) local_unnamed_addr {
dec_label_pc_1000035a8:
  %0 = call i64 @__ZNKSt3__117__compressed_pairINS_12basic_stringIcNS_11char_traitsIcEENS_9allocatorIcEEE5__repES5_E5firstEv(i64* %result), !insn.addr !161
  %1 = inttoptr i64 %0 to i8*, !insn.addr !162
  %2 = call i64 @__ZNSt3__114pointer_traitsIPKcE10pointer_toERS1_(i8* %1), !insn.addr !162
  ret i64 %2, !insn.addr !163
}

define i64 @__ZNKSt3__117__compressed_pairINS_12basic_stringIcNS_11char_traitsIcEENS_9allocatorIcEEE5__repES5_E5firstEv(i64* %result) local_unnamed_addr {
dec_label_pc_1000035d0:
  %0 = call i64 @__ZNKSt3__122__compressed_pair_elemINS_12basic_stringIcNS_11char_traitsIcEENS_9allocatorIcEEE5__repELi0ELb0EE5__getEv(i64* %result), !insn.addr !164
  ret i64 %0, !insn.addr !165
}

define i64 @__ZNKSt3__122__compressed_pair_elemINS_12basic_stringIcNS_11char_traitsIcEENS_9allocatorIcEEE5__repELi0ELb0EE5__getEv(i64* %result) local_unnamed_addr {
dec_label_pc_1000035f4:
  %0 = ptrtoint i64* %result to i64
  ret i64 %0, !insn.addr !166
}

define i64 @__ZNSt3__114pointer_traitsIPKcE10pointer_toERS1_(i8* %arg1) local_unnamed_addr {
dec_label_pc_100003608:
  %0 = call i8* @__ZNSt3__1L9addressofIKcEEPT_RS2_(i8* %arg1), !insn.addr !167
  %1 = ptrtoint i8* %0 to i64, !insn.addr !167
  ret i64 %1, !insn.addr !168
}

define i8* @__ZNSt3__1L9addressofIKcEEPT_RS2_(i8* %arg1) local_unnamed_addr {
dec_label_pc_10000362c:
  ret i8* %arg1, !insn.addr !169
}

define i64 @__ZNSt3__112basic_stringIcNS_11char_traitsIcEENS_9allocatorIcEEEC2INS_9nullptr_tEEEPKc(i64* %result, i8* %arg2) local_unnamed_addr {
dec_label_pc_1000038e4:
  %0 = ptrtoint i8* %arg2 to i64
  %1 = ptrtoint i64* %result to i64
  %stack_var_-34 = alloca i64, align 8
  %stack_var_-33 = alloca i64, align 8
  %2 = call i64 @__ZNSt3__117__compressed_pairINS_12basic_stringIcNS_11char_traitsIcEENS_9allocatorIcEEE5__repES5_EC1INS_18__default_init_tagESA_EEOT_OT0_(i64* %result, i64* nonnull %stack_var_-33, i64* nonnull %stack_var_-34), !insn.addr !170
  %3 = call i64 @__ZNSt3__111char_traitsIcE6lengthEPKc(i8* %arg2), !insn.addr !171
  %4 = bitcast i64* %result to i8*, !insn.addr !172
  %5 = call i64 @__ZNSt3__112basic_stringIcNS_11char_traitsIcEENS_9allocatorIcEEE6__initEPKcm(i8* %4, i64 %0), !insn.addr !172
  ret i64 %1, !insn.addr !173
}

define i64 @function_10000394c(i64 %arg1, i64 %arg2) local_unnamed_addr {
dec_label_pc_10000394c:
  %0 = call i64 @_ERR_error_string(), !insn.addr !174
  ret i64 %0, !insn.addr !174
}

define i64 @function_100003958(i64 %arg1) local_unnamed_addr {
dec_label_pc_100003958:
  %0 = call i64 @_ERR_get_error(), !insn.addr !175
  ret i64 %0, !insn.addr !175
}

define i64 @function_100003964(i64 %arg1, i64 %arg2) local_unnamed_addr {
dec_label_pc_100003964:
  %0 = call i64 @_OPENSSL_init_ssl(), !insn.addr !176
  ret i64 %0, !insn.addr !176
}

define i64 @function_100003970(i64 %arg1) local_unnamed_addr {
dec_label_pc_100003970:
  %0 = call i64 @_SSL_CIPHER_get_name(), !insn.addr !177
  ret i64 %0, !insn.addr !177
}

define i64 @function_10000397c(i64 %arg1) local_unnamed_addr {
dec_label_pc_10000397c:
  %0 = call i64 @_SSL_CTX_new(), !insn.addr !178
  ret i64 %0, !insn.addr !178
}

define i64 @function_100003988(i64 %arg1, i64* %arg2) local_unnamed_addr {
dec_label_pc_100003988:
  %0 = call i64 @_SSL_CTX_set_cipher_list(), !insn.addr !179
  ret i64 %0, !insn.addr !179
}

define i64 @function_100003994(i64 %arg1, i64 %arg2, i64 %arg3) local_unnamed_addr {
dec_label_pc_100003994:
  %0 = call i64 @_SSL_CTX_set_verify(), !insn.addr !180
  ret i64 %0, !insn.addr !180
}

define i64 @function_1000039a0(i64 %arg1) local_unnamed_addr {
dec_label_pc_1000039a0:
  %0 = call i64 @_SSL_connect(), !insn.addr !181
  ret i64 %0, !insn.addr !181
}

define i64 @function_1000039ac(i64 %arg1) local_unnamed_addr {
dec_label_pc_1000039ac:
  %0 = call i64 @_SSL_get_current_cipher(), !insn.addr !182
  ret i64 %0, !insn.addr !182
}

define i64 @function_1000039b8(i64 %arg1) local_unnamed_addr {
dec_label_pc_1000039b8:
  %0 = call i64 @_SSL_get_verify_result(), !insn.addr !183
  ret i64 %0, !insn.addr !183
}

define i64 @function_1000039c4(i64 %arg1) local_unnamed_addr {
dec_label_pc_1000039c4:
  %0 = call i64 @_SSL_new(), !insn.addr !184
  ret i64 %0, !insn.addr !184
}

define i64 @function_1000039d0(i64 %arg1, i32 %arg2) local_unnamed_addr {
dec_label_pc_1000039d0:
  %0 = call i64 @_SSL_set_fd(), !insn.addr !185
  ret i64 %0, !insn.addr !185
}

define i64 @function_1000039dc(i64 %arg1) local_unnamed_addr {
dec_label_pc_1000039dc:
  %0 = call i64 @_TLSv1_2_client_method(), !insn.addr !186
  ret i64 %0, !insn.addr !186
}

define i64 @function_1000039e8(i64 %arg1) local_unnamed_addr {
dec_label_pc_1000039e8:
  %0 = call i64 @__Unwind_Resume(), !insn.addr !187
  ret i64 %0, !insn.addr !187
}

define i64 @function_100003ad8(i64 %arg1) local_unnamed_addr {
dec_label_pc_100003ad8:
  %0 = call i64 @___cxa_begin_catch(), !insn.addr !188
  ret i64 %0, !insn.addr !188
}

define i64 @function_100003afc(i32 %arg1) local_unnamed_addr {
dec_label_pc_100003afc:
  %0 = call i64 @___stack_chk_fail(), !insn.addr !189
  ret i64 %0, !insn.addr !189
}

declare i64 @_ERR_error_string() local_unnamed_addr

declare i64 @_ERR_get_error() local_unnamed_addr

declare i64 @_OPENSSL_init_ssl() local_unnamed_addr

declare i64 @_SSL_CIPHER_get_name() local_unnamed_addr

declare i64 @_SSL_CTX_new() local_unnamed_addr

declare i64 @_SSL_CTX_set_cipher_list() local_unnamed_addr

declare i64 @_SSL_CTX_set_verify() local_unnamed_addr

declare i64 @_SSL_connect() local_unnamed_addr

declare i64 @_SSL_get_current_cipher() local_unnamed_addr

declare i64 @_SSL_get_verify_result() local_unnamed_addr

declare i64 @_SSL_new() local_unnamed_addr

declare i64 @_SSL_set_fd() local_unnamed_addr

declare i64 @_TLSv1_2_client_method() local_unnamed_addr

declare i64 @__Unwind_Resume() local_unnamed_addr

declare i64 @__ZNSt3__111char_traitsIcE6lengthEPKc(i8*) local_unnamed_addr

declare i64 @__ZNSt3__112basic_stringIcNS_11char_traitsIcEENS_9allocatorIcEEE6__initEPKcm(i8*, i64) local_unnamed_addr

declare i64 @__ZNSt3__112basic_stringIcNS_11char_traitsIcEENS_9allocatorIcEEED1Ev() local_unnamed_addr

declare i64 @__ZNSt3__1lsINS_11char_traitsIcEEEERNS_13basic_ostreamIcT_EES6_PKc(i64*, i8*) local_unnamed_addr

declare i64 @__ZNSt3__1lsIcNS_11char_traitsIcEENS_9allocatorIcEEEERNS_13basic_ostreamIT_T0_EES9_RKNS_12basic_stringIS6_S7_T1_EE(i64*, i64*) local_unnamed_addr

declare i64 @__ZSt9terminatev() local_unnamed_addr

declare i64 @___cxa_begin_catch() local_unnamed_addr

declare i64 @___stack_chk_fail() local_unnamed_addr

declare i32 @_connect(i32, %sockaddr*, i32) local_unnamed_addr

declare i32 @_inet_addr(i8*) local_unnamed_addr

declare i32 @_printf(i8*, ...) local_unnamed_addr

declare i32 @_socket(i32, i32, i32) local_unnamed_addr

!0 = !{i64 4294976528}
!1 = !{i64 4294976544}
!2 = !{i64 4294976548}
!3 = !{i64 4294976584}
!4 = !{i64 4294976596}
!5 = !{i64 4294976608}
!6 = !{i64 4294976620}
!7 = !{i64 4294976628}
!8 = !{i64 4294976640}
!9 = !{i64 4294976648}
!10 = !{i64 4294976660}
!11 = !{i64 4294976668}
!12 = !{i64 4294976672}
!13 = !{i64 4294976680}
!14 = !{i64 4294976704}
!15 = !{i64 4294976708}
!16 = !{i64 4294976712}
!17 = !{i64 4294976728}
!18 = !{i64 4294976752}
!19 = !{i64 4294976756}
!20 = !{i64 4294976764}
!21 = !{i64 4294976776}
!22 = !{i64 4294976784}
!23 = !{i64 4294976788}
!24 = !{i64 4294976800}
!25 = !{i64 4294976808}
!26 = !{i64 4294976820}
!27 = !{i64 4294976824}
!28 = !{i64 4294976840}
!29 = !{i64 4294976856}
!30 = !{i64 4294976860}
!31 = !{i64 4294977068}
!32 = !{i64 4294977216}
!33 = !{i64 4294977228}
!34 = !{i64 4294977264}
!35 = !{i64 4294977276}
!36 = !{i64 4294977320}
!37 = !{i64 4294977324}
!38 = !{i64 4294977352}
!39 = !{i64 4294977372}
!40 = !{i64 4294977380}
!41 = !{i64 4294977384}
!42 = !{i64 4294977396}
!43 = !{i64 4294977408}
!44 = !{i64 4294977412}
!45 = !{i64 4294977444}
!46 = !{i64 4294977456}
!47 = !{i64 4294977496}
!48 = !{i64 4294977516}
!49 = !{i64 4294977536}
!50 = !{i64 4294977548}
!51 = !{i64 4294977560}
!52 = !{i64 4294977632}
!53 = !{i64 4294977652}
!54 = !{i64 4294977660}
!55 = !{i64 4294977664}
!56 = !{i64 4294977692}
!57 = !{i64 4294977696}
!58 = !{i64 4294977708}
!59 = !{i64 4294977760}
!60 = !{i64 4294977780}
!61 = !{i64 4294977784}
!62 = !{i64 4294977788}
!63 = !{i64 4294977800}
!64 = !{i64 4294977808}
!65 = !{i64 4294977816}
!66 = !{i64 4294977824}
!67 = !{i64 4294977836}
!68 = !{i64 4294977844}
!69 = !{i64 4294977852}
!70 = !{i64 4294977876}
!71 = !{i64 4294977884}
!72 = !{i64 4294977900}
!73 = !{i64 4294977924}
!74 = !{i64 4294977928}
!75 = !{i64 4294977944}
!76 = !{i64 4294977968}
!77 = !{i64 4294977972}
!78 = !{i64 4294977988}
!79 = !{i64 4294978036}
!80 = !{i64 4294978040}
!81 = !{i64 4294978056}
!82 = !{i64 4294978060}
!83 = !{i64 4294978072}
!84 = !{i64 4294978088}
!85 = !{i64 4294978096}
!86 = !{i64 4294978136}
!87 = !{i64 4294978148}
!88 = !{i64 4294978164}
!89 = !{i64 4294978172}
!90 = !{i64 4294978188}
!91 = !{i64 4294978196}
!92 = !{i64 4294978208}
!93 = !{i64 4294978228}
!94 = !{i64 4294978236}
!95 = !{i64 4294978244}
!96 = !{i64 4294978248}
!97 = !{i64 4294978264}
!98 = !{i64 4294978268}
!99 = !{i64 4294978288}
!100 = !{i64 4294978292}
!101 = !{i64 4294978304}
!102 = !{i64 4294978312}
!103 = !{i64 4294978320}
!104 = !{i64 4294978340}
!105 = !{i64 4294978360}
!106 = !{i64 4294978368}
!107 = !{i64 4294978380}
!108 = !{i64 4294978512}
!109 = !{i64 4294978516}
!110 = !{i64 4294978520}
!111 = !{i64 4294978528}
!112 = !{i64 4294978540}
!113 = !{i64 4294978548}
!114 = !{i64 4294978556}
!115 = !{i64 4294978568}
!116 = !{i64 4294978576}
!117 = !{i64 4294978588}
!118 = !{i64 4294978592}
!119 = !{i64 4294978612}
!120 = !{i64 4294978620}
!121 = !{i64 4294978624}
!122 = !{i64 4294978640}
!123 = !{i64 4294978676}
!124 = !{i64 4294978716}
!125 = !{i64 4294978736}
!126 = !{i64 4294978756}
!127 = !{i64 4294978768}
!128 = !{i64 4294980404}
!129 = !{i64 4294980408}
!130 = !{i64 4294980420}
!131 = !{i64 4294980596}
!132 = !{i64 4294980616}
!133 = !{i64 4294980656}
!134 = !{i64 4294980668}
!135 = !{i64 4294980680}
!136 = !{i64 4294980692}
!137 = !{i64 4294980712}
!138 = !{i64 4294980732}
!139 = !{i64 4294980752}
!140 = !{i64 4294980784}
!141 = !{i64 4294980804}
!142 = !{i64 4294980824}
!143 = !{i64 4294980844}
!144 = !{i64 4294980848}
!145 = !{i64 4294980876}
!146 = !{i64 4294980880}
!147 = !{i64 4294980892}
!148 = !{i64 4294980900}
!149 = !{i64 4294980908}
!150 = !{i64 4294980912}
!151 = !{i64 4294980932}
!152 = !{i64 4294980956}
!153 = !{i64 4294980960}
!154 = !{i64 4294980968}
!155 = !{i64 4294980972}
!156 = !{i64 4294980976}
!157 = !{i64 4294980988}
!158 = !{i64 4294981012}
!159 = !{i64 4294981016}
!160 = !{i64 4294981028}
!161 = !{i64 4294981052}
!162 = !{i64 4294981056}
!163 = !{i64 4294981068}
!164 = !{i64 4294981092}
!165 = !{i64 4294981104}
!166 = !{i64 4294981124}
!167 = !{i64 4294981148}
!168 = !{i64 4294981160}
!169 = !{i64 4294981180}
!170 = !{i64 4294981900}
!171 = !{i64 4294981920}
!172 = !{i64 4294981944}
!173 = !{i64 4294981960}
!174 = !{i64 4294981972}
!175 = !{i64 4294981984}
!176 = !{i64 4294981996}
!177 = !{i64 4294982008}
!178 = !{i64 4294982020}
!179 = !{i64 4294982032}
!180 = !{i64 4294982044}
!181 = !{i64 4294982056}
!182 = !{i64 4294982068}
!183 = !{i64 4294982080}
!184 = !{i64 4294982092}
!185 = !{i64 4294982104}
!186 = !{i64 4294982116}
!187 = !{i64 4294982128}
!188 = !{i64 4294982368}
!189 = !{i64 4294982404}
