source_filename = "test"
target datalayout = "e-m:e-i64:64-i128:128-n32:64-S128"

%sockaddr = type { i64, [14 x i8] }
%_Unwind_Exception = type { i32 }

@global_var_12e78 = local_unnamed_addr global i64 4544
@global_var_12e80 = local_unnamed_addr global i64 4544
@global_var_12e88 = local_unnamed_addr global i64 4544
@global_var_12e90 = local_unnamed_addr global i64 4544
@global_var_12e98 = local_unnamed_addr global i64 4544
@global_var_12ea0 = local_unnamed_addr global i64 4544
@global_var_12ea8 = local_unnamed_addr global i64 4544
@global_var_12eb0 = local_unnamed_addr global i64 4544
@global_var_12eb8 = local_unnamed_addr global i64 4544
@global_var_12ec0 = local_unnamed_addr global i64 4544
@global_var_12ec8 = local_unnamed_addr global i64 4544
@global_var_12ed0 = local_unnamed_addr global i64 4544
@global_var_12ed8 = local_unnamed_addr global i64 4544
@global_var_12ee0 = local_unnamed_addr global i64 4544
@global_var_12ee8 = local_unnamed_addr global i64 4544
@global_var_12ef0 = local_unnamed_addr global i64 4544
@global_var_12ef8 = local_unnamed_addr global i64 4544
@global_var_12f00 = local_unnamed_addr global i64 4544
@global_var_12f08 = local_unnamed_addr global i64 4544
@global_var_12f10 = local_unnamed_addr global i64 4544
@global_var_12f18 = local_unnamed_addr global i64 4544
@global_var_12f20 = local_unnamed_addr global i64 4544
@global_var_12f28 = local_unnamed_addr global i64 4544
@global_var_12f30 = local_unnamed_addr global i64 4544
@global_var_12f38 = local_unnamed_addr global i64 4544
@global_var_12f40 = local_unnamed_addr global i64 4544
@global_var_12f48 = local_unnamed_addr global i64 4544
@global_var_12f50 = local_unnamed_addr global i64 4544
@global_var_12f58 = local_unnamed_addr global i64 4544
@global_var_12f68 = local_unnamed_addr global i64 4544
@global_var_12f70 = local_unnamed_addr global i64 4544
@global_var_12f78 = local_unnamed_addr global i64 4544
@global_var_12f80 = local_unnamed_addr global i64 4544
@global_var_12f88 = local_unnamed_addr global i64 4544
@global_var_12f90 = local_unnamed_addr global i64 4544
@global_var_12fa8 = local_unnamed_addr global i64 6360
@global_var_12fe0 = local_unnamed_addr global i64 0
@global_var_13000 = global i64 0
@global_var_13020 = global i64 0
@global_var_12fd0 = local_unnamed_addr global i64 0
@global_var_13008 = external global i64
@global_var_1514 = local_unnamed_addr constant i64 4107426210374484000
@global_var_12fa0 = local_unnamed_addr global i64 0
@global_var_1000 = global i64 0
@global_var_1cd0 = constant [23 x i8] c"Error creating socket.\00"
@global_var_1ce8 = constant [15 x i8] c"Connecting to \00"
@global_var_1cf8 = constant [4 x i8] c"...\00"
@global_var_12fb0 = local_unnamed_addr global i64 0
@global_var_15d8 = local_unnamed_addr constant i64 8719061101511180352
@global_var_1d00 = constant [28 x i8] c"Error connecting to server.\00"
@global_var_1d20 = constant [9 x i8] c"ALL:!ADH\00"
@global_var_1d28 = local_unnamed_addr constant i64 0
@global_var_13010 = constant [4 x i8] c"MD5\00"
@global_var_1d30 = constant [14 x i8] c"172.217.18.99\00"
@global_var_13028 = local_unnamed_addr global i64 0
@global_var_1d40 = constant [20 x i8] c"Error creating SSL.\00"
@global_var_1d58 = constant [44 x i8] c"Error creating SSL connection. Error Code: \00"
@global_var_1d88 = constant [36 x i8] c"Call to SSL_get_verify_result is ok\00"
@global_var_12fc0 = local_unnamed_addr global i64 0
@global_var_1db0 = constant [37 x i8] c"SSL communication established using \00"
@global_var_13030 = global i64 0
@global_var_12c18 = global i64 5344
@global_var_12c08 = global i64 5416
@0 = external global i32
@global_var_12fc8 = local_unnamed_addr global void ()* inttoptr (i64 7208 to void ()*)
@global_var_12fd8 = local_unnamed_addr global void ()* inttoptr (i64 7336 to void ()*)

define i64 @_init(i64 %arg1) local_unnamed_addr {
dec_label_pc_11a0:
  %0 = call i64 @call_weak_fn(), !insn.addr !0
  ret i64 %0, !insn.addr !1
}

define i16 @function_11e0(i16 %hostshort) local_unnamed_addr {
dec_label_pc_11e0:
  %0 = call i16 @htons(i16 %hostshort), !insn.addr !2
  ret i16 %0, !insn.addr !2
}

define i32 @function_11f0(i32 %domain, i32 %type, i32 %protocol) local_unnamed_addr {
dec_label_pc_11f0:
  %0 = call i32 @socket(i32 %domain, i32 %type, i32 %protocol), !insn.addr !3
  ret i32 %0, !insn.addr !3
}

define i64 @function_1200(i64 %arg1, i32 %arg2) local_unnamed_addr {
dec_label_pc_1200:
  %0 = call i64 @SSL_set_fd(), !insn.addr !4
  ret i64 %0, !insn.addr !4
}

define i32 @function_1210(i8* %s) local_unnamed_addr {
dec_label_pc_1210:
  %0 = call i32 @puts(i8* %s), !insn.addr !5
  ret i32 %0, !insn.addr !5
}

define void @function_1220() local_unnamed_addr {
dec_label_pc_1220:
  call void @__stack_chk_fail(), !insn.addr !6
  ret void, !insn.addr !6
}

define i64 @function_1230(i64 %arg1) local_unnamed_addr {
dec_label_pc_1230:
  %0 = call i64 @SSL_new(), !insn.addr !7
  ret i64 %0, !insn.addr !7
}

define i64 @function_1240() local_unnamed_addr {
dec_label_pc_1240:
  %0 = call i64 @_ZNKSt7__cxx1112basic_stringIcSt11char_traitsIcESaIcEE5c_strEv(), !insn.addr !8
  ret i64 %0, !insn.addr !8
}

define i64 @function_1250(i64 %arg1, i64 %arg2) local_unnamed_addr {
dec_label_pc_1250:
  %0 = call i64 @OPENSSL_init_ssl(), !insn.addr !9
  ret i64 %0, !insn.addr !9
}

define i64* @function_1260(i64* %s, i32 %c, i32 %n) local_unnamed_addr {
dec_label_pc_1260:
  %0 = call i64* @memset(i64* %s, i32 %c, i32 %n), !insn.addr !10
  ret i64* %0, !insn.addr !10
}

define i64 @function_1270() local_unnamed_addr {
dec_label_pc_1270:
  %0 = call i64 @ERR_get_error(), !insn.addr !11
  ret i64 %0, !insn.addr !11
}

define void @function_1280(i64* %d) local_unnamed_addr {
dec_label_pc_1280:
  call void @__cxa_finalize(i64* %d), !insn.addr !12
  ret void, !insn.addr !12
}

define i64 @function_1290() local_unnamed_addr {
dec_label_pc_1290:
  %0 = call i64 @_ZNSt7__cxx1112basic_stringIcSt11char_traitsIcESaIcEED1Ev(), !insn.addr !13
  ret i64 %0, !insn.addr !13
}

define i64 @function_12a0(i64 %arg1) local_unnamed_addr {
dec_label_pc_12a0:
  %0 = call i64 @SSL_CIPHER_get_name(), !insn.addr !14
  ret i64 %0, !insn.addr !14
}

define i64 @function_12b0(i64 %arg1) local_unnamed_addr {
dec_label_pc_12b0:
  %0 = call i64 @TLSv1_2_client_method(), !insn.addr !15
  ret i64 %0, !insn.addr !15
}

define i32 @function_12c0(i64 %main, i32 %argc, i8** %ubp_av, void ()* %init, void ()* %fini, void ()* %rtld_fini) local_unnamed_addr {
dec_label_pc_12c0:
  %0 = call i32 @__libc_start_main(i64 %main, i32 %argc, i8** %ubp_av, void ()* %init, void ()* %fini, void ()* %rtld_fini), !insn.addr !16
  ret i32 %0, !insn.addr !16
}

define i64 @function_12d0(i64* %arg1, i64* %arg2) local_unnamed_addr {
dec_label_pc_12d0:
  %0 = call i64 @_ZStlsIcSt11char_traitsIcESaIcEERSt13basic_ostreamIT_T0_ES7_RKNSt7__cxx1112basic_stringIS4_S5_T1_EE(i64* %arg1, i64* %arg2), !insn.addr !17
  ret i64 %0, !insn.addr !17
}

define i64 @function_12e0(i64* %arg1, i8* %arg2) local_unnamed_addr {
dec_label_pc_12e0:
  %0 = call i64 @_ZStlsISt11char_traitsIcEERSt13basic_ostreamIcT_ES5_PKc(i64* %arg1, i8* %arg2), !insn.addr !18
  ret i64 %0, !insn.addr !18
}

define i64 @function_12f0(i64* (i64*)* %arg1) local_unnamed_addr {
dec_label_pc_12f0:
  %0 = call i64 @_ZNSolsEPFRSoS_E(i64* (i64*)* %arg1), !insn.addr !19
  ret i64 %0, !insn.addr !19
}

define i64 @function_1300() local_unnamed_addr {
dec_label_pc_1300:
  %0 = call i64 @_ZNSaIcED1Ev(), !insn.addr !20
  ret i64 %0, !insn.addr !20
}

define i64 @function_1310(i64 %arg1) local_unnamed_addr {
dec_label_pc_1310:
  %0 = call i64 @SSL_CTX_new(), !insn.addr !21
  ret i64 %0, !insn.addr !21
}

define i32 @function_1320(void (i64*)* %func, i64* %arg, i64* %dso_handle) local_unnamed_addr {
dec_label_pc_1320:
  %0 = call i32 @__cxa_atexit(void (i64*)* %func, i64* %arg, i64* %dso_handle), !insn.addr !22
  ret i32 %0, !insn.addr !22
}

define i32 @function_1330(i8* %cp) local_unnamed_addr {
dec_label_pc_1330:
  %0 = call i32 @inet_addr(i8* %cp), !insn.addr !23
  ret i32 %0, !insn.addr !23
}

define i64 @function_1340(i64 %arg1) local_unnamed_addr {
dec_label_pc_1340:
  %0 = call i64 @SSL_connect(), !insn.addr !24
  ret i64 %0, !insn.addr !24
}

define i64 @function_1350(i64 %arg1, i64* %arg2) local_unnamed_addr {
dec_label_pc_1350:
  %0 = call i64 @SSL_CTX_set_cipher_list(), !insn.addr !25
  ret i64 %0, !insn.addr !25
}

define i64 @function_1360(i8* %arg1, i64* %arg2) local_unnamed_addr {
dec_label_pc_1360:
  %0 = call i64 @_ZNSt7__cxx1112basic_stringIcSt11char_traitsIcESaIcEEC1EPKcRKS3_(i8* %arg1, i64* %arg2), !insn.addr !26
  ret i64 %0, !insn.addr !26
}

define i64 @function_1370() local_unnamed_addr {
dec_label_pc_1370:
  %0 = call i64 @_ZNSt8ios_base4InitC1Ev(), !insn.addr !27
  ret i64 %0, !insn.addr !27
}

define i64 @function_1380(i64 %arg1) local_unnamed_addr {
dec_label_pc_1380:
  %0 = call i64 @SSL_get_current_cipher(), !insn.addr !28
  ret i64 %0, !insn.addr !28
}

define void @function_1390() local_unnamed_addr {
dec_label_pc_1390:
  call void @abort(), !insn.addr !29
  ret void, !insn.addr !29
}

define i32 @function_13a0(i32 %fd, %sockaddr* %addr, i32 %len) local_unnamed_addr {
dec_label_pc_13a0:
  %0 = call i32 @connect(i32 %fd, %sockaddr* %addr, i32 %len), !insn.addr !30
  ret i32 %0, !insn.addr !30
}

define i64 @function_13c0(i64 %arg1) local_unnamed_addr {
dec_label_pc_13c0:
  %0 = call i64 @SSL_get_verify_result(), !insn.addr !31
  ret i64 %0, !insn.addr !31
}

define void @function_13d0(%_Unwind_Exception* %object) local_unnamed_addr {
dec_label_pc_13d0:
  call void @_Unwind_Resume(%_Unwind_Exception* %object), !insn.addr !32
  ret void, !insn.addr !32
}

define i64 @function_13e0() local_unnamed_addr {
dec_label_pc_13e0:
  %0 = call i64 @_ZNSaIcEC1Ev(), !insn.addr !33
  ret i64 %0, !insn.addr !33
}

define i64 @function_13f0(i64 %arg1, i64 %arg2, i64 %arg3) local_unnamed_addr {
dec_label_pc_13f0:
  %0 = call i64 @SSL_CTX_set_verify(), !insn.addr !34
  ret i64 %0, !insn.addr !34
}

define i64 @function_1400(i32 %arg1, i64 %arg2) local_unnamed_addr {
dec_label_pc_1400:
  %0 = call i64 @ERR_error_string(), !insn.addr !35
  ret i64 %0, !insn.addr !35
}

define void @function_1410() local_unnamed_addr {
dec_label_pc_1410:
  call void @__gmon_start__(), !insn.addr !36
  ret void, !insn.addr !36
}

define i64 @_start(i64 %arg1) local_unnamed_addr {
dec_label_pc_1420:
  %0 = alloca i64
  %1 = load i64, i64* %0
  %stack_var_8 = alloca i64, align 8
  %2 = load i64, i64* @global_var_12fa8, align 8, !insn.addr !37
  %3 = load void ()*, void ()** @global_var_12fc8, align 8, !insn.addr !38
  %4 = load void ()*, void ()** @global_var_12fd8, align 8, !insn.addr !39
  %5 = trunc i64 %arg1 to i32, !insn.addr !40
  %6 = bitcast i64* %stack_var_8 to i8**, !insn.addr !40
  %7 = inttoptr i64 %1 to void ()*, !insn.addr !40
  %8 = call i32 @__libc_start_main(i64 %2, i32 %5, i8** nonnull %6, void ()* %3, void ()* %4, void ()* %7), !insn.addr !40
  call void @abort(), !insn.addr !41
  ret i64 ptrtoint (i32* @0 to i64), !insn.addr !41
}

define i64 @call_weak_fn() local_unnamed_addr {
dec_label_pc_1458:
  %0 = load i64, i64* @global_var_12fe0, align 8, !insn.addr !42
  %1 = icmp eq i64 %0, 0, !insn.addr !43
  br i1 %1, label %dec_label_pc_1468, label %dec_label_pc_1464, !insn.addr !43

dec_label_pc_1464:                                ; preds = %dec_label_pc_1458
  call void @__gmon_start__(), !insn.addr !44
  ret i64 ptrtoint (i32* @0 to i64), !insn.addr !44

dec_label_pc_1468:                                ; preds = %dec_label_pc_1458
  ret i64 0, !insn.addr !45
}

define i64 @deregister_tm_clones() local_unnamed_addr {
dec_label_pc_1470:
  ret i64 ptrtoint (i64* @global_var_13020 to i64), !insn.addr !46
}

define i64 @register_tm_clones() local_unnamed_addr {
dec_label_pc_14a0:
  ret i64 ptrtoint (i64* @global_var_13020 to i64), !insn.addr !47
}

define i64 @__do_global_dtors_aux() local_unnamed_addr {
dec_label_pc_14e0:
  %x0.0.reg2mem = alloca i64, !insn.addr !48
  %0 = load i8, i8* bitcast (i64* @global_var_13020 to i8*), align 8, !insn.addr !49
  %1 = zext i8 %0 to i64, !insn.addr !49
  %2 = icmp eq i8 %0, 0, !insn.addr !50
  store i64 %1, i64* %x0.0.reg2mem, !insn.addr !50
  br i1 %2, label %dec_label_pc_14f8, label %dec_label_pc_151c, !insn.addr !50

dec_label_pc_14f8:                                ; preds = %dec_label_pc_14e0
  %3 = load i64, i64* inttoptr (i64 77752 to i64*), align 8, !insn.addr !51
  %4 = icmp eq i64 %3, 0, !insn.addr !52
  br i1 %4, label %dec_label_pc_1510, label %dec_label_pc_1504, !insn.addr !52

dec_label_pc_1504:                                ; preds = %dec_label_pc_14f8
  %5 = load i64, i64* inttoptr (i64 add (i64 ptrtoint (i64* @global_var_13000 to i64), i64 8) to i64*), align 8, !insn.addr !53
  %6 = inttoptr i64 %5 to i64*, !insn.addr !54
  call void @__cxa_finalize(i64* %6), !insn.addr !54
  br label %dec_label_pc_1510, !insn.addr !54

dec_label_pc_1510:                                ; preds = %dec_label_pc_1504, %dec_label_pc_14f8
  %7 = call i64 @deregister_tm_clones(), !insn.addr !55
  store i8 1, i8* bitcast (i64* @global_var_13020 to i8*), align 8, !insn.addr !56
  store i64 1, i64* %x0.0.reg2mem, !insn.addr !56
  br label %dec_label_pc_151c, !insn.addr !56

dec_label_pc_151c:                                ; preds = %dec_label_pc_14e0, %dec_label_pc_1510
  %x0.0.reload = load i64, i64* %x0.0.reg2mem
  ret i64 %x0.0.reload, !insn.addr !57

; uselistorder directives
  uselistorder i64* %x0.0.reg2mem, { 0, 2, 1 }
  uselistorder label %dec_label_pc_151c, { 1, 0 }
}

define i64 @frame_dummy() local_unnamed_addr {
dec_label_pc_1528:
  %0 = call i64 @register_tm_clones(), !insn.addr !58
  ret i64 %0, !insn.addr !58
}

define i64 @_Z9connectToNSt7__cxx1112basic_stringIcSt11char_traitsIcESaIcEEEi(i64 %arg1, i32 %arg2) local_unnamed_addr {
dec_label_pc_152c:
  %0 = alloca i64
  %x0.0.reg2mem = alloca i64, !insn.addr !59
  %1 = load i64, i64* %0
  %stack_var_-16 = alloca i64, align 8
  %2 = load i64, i64* @global_var_12fa0, align 8, !insn.addr !60
  %3 = inttoptr i64 %2 to i64*, !insn.addr !61
  %4 = load i64, i64* %3, align 8, !insn.addr !61
  %5 = call i32 @socket(i32 2, i32 1, i32 0), !insn.addr !62
  %6 = icmp eq i32 %5, 0, !insn.addr !63
  br i1 %6, label %dec_label_pc_1570, label %dec_label_pc_1584, !insn.addr !64

dec_label_pc_1570:                                ; preds = %dec_label_pc_152c
  %7 = call i32 @puts(i8* getelementptr inbounds ([23 x i8], [23 x i8]* @global_var_1cd0, i64 0, i64 0)), !insn.addr !65
  store i64 4294967295, i64* %x0.0.reg2mem, !insn.addr !66
  br label %dec_label_pc_1664, !insn.addr !66

dec_label_pc_1584:                                ; preds = %dec_label_pc_152c
  %8 = load i64, i64* inttoptr (i64 77808 to i64*), align 16, !insn.addr !67
  %9 = inttoptr i64 %8 to i64*, !insn.addr !68
  %10 = call i64 @_ZStlsISt11char_traitsIcEERSt13basic_ostreamIcT_ES5_PKc(i64* %9, i8* getelementptr inbounds ([15 x i8], [15 x i8]* @global_var_1ce8, i64 0, i64 0)), !insn.addr !68
  %11 = inttoptr i64 %10 to i64*, !insn.addr !69
  %12 = inttoptr i64 %1 to i64*, !insn.addr !69
  %13 = call i64 @_ZStlsIcSt11char_traitsIcESaIcEERSt13basic_ostreamIT_T0_ES7_RKNSt7__cxx1112basic_stringIS4_S5_T1_EE(i64* %11, i64* %12), !insn.addr !69
  %14 = inttoptr i64 %13 to i64*, !insn.addr !70
  %15 = call i64 @_ZStlsISt11char_traitsIcEERSt13basic_ostreamIcT_ES5_PKc(i64* %14, i8* getelementptr inbounds ([4 x i8], [4 x i8]* @global_var_1cf8, i64 0, i64 0)), !insn.addr !70
  %16 = inttoptr i64 %15 to i64* (i64*)*, !insn.addr !71
  %17 = call i64 @_ZNSolsEPFRSoS_E(i64* (i64*)* %16), !insn.addr !71
  %18 = call i64* @memset(i64* nonnull %stack_var_-16, i32 0, i32 16), !insn.addr !72
  store i64 2, i64* %stack_var_-16, align 8, !insn.addr !73
  %19 = call i64 @_ZNKSt7__cxx1112basic_stringIcSt11char_traitsIcESaIcEE5c_strEv(), !insn.addr !74
  %20 = inttoptr i64 %19 to i8*, !insn.addr !75
  %21 = call i32 @inet_addr(i8* %20), !insn.addr !75
  %22 = call i16 @htons(i16 443), !insn.addr !76
  %23 = bitcast i64* %stack_var_-16 to %sockaddr*, !insn.addr !77
  %24 = call i32 @connect(i32 %5, %sockaddr* nonnull %23, i32 16), !insn.addr !77
  %25 = icmp eq i32 %24, 0, !insn.addr !78
  %26 = icmp ne i1 %25, true, !insn.addr !79
  %27 = icmp eq i1 %26, false, !insn.addr !80
  br i1 %27, label %dec_label_pc_1660, label %dec_label_pc_1630, !insn.addr !81

dec_label_pc_1630:                                ; preds = %dec_label_pc_1584
  %28 = load i64, i64* inttoptr (i64 77808 to i64*), align 16, !insn.addr !82
  %29 = inttoptr i64 %28 to i64*, !insn.addr !83
  %30 = call i64 @_ZStlsISt11char_traitsIcEERSt13basic_ostreamIcT_ES5_PKc(i64* %29, i8* getelementptr inbounds ([28 x i8], [28 x i8]* @global_var_1d00, i64 0, i64 0)), !insn.addr !83
  %31 = inttoptr i64 %30 to i64* (i64*)*, !insn.addr !84
  %32 = call i64 @_ZNSolsEPFRSoS_E(i64* (i64*)* %31), !insn.addr !84
  store i64 4294967295, i64* %x0.0.reg2mem, !insn.addr !85
  br label %dec_label_pc_1664, !insn.addr !85

dec_label_pc_1660:                                ; preds = %dec_label_pc_1584
  %33 = zext i32 %5 to i64, !insn.addr !86
  store i64 %33, i64* %x0.0.reg2mem, !insn.addr !86
  br label %dec_label_pc_1664, !insn.addr !86

dec_label_pc_1664:                                ; preds = %dec_label_pc_1660, %dec_label_pc_1630, %dec_label_pc_1570
  %x0.0.reload = load i64, i64* %x0.0.reg2mem
  %34 = load i64, i64* @global_var_12fa0, align 8, !insn.addr !87
  %35 = inttoptr i64 %34 to i64*, !insn.addr !88
  %36 = load i64, i64* %35, align 8, !insn.addr !88
  %37 = icmp eq i64 %4, %36, !insn.addr !89
  br i1 %37, label %dec_label_pc_1688, label %dec_label_pc_1684, !insn.addr !90

dec_label_pc_1684:                                ; preds = %dec_label_pc_1664
  call void @__stack_chk_fail(), !insn.addr !91
  br label %dec_label_pc_1688, !insn.addr !91

dec_label_pc_1688:                                ; preds = %dec_label_pc_1684, %dec_label_pc_1664
  ret i64 %x0.0.reload, !insn.addr !92

; uselistorder directives
  uselistorder i64* %stack_var_-16, { 0, 2, 1 }
  uselistorder i64* %x0.0.reg2mem, { 0, 2, 1, 3 }
}

define i64 @_Z23failDisableVerificationP10ssl_ctx_st(i64* %arg1) local_unnamed_addr {
dec_label_pc_1694:
  %0 = ptrtoint i64* %arg1 to i64
  %1 = call i64 @function_13f0(i64 %0, i64 1, i64 add (i64 ptrtoint (i64* @global_var_1000 to i64), i64 2964)), !insn.addr !93
  ret i64 %1, !insn.addr !94
}

define i64 @_Z22failSetInsecureCiphersP10ssl_ctx_st(i64* %arg1) local_unnamed_addr {
dec_label_pc_16c0:
  %0 = alloca i64
  %x0.0.reg2mem = alloca i64, !insn.addr !95
  %1 = load i64, i64* %0
  %stack_var_-16 = alloca i64, align 8
  %2 = load i64, i64* @global_var_12fa0, align 8, !insn.addr !96
  %3 = inttoptr i64 %2 to i64*, !insn.addr !97
  %4 = load i64, i64* %3, align 8, !insn.addr !97
  store i64 5207358680114940993, i64* %stack_var_-16, align 8, !insn.addr !98
  %5 = call i64 @function_1350(i64 %1, i64* nonnull %stack_var_-16), !insn.addr !99
  %6 = load i64, i64* @global_var_12fa0, align 8, !insn.addr !100
  %7 = inttoptr i64 %6 to i64*, !insn.addr !101
  %8 = load i64, i64* %7, align 8, !insn.addr !101
  %9 = icmp eq i64 %4, %8, !insn.addr !102
  store i64 %6, i64* %x0.0.reg2mem, !insn.addr !103
  br i1 %9, label %dec_label_pc_1730, label %dec_label_pc_172c, !insn.addr !103

dec_label_pc_172c:                                ; preds = %dec_label_pc_16c0
  call void @__stack_chk_fail(), !insn.addr !104
  store i64 ptrtoint (i32* @0 to i64), i64* %x0.0.reg2mem, !insn.addr !104
  br label %dec_label_pc_1730, !insn.addr !104

dec_label_pc_1730:                                ; preds = %dec_label_pc_172c, %dec_label_pc_16c0
  %x0.0.reload = load i64, i64* %x0.0.reg2mem
  ret i64 %x0.0.reload, !insn.addr !105
}

define i64 @_Z29failSetInsecureCiphersLiteralP10ssl_ctx_st(i64* %arg1) local_unnamed_addr {
dec_label_pc_1738:
  %0 = ptrtoint i64* %arg1 to i64
  %1 = call i64 @function_1350(i64 %0, i64* bitcast ([9 x i8]* @global_var_1d20 to i64*)), !insn.addr !106
  ret i64 %1, !insn.addr !107
}

define i64 @_Z25failSetInsecureCiphersSTLP10ssl_ctx_st(i64* %arg1) local_unnamed_addr {
dec_label_pc_1760:
  %0 = alloca i64
  %x0.0.reg2mem = alloca i64, !insn.addr !108
  %1 = load i64, i64* %0
  %stack_var_-32 = alloca i64, align 8
  %2 = load i64, i64* @global_var_12fa0, align 8, !insn.addr !109
  %3 = inttoptr i64 %2 to i64*, !insn.addr !110
  %4 = load i64, i64* %3, align 8, !insn.addr !110
  %5 = call i64 @_ZNSaIcEC1Ev(), !insn.addr !111
  %6 = bitcast i64* %stack_var_-32 to i8*, !insn.addr !112
  %7 = call i64 @_ZNSt7__cxx1112basic_stringIcSt11char_traitsIcESaIcEEC1EPKcRKS3_(i8* nonnull %6, i64* bitcast ([9 x i8]* @global_var_1d20 to i64*)), !insn.addr !112
  %8 = call i64 @_ZNSaIcED1Ev(), !insn.addr !113
  %9 = call i64 @_ZNKSt7__cxx1112basic_stringIcSt11char_traitsIcESaIcEE5c_strEv(), !insn.addr !114
  %10 = inttoptr i64 %9 to i64*, !insn.addr !115
  %11 = call i64 @function_1350(i64 %1, i64* %10), !insn.addr !115
  %12 = call i64 @_ZNSt7__cxx1112basic_stringIcSt11char_traitsIcESaIcEED1Ev(), !insn.addr !116
  %13 = load i64, i64* @global_var_12fa0, align 8, !insn.addr !117
  %14 = inttoptr i64 %13 to i64*, !insn.addr !118
  %15 = load i64, i64* %14, align 8, !insn.addr !118
  %16 = icmp eq i64 %4, %15, !insn.addr !119
  store i64 %13, i64* %x0.0.reg2mem, !insn.addr !120
  br i1 %16, label %dec_label_pc_181c, label %dec_label_pc_1818, !insn.addr !120

dec_label_pc_1818:                                ; preds = %dec_label_pc_1760
  call void @__stack_chk_fail(), !insn.addr !121
  store i64 ptrtoint (i32* @0 to i64), i64* %x0.0.reg2mem, !insn.addr !121
  br label %dec_label_pc_181c, !insn.addr !121

dec_label_pc_181c:                                ; preds = %dec_label_pc_1818, %dec_label_pc_1760
  %x0.0.reload = load i64, i64* %x0.0.reg2mem
  ret i64 %x0.0.reload, !insn.addr !122
}

define i64 @_Z28failSetInsecureCiphersGlobalP10ssl_ctx_st(i64* %arg1) local_unnamed_addr {
dec_label_pc_1828:
  %0 = ptrtoint i64* %arg1 to i64
  %1 = call i64 @function_1350(i64 %0, i64* bitcast ([4 x i8]* @global_var_13010 to i64*)), !insn.addr !123
  ret i64 %1, !insn.addr !124

; uselistorder directives
  uselistorder i64 (i64, i64*)* @function_1350, { 3, 2, 1, 0 }
}

define i64 @_Z29failDisableVerificationLambdaP10ssl_ctx_st(i64* %arg1) local_unnamed_addr {
dec_label_pc_1850:
  %0 = alloca i64
  %1 = load i64, i64* %0
  ret i64 %1, !insn.addr !125
}

define i64 @_Z14initTLSContextv() local_unnamed_addr {
dec_label_pc_1864:
  %0 = call i64 @function_1250(i64 0, i64 0), !insn.addr !126
  %1 = call i64 @function_1250(i64 2097154, i64 0), !insn.addr !127
  %2 = call i64 @function_12b0(i64 %1), !insn.addr !128
  %3 = call i64 @function_1310(i64 %2), !insn.addr !129
  %4 = call i64 @_Z22failSetInsecureCiphersP10ssl_ctx_st(i64* bitcast (i32* @0 to i64*)), !insn.addr !130
  %5 = inttoptr i64 %3 to i64*, !insn.addr !131
  %6 = call i64 @_Z29failSetInsecureCiphersLiteralP10ssl_ctx_st(i64* %5), !insn.addr !131
  %7 = call i64 @_Z25failSetInsecureCiphersSTLP10ssl_ctx_st(i64* bitcast (i32* @0 to i64*)), !insn.addr !132
  %8 = call i64 @_Z28failSetInsecureCiphersGlobalP10ssl_ctx_st(i64* %5), !insn.addr !133
  %9 = call i64 @function_13f0(i64 %3, i64 1, i64 0), !insn.addr !134
  %10 = call i64 @_Z23failDisableVerificationP10ssl_ctx_st(i64* %5), !insn.addr !135
  ret i64 %3, !insn.addr !136

; uselistorder directives
  uselistorder i64 (i64, i64, i64)* @function_13f0, { 1, 0 }
  uselistorder i64 (i64, i64)* @function_1250, { 1, 0 }
}

define i64 @main(i64 %argc, i8** %argv) local_unnamed_addr {
dec_label_pc_18d8:
  %x0.0.reg2mem = alloca i64, !insn.addr !137
  %stack_var_-32 = alloca i64, align 8
  %0 = load i64, i64* @global_var_12fa0, align 8, !insn.addr !138
  %1 = inttoptr i64 %0 to i64*, !insn.addr !139
  %2 = load i64, i64* %1, align 8, !insn.addr !139
  %3 = call i64 @_ZNSaIcEC1Ev(), !insn.addr !140
  %4 = bitcast i64* %stack_var_-32 to i8*, !insn.addr !141
  %5 = call i64 @_ZNSt7__cxx1112basic_stringIcSt11char_traitsIcESaIcEEC1EPKcRKS3_(i8* nonnull %4, i64* bitcast ([14 x i8]* @global_var_1d30 to i64*)), !insn.addr !141
  %6 = call i64 @_Z9connectToNSt7__cxx1112basic_stringIcSt11char_traitsIcESaIcEEEi(i64 ptrtoint (i32* @0 to i64), i32 ptrtoint (i32* @0 to i32)), !insn.addr !142
  %7 = trunc i64 %6 to i32, !insn.addr !143
  %8 = call i64 @_ZNSt7__cxx1112basic_stringIcSt11char_traitsIcESaIcEED1Ev(), !insn.addr !144
  %9 = call i64 @_ZNSaIcED1Ev(), !insn.addr !145
  %10 = icmp slt i32 %7, 0, !insn.addr !146
  store i64 4294967295, i64* %x0.0.reg2mem, !insn.addr !147
  br i1 %10, label %dec_label_pc_1b38, label %dec_label_pc_1958, !insn.addr !147

dec_label_pc_1958:                                ; preds = %dec_label_pc_18d8
  %11 = call i64 @_Z14initTLSContextv(), !insn.addr !148
  %12 = call i64 @function_1230(i64 %11), !insn.addr !149
  store i64 %12, i64* @global_var_13028, align 8, !insn.addr !150
  %13 = icmp eq i64 %12, 0, !insn.addr !151
  br i1 %13, label %dec_label_pc_198c, label %dec_label_pc_19bc, !insn.addr !152

dec_label_pc_198c:                                ; preds = %dec_label_pc_1958
  %14 = load i64, i64* inttoptr (i64 77808 to i64*), align 16, !insn.addr !153
  %15 = inttoptr i64 %14 to i64*, !insn.addr !154
  %16 = call i64 @_ZStlsISt11char_traitsIcEERSt13basic_ostreamIcT_ES5_PKc(i64* %15, i8* getelementptr inbounds ([20 x i8], [20 x i8]* @global_var_1d40, i64 0, i64 0)), !insn.addr !154
  %17 = inttoptr i64 %16 to i64* (i64*)*, !insn.addr !155
  %18 = call i64 @_ZNSolsEPFRSoS_E(i64* (i64*)* %17), !insn.addr !155
  store i64 4294967295, i64* %x0.0.reg2mem, !insn.addr !156
  br label %dec_label_pc_1b38, !insn.addr !156

dec_label_pc_19bc:                                ; preds = %dec_label_pc_1958
  %19 = call i64 @function_1200(i64 %12, i32 %7), !insn.addr !157
  %20 = load i64, i64* @global_var_13028, align 8, !insn.addr !158
  %21 = call i64 @function_1340(i64 %20), !insn.addr !159
  %22 = trunc i64 %21 to i32, !insn.addr !160
  %23 = icmp sgt i32 %22, 0, !insn.addr !161
  br i1 %23, label %dec_label_pc_1a9c, label %dec_label_pc_19f0, !insn.addr !161

dec_label_pc_19f0:                                ; preds = %dec_label_pc_19bc
  %24 = call i64 @function_1270(), !insn.addr !162
  %25 = trunc i64 %24 to i32, !insn.addr !163
  %26 = load i64, i64* inttoptr (i64 77808 to i64*), align 16, !insn.addr !164
  %27 = inttoptr i64 %26 to i64*, !insn.addr !165
  %28 = call i64 @_ZStlsISt11char_traitsIcEERSt13basic_ostreamIcT_ES5_PKc(i64* %27, i8* getelementptr inbounds ([44 x i8], [44 x i8]* @global_var_1d58, i64 0, i64 0)), !insn.addr !165
  %29 = call i64 @function_1400(i32 %25, i64 0), !insn.addr !166
  %30 = inttoptr i64 %28 to i64*, !insn.addr !167
  %31 = inttoptr i64 %29 to i8*, !insn.addr !167
  %32 = call i64 @_ZStlsISt11char_traitsIcEERSt13basic_ostreamIcT_ES5_PKc(i64* %30, i8* %31), !insn.addr !167
  %33 = inttoptr i64 %32 to i64* (i64*)*, !insn.addr !168
  %34 = call i64 @_ZNSolsEPFRSoS_E(i64* (i64*)* %33), !insn.addr !168
  store i64 4294967295, i64* %x0.0.reg2mem, !insn.addr !169
  br label %dec_label_pc_1b38, !insn.addr !169

dec_label_pc_1a9c:                                ; preds = %dec_label_pc_19bc
  %35 = load i64, i64* @global_var_13028, align 8, !insn.addr !170
  %36 = call i64 @function_13c0(i64 %35), !insn.addr !171
  %37 = icmp eq i64 %36, 0, !insn.addr !172
  %38 = icmp eq i1 %37, false, !insn.addr !173
  br i1 %38, label %dec_label_pc_1ae8, label %dec_label_pc_1ac0, !insn.addr !174

dec_label_pc_1ac0:                                ; preds = %dec_label_pc_1a9c
  %39 = load i64, i64* @global_var_12fc0, align 8, !insn.addr !175
  %40 = inttoptr i64 %39 to i64*, !insn.addr !176
  %41 = call i64 @_ZStlsISt11char_traitsIcEERSt13basic_ostreamIcT_ES5_PKc(i64* %40, i8* getelementptr inbounds ([36 x i8], [36 x i8]* @global_var_1d88, i64 0, i64 0)), !insn.addr !176
  %42 = inttoptr i64 %41 to i64* (i64*)*, !insn.addr !177
  %43 = call i64 @_ZNSolsEPFRSoS_E(i64* (i64*)* %42), !insn.addr !177
  br label %dec_label_pc_1ae8, !insn.addr !177

dec_label_pc_1ae8:                                ; preds = %dec_label_pc_1ac0, %dec_label_pc_1a9c
  %44 = load i64, i64* @global_var_12fc0, align 8, !insn.addr !178
  %45 = inttoptr i64 %44 to i64*, !insn.addr !179
  %46 = call i64 @_ZStlsISt11char_traitsIcEERSt13basic_ostreamIcT_ES5_PKc(i64* %45, i8* getelementptr inbounds ([37 x i8], [37 x i8]* @global_var_1db0, i64 0, i64 0)), !insn.addr !179
  %47 = load i64, i64* @global_var_13028, align 8, !insn.addr !180
  %48 = call i64 @function_1380(i64 %47), !insn.addr !181
  %49 = call i64 @function_12a0(i64 %48), !insn.addr !182
  %50 = inttoptr i64 %46 to i64*, !insn.addr !183
  %51 = inttoptr i64 %49 to i8*, !insn.addr !183
  %52 = call i64 @_ZStlsISt11char_traitsIcEERSt13basic_ostreamIcT_ES5_PKc(i64* %50, i8* %51), !insn.addr !183
  %53 = inttoptr i64 %52 to i64* (i64*)*, !insn.addr !184
  %54 = call i64 @_ZNSolsEPFRSoS_E(i64* (i64*)* %53), !insn.addr !184
  store i64 0, i64* %x0.0.reg2mem, !insn.addr !185
  br label %dec_label_pc_1b38, !insn.addr !185

dec_label_pc_1b38:                                ; preds = %dec_label_pc_18d8, %dec_label_pc_1ae8, %dec_label_pc_19f0, %dec_label_pc_198c
  %x0.0.reload = load i64, i64* %x0.0.reg2mem
  %55 = load i64, i64* @global_var_12fa0, align 8, !insn.addr !186
  %56 = inttoptr i64 %55 to i64*, !insn.addr !187
  %57 = load i64, i64* %56, align 8, !insn.addr !187
  %58 = icmp eq i64 %2, %57, !insn.addr !188
  br i1 %58, label %dec_label_pc_1b84, label %dec_label_pc_1b80, !insn.addr !189

dec_label_pc_1b80:                                ; preds = %dec_label_pc_1b38
  call void @__stack_chk_fail(), !insn.addr !190
  br label %dec_label_pc_1b84, !insn.addr !190

dec_label_pc_1b84:                                ; preds = %dec_label_pc_1b80, %dec_label_pc_1b38
  ret i64 %x0.0.reload, !insn.addr !191

; uselistorder directives
  uselistorder i64* %x0.0.reg2mem, { 0, 3, 2, 4, 1 }
  uselistorder void ()* @__stack_chk_fail, { 3, 0, 1, 2, 4 }
  uselistorder i64 (i64* (i64*)*)* @_ZNSolsEPFRSoS_E, { 5, 4, 3, 2, 1, 0, 6 }
  uselistorder i64 (i64*, i8*)* @_ZStlsISt11char_traitsIcEERSt13basic_ostreamIcT_ES5_PKc, { 8, 7, 6, 5, 4, 3, 2, 1, 0, 9 }
  uselistorder i64* @global_var_13028, { 1, 2, 3, 0 }
  uselistorder i32 0, { 2, 3, 4, 0, 5, 1 }
  uselistorder i64 ptrtoint (i32* @0 to i64), { 2, 0, 1, 3, 4 }
  uselistorder i64 (i8*, i64*)* @_ZNSt7__cxx1112basic_stringIcSt11char_traitsIcESaIcEEC1EPKcRKS3_, { 1, 0, 2 }
  uselistorder label %dec_label_pc_1b38, { 1, 2, 3, 0 }
}

define i64 @_Z10callMeBackiP17x509_store_ctx_st(i32 %arg1, i64* %arg2) local_unnamed_addr {
dec_label_pc_1b94:
  ret i64 1, !insn.addr !192

; uselistorder directives
  uselistorder i64 1, { 1, 2, 3, 0 }
}

define i64 @_Z41__static_initialization_and_destruction_0ii(i32 %arg1, i32 %arg2) local_unnamed_addr {
dec_label_pc_1bac:
  %0 = alloca i64
  %x0.0.reg2mem = alloca i64, !insn.addr !193
  %1 = load i64, i64* %0
  %2 = load i64, i64* %0
  %3 = and i64 %2, 4294967295, !insn.addr !194
  %4 = trunc i64 %2 to i32, !insn.addr !195
  %5 = icmp eq i32 %4, 1, !insn.addr !195
  store i64 %3, i64* %x0.0.reg2mem, !insn.addr !195
  br i1 %5, label %dec_label_pc_1bc8, label %dec_label_pc_1c00, !insn.addr !195

dec_label_pc_1bc8:                                ; preds = %dec_label_pc_1bac
  %6 = trunc i64 %1 to i32, !insn.addr !196
  %7 = icmp eq i32 %6, 65535, !insn.addr !197
  store i64 65535, i64* %x0.0.reg2mem, !insn.addr !197
  br i1 %7, label %dec_label_pc_1bd8, label %dec_label_pc_1c00, !insn.addr !197

dec_label_pc_1bd8:                                ; preds = %dec_label_pc_1bc8
  %8 = call i64 @_ZNSt8ios_base4InitC1Ev(), !insn.addr !198
  %9 = load i64, i64* inttoptr (i64 77816 to i64*), align 8, !insn.addr !199
  %10 = inttoptr i64 %9 to void (i64*)*, !insn.addr !200
  %11 = call i32 @__cxa_atexit(void (i64*)* %10, i64* nonnull @global_var_13030, i64* nonnull @global_var_13008), !insn.addr !200
  %12 = sext i32 %11 to i64, !insn.addr !200
  store i64 %12, i64* %x0.0.reg2mem, !insn.addr !200
  br label %dec_label_pc_1c00, !insn.addr !200

dec_label_pc_1c00:                                ; preds = %dec_label_pc_1bc8, %dec_label_pc_1bac, %dec_label_pc_1bd8
  %x0.0.reload = load i64, i64* %x0.0.reg2mem
  ret i64 %x0.0.reload, !insn.addr !201

; uselistorder directives
  uselistorder i64 %2, { 1, 0 }
  uselistorder i64* %x0.0.reg2mem, { 0, 3, 2, 1 }
  uselistorder i64* %0, { 1, 0 }
  uselistorder label %dec_label_pc_1c00, { 2, 0, 1 }
}

define i64 @_GLOBAL__sub_I_ssl(i64 %arg1) local_unnamed_addr {
dec_label_pc_1c0c:
  %0 = call i64 @_Z41__static_initialization_and_destruction_0ii(i32 ptrtoint (i32* @0 to i32), i32 ptrtoint (i32* @0 to i32)), !insn.addr !202
  ret i64 %0, !insn.addr !203
}

define i64 @__libc_csu_init() local_unnamed_addr {
dec_label_pc_1c28:
  %0 = alloca i64
  %1 = load i64, i64* %0
  %2 = load i64, i64* %0
  %3 = call i64 @_init(i64 %1), !insn.addr !204
  br i1 icmp eq (i64 sub (i64 0, i64 ashr (i64 sub (i64 ptrtoint (i64* @global_var_12c18 to i64), i64 ptrtoint (i64* @global_var_12c08 to i64)), i64 3)), i64 0), label %dec_label_pc_1c90, label %dec_label_pc_1c70, !insn.addr !205

dec_label_pc_1c70:                                ; preds = %dec_label_pc_1c28
  %4 = and i64 %2, 4294967295, !insn.addr !206
  ret i64 %4, !insn.addr !207

dec_label_pc_1c90:                                ; preds = %dec_label_pc_1c28
  ret i64 %3, !insn.addr !208

; uselistorder directives
  uselistorder i64* %0, { 1, 0 }
  uselistorder i64 4294967295, { 5, 6, 1, 2, 0, 3, 4 }
  uselistorder i64 0, { 2, 3, 0, 4, 5, 6, 7, 36, 20, 8, 9, 10, 11, 37, 21, 22, 24, 23, 12, 13, 14, 15, 16, 17, 18, 19, 38, 1, 39, 25, 26, 27, 28, 29, 30, 31, 32, 33, 34, 35 }
}

define i64 @__libc_csu_fini() local_unnamed_addr {
dec_label_pc_1ca8:
  %0 = alloca i64
  %1 = load i64, i64* %0
  ret i64 %1, !insn.addr !209
}

define i64 @_fini(i64 %arg1) local_unnamed_addr {
dec_label_pc_1cac:
  %0 = alloca i64
  %1 = load i64, i64* %0
  ret i64 %1, !insn.addr !210

; uselistorder directives
  uselistorder i32 1, { 8, 7, 6, 16, 9, 5, 17, 10, 4, 18, 11, 3, 19, 12, 2, 15, 20, 13, 1, 14, 21, 0 }
}

declare i16 @htons(i16) local_unnamed_addr

declare i32 @socket(i32, i32, i32) local_unnamed_addr

declare i64 @SSL_set_fd() local_unnamed_addr

declare i32 @puts(i8*) local_unnamed_addr

declare void @__stack_chk_fail() local_unnamed_addr

declare i64 @SSL_new() local_unnamed_addr

declare i64 @_ZNKSt7__cxx1112basic_stringIcSt11char_traitsIcESaIcEE5c_strEv() local_unnamed_addr

declare i64 @OPENSSL_init_ssl() local_unnamed_addr

declare i64* @memset(i64*, i32, i32) local_unnamed_addr

declare i64 @ERR_get_error() local_unnamed_addr

declare void @__cxa_finalize(i64*) local_unnamed_addr

declare i64 @_ZNSt7__cxx1112basic_stringIcSt11char_traitsIcESaIcEED1Ev() local_unnamed_addr

declare i64 @SSL_CIPHER_get_name() local_unnamed_addr

declare i64 @TLSv1_2_client_method() local_unnamed_addr

declare i32 @__libc_start_main(i64, i32, i8**, void ()*, void ()*, void ()*) local_unnamed_addr

declare i64 @_ZStlsIcSt11char_traitsIcESaIcEERSt13basic_ostreamIT_T0_ES7_RKNSt7__cxx1112basic_stringIS4_S5_T1_EE(i64*, i64*) local_unnamed_addr

declare i64 @_ZStlsISt11char_traitsIcEERSt13basic_ostreamIcT_ES5_PKc(i64*, i8*) local_unnamed_addr

declare i64 @_ZNSolsEPFRSoS_E(i64* (i64*)*) local_unnamed_addr

declare i64 @_ZNSaIcED1Ev() local_unnamed_addr

declare i64 @SSL_CTX_new() local_unnamed_addr

declare i32 @__cxa_atexit(void (i64*)*, i64*, i64*) local_unnamed_addr

declare i32 @inet_addr(i8*) local_unnamed_addr

declare i64 @SSL_connect() local_unnamed_addr

declare i64 @SSL_CTX_set_cipher_list() local_unnamed_addr

declare i64 @_ZNSt7__cxx1112basic_stringIcSt11char_traitsIcESaIcEEC1EPKcRKS3_(i8*, i64*) local_unnamed_addr

declare i64 @_ZNSt8ios_base4InitC1Ev() local_unnamed_addr

declare i64 @SSL_get_current_cipher() local_unnamed_addr

declare void @abort() local_unnamed_addr

declare i32 @connect(i32, %sockaddr*, i32) local_unnamed_addr

declare i64 @SSL_get_verify_result() local_unnamed_addr

declare void @_Unwind_Resume(%_Unwind_Exception*) local_unnamed_addr

declare i64 @_ZNSaIcEC1Ev() local_unnamed_addr

declare i64 @SSL_CTX_set_verify() local_unnamed_addr

declare i64 @ERR_error_string() local_unnamed_addr

declare void @__gmon_start__() local_unnamed_addr

!0 = !{i64 4520}
!1 = !{i64 4528}
!2 = !{i64 4588}
!3 = !{i64 4604}
!4 = !{i64 4620}
!5 = !{i64 4636}
!6 = !{i64 4652}
!7 = !{i64 4668}
!8 = !{i64 4684}
!9 = !{i64 4700}
!10 = !{i64 4716}
!11 = !{i64 4732}
!12 = !{i64 4748}
!13 = !{i64 4764}
!14 = !{i64 4780}
!15 = !{i64 4796}
!16 = !{i64 4812}
!17 = !{i64 4828}
!18 = !{i64 4844}
!19 = !{i64 4860}
!20 = !{i64 4876}
!21 = !{i64 4892}
!22 = !{i64 4908}
!23 = !{i64 4924}
!24 = !{i64 4940}
!25 = !{i64 4956}
!26 = !{i64 4972}
!27 = !{i64 4988}
!28 = !{i64 5004}
!29 = !{i64 5020}
!30 = !{i64 5036}
!31 = !{i64 5068}
!32 = !{i64 5084}
!33 = !{i64 5100}
!34 = !{i64 5116}
!35 = !{i64 5132}
!36 = !{i64 5148}
!37 = !{i64 5180}
!38 = !{i64 5188}
!39 = !{i64 5196}
!40 = !{i64 5200}
!41 = !{i64 5204}
!42 = !{i64 5212}
!43 = !{i64 5216}
!44 = !{i64 5220}
!45 = !{i64 5224}
!46 = !{i64 5276}
!47 = !{i64 5340}
!48 = !{i64 5344}
!49 = !{i64 5360}
!50 = !{i64 5364}
!51 = !{i64 5372}
!52 = !{i64 5376}
!53 = !{i64 5384}
!54 = !{i64 5388}
!55 = !{i64 5392}
!56 = !{i64 5400}
!57 = !{i64 5412}
!58 = !{i64 5416}
!59 = !{i64 5420}
!60 = !{i64 5440}
!61 = !{i64 5444}
!62 = !{i64 5468}
!63 = !{i64 5480}
!64 = !{i64 5484}
!65 = !{i64 5496}
!66 = !{i64 5504}
!67 = !{i64 5520}
!68 = !{i64 5524}
!69 = !{i64 5532}
!70 = !{i64 5552}
!71 = !{i64 5572}
!72 = !{i64 5588}
!73 = !{i64 5596}
!74 = !{i64 5604}
!75 = !{i64 5608}
!76 = !{i64 5620}
!77 = !{i64 5656}
!78 = !{i64 5660}
!79 = !{i64 5664}
!80 = !{i64 5672}
!81 = !{i64 5676}
!82 = !{i64 5692}
!83 = !{i64 5696}
!84 = !{i64 5716}
!85 = !{i64 5724}
!86 = !{i64 5728}
!87 = !{i64 5740}
!88 = !{i64 5748}
!89 = !{i64 5752}
!90 = !{i64 5760}
!91 = !{i64 5764}
!92 = !{i64 5776}
!93 = !{i64 5808}
!94 = !{i64 5820}
!95 = !{i64 5824}
!96 = !{i64 5840}
!97 = !{i64 5844}
!98 = !{i64 5872}
!99 = !{i64 5896}
!100 = !{i64 5908}
!101 = !{i64 5916}
!102 = !{i64 5920}
!103 = !{i64 5928}
!104 = !{i64 5932}
!105 = !{i64 5940}
!106 = !{i64 5968}
!107 = !{i64 5980}
!108 = !{i64 5984}
!109 = !{i64 6004}
!110 = !{i64 6008}
!111 = !{i64 6024}
!112 = !{i64 6052}
!113 = !{i64 6060}
!114 = !{i64 6068}
!115 = !{i64 6080}
!116 = !{i64 6088}
!117 = !{i64 6100}
!118 = !{i64 6108}
!119 = !{i64 6112}
!120 = !{i64 6120}
!121 = !{i64 6168}
!122 = !{i64 6180}
!123 = !{i64 6208}
!124 = !{i64 6220}
!125 = !{i64 6240}
!126 = !{i64 6260}
!127 = !{i64 6276}
!128 = !{i64 6280}
!129 = !{i64 6284}
!130 = !{i64 6296}
!131 = !{i64 6304}
!132 = !{i64 6312}
!133 = !{i64 6320}
!134 = !{i64 6336}
!135 = !{i64 6344}
!136 = !{i64 6356}
!137 = !{i64 6360}
!138 = !{i64 6384}
!139 = !{i64 6388}
!140 = !{i64 6404}
!141 = !{i64 6432}
!142 = !{i64 6444}
!143 = !{i64 6448}
!144 = !{i64 6456}
!145 = !{i64 6464}
!146 = !{i64 6472}
!147 = !{i64 6476}
!148 = !{i64 6488}
!149 = !{i64 6500}
!150 = !{i64 6516}
!151 = !{i64 6532}
!152 = !{i64 6536}
!153 = !{i64 6552}
!154 = !{i64 6556}
!155 = !{i64 6576}
!156 = !{i64 6584}
!157 = !{i64 6604}
!158 = !{i64 6616}
!159 = !{i64 6620}
!160 = !{i64 6624}
!161 = !{i64 6636}
!162 = !{i64 6640}
!163 = !{i64 6644}
!164 = !{i64 6660}
!165 = !{i64 6664}
!166 = !{i64 6680}
!167 = !{i64 6692}
!168 = !{i64 6712}
!169 = !{i64 6720}
!170 = !{i64 6820}
!171 = !{i64 6824}
!172 = !{i64 6828}
!173 = !{i64 6840}
!174 = !{i64 6844}
!175 = !{i64 6860}
!176 = !{i64 6864}
!177 = !{i64 6884}
!178 = !{i64 6900}
!179 = !{i64 6904}
!180 = !{i64 6920}
!181 = !{i64 6924}
!182 = !{i64 6928}
!183 = !{i64 6940}
!184 = !{i64 6960}
!185 = !{i64 6964}
!186 = !{i64 6976}
!187 = !{i64 6984}
!188 = !{i64 6988}
!189 = !{i64 6996}
!190 = !{i64 7040}
!191 = !{i64 7056}
!192 = !{i64 7080}
!193 = !{i64 7084}
!194 = !{i64 7100}
!195 = !{i64 7108}
!196 = !{i64 7096}
!197 = !{i64 7124}
!198 = !{i64 7136}
!199 = !{i64 7160}
!200 = !{i64 7164}
!201 = !{i64 7176}
!202 = !{i64 7196}
!203 = !{i64 7204}
!204 = !{i64 7260}
!205 = !{i64 7268}
!206 = !{i64 7244}
!207 = !{i64 7300}
!208 = !{i64 7328}
!209 = !{i64 7336}
!210 = !{i64 7352}
