source_filename = "test"
target datalayout = "e-m:e-p:64:64-i64:64-f80:128-n8:16:32:64-S128"

%sockaddr = type { i64, [14 x i8] }
%_Unwind_Exception = type { i32 }

@global_var_4fc8 = local_unnamed_addr global i64 0
@global_var_3009 = local_unnamed_addr constant [23 x i8] c"Error creating socket.\00"
@global_var_3020 = local_unnamed_addr constant [15 x i8] c"Connecting to \00"
@global_var_5160 = local_unnamed_addr global i64 0
@global_var_302f = local_unnamed_addr constant [4 x i8] c"...\00"
@global_var_3033 = local_unnamed_addr constant [28 x i8] c"Error connecting to server.\00"
@global_var_304f = local_unnamed_addr constant [9 x i8] c"ALL:!ADH\00"
@global_var_5010 = local_unnamed_addr constant [4 x i8] c"MD5\00"
@global_var_3058 = local_unnamed_addr constant [14 x i8] c"172.217.18.99\00"
@global_var_5278 = local_unnamed_addr global i64 0
@global_var_3066 = local_unnamed_addr constant [20 x i8] c"Error creating SSL.\00"
@global_var_3080 = local_unnamed_addr constant [44 x i8] c"Error creating SSL connection. Error Code: \00"
@global_var_30b0 = local_unnamed_addr constant [36 x i8] c"Call to SSL_get_verify_result is ok\00"
@global_var_5040 = local_unnamed_addr global i64 0
@global_var_30d8 = local_unnamed_addr constant [37 x i8] c"SSL communication established using \00"
@global_var_5280 = local_unnamed_addr global i64 0
@global_var_4c70 = global i64 9472
@global_var_4c80 = global i64 9408
@0 = external global i32
@global_var_5270 = local_unnamed_addr global i8 0

define i64 @_init() local_unnamed_addr {
dec_label_pc_2000:
  %rax.0.reg2mem = alloca i64, !insn.addr !0
  %0 = call i64 @__asm_endbr64(), !insn.addr !0
  %1 = load i64, i64* inttoptr (i64 20456 to i64*), align 8, !insn.addr !1
  %2 = icmp eq i64 %1, 0, !insn.addr !2
  store i64 0, i64* %rax.0.reg2mem, !insn.addr !3
  br i1 %2, label %dec_label_pc_2016, label %dec_label_pc_2014, !insn.addr !3

dec_label_pc_2014:                                ; preds = %dec_label_pc_2000
  call void @__gmon_start__(), !insn.addr !4
  store i64 ptrtoint (i32* @0 to i64), i64* %rax.0.reg2mem, !insn.addr !4
  br label %dec_label_pc_2016, !insn.addr !4

dec_label_pc_2016:                                ; preds = %dec_label_pc_2014, %dec_label_pc_2000
  %rax.0.reload = load i64, i64* %rax.0.reg2mem
  ret i64 %rax.0.reload, !insn.addr !5
}

define i64 @function_2220() local_unnamed_addr {
dec_label_pc_2220:
  %0 = alloca i64
  %1 = load i64, i64* %0
  %2 = call i64 @__asm_endbr64(), !insn.addr !6
  %3 = inttoptr i64 %1 to i64*, !insn.addr !7
  call void @__cxa_finalize(i64* %3), !insn.addr !7
  ret i64 ptrtoint (i32* @0 to i64), !insn.addr !7
}

define i64 @function_2230() local_unnamed_addr {
dec_label_pc_2230:
  %0 = alloca i64
  %1 = load i64, i64* %0
  %2 = call i64 @__asm_endbr64(), !insn.addr !8
  %3 = trunc i64 %1 to i16, !insn.addr !9
  %4 = call i16 @htons(i16 %3), !insn.addr !9
  %5 = sext i16 %4 to i64, !insn.addr !9
  ret i64 %5, !insn.addr !9
}

define i64 @function_2240() local_unnamed_addr {
dec_label_pc_2240:
  %0 = call i64 @__asm_endbr64(), !insn.addr !10
  %1 = call i64 @SSL_set_fd(), !insn.addr !11
  ret i64 %1, !insn.addr !11
}

define i64 @function_2250() local_unnamed_addr {
dec_label_pc_2250:
  %0 = alloca i64
  %1 = load i64, i64* %0
  %2 = load i64, i64* %0
  %3 = load i64, i64* %0
  %4 = call i64 @__asm_endbr64(), !insn.addr !12
  %5 = trunc i64 %1 to i32, !insn.addr !13
  %6 = trunc i64 %2 to i32, !insn.addr !13
  %7 = trunc i64 %3 to i32, !insn.addr !13
  %8 = call i32 @socket(i32 %5, i32 %6, i32 %7), !insn.addr !13
  %9 = sext i32 %8 to i64, !insn.addr !13
  ret i64 %9, !insn.addr !13

; uselistorder directives
  uselistorder i64* %0, { 2, 1, 0 }
}

define i64 @function_2260() local_unnamed_addr {
dec_label_pc_2260:
  %0 = call i64 @__asm_endbr64(), !insn.addr !14
  %1 = call i64 @SSL_new(), !insn.addr !15
  ret i64 %1, !insn.addr !15
}

define i64 @function_2270() local_unnamed_addr {
dec_label_pc_2270:
  %0 = call i64 @__asm_endbr64(), !insn.addr !16
  %1 = call i64 @_ZNKSt7__cxx1112basic_stringIcSt11char_traitsIcESaIcEE5c_strEv(), !insn.addr !17
  ret i64 %1, !insn.addr !17
}

define i64 @function_2280() local_unnamed_addr {
dec_label_pc_2280:
  %0 = call i64 @__asm_endbr64(), !insn.addr !18
  %1 = call i64 @OPENSSL_init_ssl(), !insn.addr !19
  ret i64 %1, !insn.addr !19
}

define i64 @function_2290() local_unnamed_addr {
dec_label_pc_2290:
  %0 = alloca i64
  %1 = load i64, i64* %0
  %2 = load i64, i64* %0
  %3 = load i64, i64* %0
  %4 = call i64 @__asm_endbr64(), !insn.addr !20
  %5 = inttoptr i64 %1 to i64*, !insn.addr !21
  %6 = trunc i64 %2 to i32, !insn.addr !21
  %7 = trunc i64 %3 to i32, !insn.addr !21
  %8 = call i64* @memset(i64* %5, i32 %6, i32 %7), !insn.addr !21
  %9 = ptrtoint i64* %8 to i64, !insn.addr !21
  ret i64 %9, !insn.addr !21

; uselistorder directives
  uselistorder i64* %0, { 2, 1, 0 }
}

define i64 @function_22a0() local_unnamed_addr {
dec_label_pc_22a0:
  %0 = call i64 @__asm_endbr64(), !insn.addr !22
  %1 = call i64 @ERR_get_error(), !insn.addr !23
  ret i64 %1, !insn.addr !23
}

define i64 @function_22b0() local_unnamed_addr {
dec_label_pc_22b0:
  %0 = call i64 @__asm_endbr64(), !insn.addr !24
  %1 = call i64 @_ZNSt7__cxx1112basic_stringIcSt11char_traitsIcESaIcEED1Ev(), !insn.addr !25
  ret i64 %1, !insn.addr !25
}

define i64 @function_22c0() local_unnamed_addr {
dec_label_pc_22c0:
  %0 = call i64 @__asm_endbr64(), !insn.addr !26
  %1 = call i64 @SSL_CIPHER_get_name(), !insn.addr !27
  ret i64 %1, !insn.addr !27
}

define i64 @function_22d0() local_unnamed_addr {
dec_label_pc_22d0:
  %0 = call i64 @__asm_endbr64(), !insn.addr !28
  %1 = call i64 @TLSv1_2_client_method(), !insn.addr !29
  ret i64 %1, !insn.addr !29
}

define i64 @function_22e0() local_unnamed_addr {
dec_label_pc_22e0:
  %0 = alloca i64
  %1 = load i64, i64* %0
  %2 = load i64, i64* %0
  %3 = load i64, i64* %0
  %4 = call i64 @__asm_endbr64(), !insn.addr !30
  %5 = trunc i64 %1 to i32, !insn.addr !31
  %6 = inttoptr i64 %2 to %sockaddr*, !insn.addr !31
  %7 = trunc i64 %3 to i32, !insn.addr !31
  %8 = call i32 @connect(i32 %5, %sockaddr* %6, i32 %7), !insn.addr !31
  %9 = sext i32 %8 to i64, !insn.addr !31
  ret i64 %9, !insn.addr !31

; uselistorder directives
  uselistorder i64* %0, { 2, 1, 0 }
}

define i64 @function_22f0() local_unnamed_addr {
dec_label_pc_22f0:
  %0 = alloca i64
  %1 = load i64, i64* %0
  %2 = load i64, i64* %0
  %3 = load i64, i64* %0
  %4 = call i64 @__asm_endbr64(), !insn.addr !32
  %5 = inttoptr i64 %1 to void (i64*)*, !insn.addr !33
  %6 = inttoptr i64 %2 to i64*, !insn.addr !33
  %7 = inttoptr i64 %3 to i64*, !insn.addr !33
  %8 = call i32 @__cxa_atexit(void (i64*)* %5, i64* %6, i64* %7), !insn.addr !33
  %9 = sext i32 %8 to i64, !insn.addr !33
  ret i64 %9, !insn.addr !33

; uselistorder directives
  uselistorder i64* %0, { 2, 1, 0 }
}

define i64 @function_2300() local_unnamed_addr {
dec_label_pc_2300:
  %0 = alloca i64
  %1 = load i64, i64* %0
  %2 = load i64, i64* %0
  %3 = call i64 @__asm_endbr64(), !insn.addr !34
  %4 = inttoptr i64 %1 to i64*, !insn.addr !35
  %5 = inttoptr i64 %2 to i64*, !insn.addr !35
  %6 = call i64 @_ZStlsIcSt11char_traitsIcESaIcEERSt13basic_ostreamIT_T0_ES7_RKNSt7__cxx1112basic_stringIS4_S5_T1_EE(i64* %4, i64* %5), !insn.addr !35
  ret i64 %6, !insn.addr !35

; uselistorder directives
  uselistorder i64* %0, { 1, 0 }
}

define i64 @function_2310() local_unnamed_addr {
dec_label_pc_2310:
  %0 = alloca i64
  %1 = load i64, i64* %0
  %2 = load i64, i64* %0
  %3 = call i64 @__asm_endbr64(), !insn.addr !36
  %4 = inttoptr i64 %1 to i64*, !insn.addr !37
  %5 = inttoptr i64 %2 to i8*, !insn.addr !37
  %6 = call i64 @_ZStlsISt11char_traitsIcEERSt13basic_ostreamIcT_ES5_PKc(i64* %4, i8* %5), !insn.addr !37
  ret i64 %6, !insn.addr !37

; uselistorder directives
  uselistorder i64* %0, { 1, 0 }
}

define i64 @function_2320() local_unnamed_addr {
dec_label_pc_2320:
  %0 = alloca i64
  %1 = load i64, i64* %0
  %2 = call i64 @__asm_endbr64(), !insn.addr !38
  %3 = inttoptr i64 %1 to i8*, !insn.addr !39
  %4 = call i32 @inet_addr(i8* %3), !insn.addr !39
  %5 = sext i32 %4 to i64, !insn.addr !39
  ret i64 %5, !insn.addr !39
}

define i64 @function_2330() local_unnamed_addr {
dec_label_pc_2330:
  %0 = alloca i64
  %1 = load i64, i64* %0
  %2 = call i64 @__asm_endbr64(), !insn.addr !40
  %3 = inttoptr i64 %1 to i64* (i64*)*, !insn.addr !41
  %4 = call i64 @_ZNSolsEPFRSoS_E(i64* (i64*)* %3), !insn.addr !41
  ret i64 %4, !insn.addr !41
}

define i64 @function_2340() local_unnamed_addr {
dec_label_pc_2340:
  %0 = call i64 @__asm_endbr64(), !insn.addr !42
  %1 = call i64 @_ZNSaIcED1Ev(), !insn.addr !43
  ret i64 %1, !insn.addr !43
}

define i64 @function_2350() local_unnamed_addr {
dec_label_pc_2350:
  %0 = call i64 @__asm_endbr64(), !insn.addr !44
  call void @__stack_chk_fail(), !insn.addr !45
  ret i64 ptrtoint (i32* @0 to i64), !insn.addr !45
}

define i64 @function_2360() local_unnamed_addr {
dec_label_pc_2360:
  %0 = call i64 @__asm_endbr64(), !insn.addr !46
  %1 = call i64 @SSL_CTX_new(), !insn.addr !47
  ret i64 %1, !insn.addr !47
}

define i64 @function_2370() local_unnamed_addr {
dec_label_pc_2370:
  %0 = call i64 @__asm_endbr64(), !insn.addr !48
  %1 = call i64 @SSL_connect(), !insn.addr !49
  ret i64 %1, !insn.addr !49
}

define i64 @function_2380() local_unnamed_addr {
dec_label_pc_2380:
  %0 = call i64 @__asm_endbr64(), !insn.addr !50
  %1 = call i64 @SSL_CTX_set_cipher_list(), !insn.addr !51
  ret i64 %1, !insn.addr !51
}

define i64 @function_2390() local_unnamed_addr {
dec_label_pc_2390:
  %0 = alloca i64
  %1 = load i64, i64* %0
  %2 = load i64, i64* %0
  %3 = call i64 @__asm_endbr64(), !insn.addr !52
  %4 = inttoptr i64 %1 to i8*, !insn.addr !53
  %5 = inttoptr i64 %2 to i64*, !insn.addr !53
  %6 = call i64 @_ZNSt7__cxx1112basic_stringIcSt11char_traitsIcESaIcEEC1EPKcRKS3_(i8* %4, i64* %5), !insn.addr !53
  ret i64 %6, !insn.addr !53

; uselistorder directives
  uselistorder i64* %0, { 1, 0 }
}

define i64 @function_23a0() local_unnamed_addr {
dec_label_pc_23a0:
  %0 = call i64 @__asm_endbr64(), !insn.addr !54
  %1 = call i64 @_ZNSt8ios_base4InitC1Ev(), !insn.addr !55
  ret i64 %1, !insn.addr !55
}

define i64 @function_23b0() local_unnamed_addr {
dec_label_pc_23b0:
  %0 = alloca i64
  %1 = load i64, i64* %0
  %2 = call i64 @__asm_endbr64(), !insn.addr !56
  %3 = inttoptr i64 %1 to i8*, !insn.addr !57
  %4 = call i32 @puts(i8* %3), !insn.addr !57
  %5 = sext i32 %4 to i64, !insn.addr !57
  ret i64 %5, !insn.addr !57
}

define i64 @function_23c0() local_unnamed_addr {
dec_label_pc_23c0:
  %0 = call i64 @__asm_endbr64(), !insn.addr !58
  %1 = call i64 @SSL_get_current_cipher(), !insn.addr !59
  ret i64 %1, !insn.addr !59
}

define i64 @function_23d0() local_unnamed_addr {
dec_label_pc_23d0:
  %0 = call i64 @__asm_endbr64(), !insn.addr !60
  %1 = call i64 @SSL_get_verify_result(), !insn.addr !61
  ret i64 %1, !insn.addr !61
}

define i64 @function_23e0() local_unnamed_addr {
dec_label_pc_23e0:
  %0 = alloca i64
  %1 = load i64, i64* %0
  %2 = call i64 @__asm_endbr64(), !insn.addr !62
  %3 = inttoptr i64 %1 to %_Unwind_Exception*, !insn.addr !63
  call void @_Unwind_Resume(%_Unwind_Exception* %3), !insn.addr !63
  ret i64 ptrtoint (i32* @0 to i64), !insn.addr !63

; uselistorder directives
  uselistorder i64 ptrtoint (i32* @0 to i64), { 1, 2, 3, 0 }
}

define i64 @function_23f0() local_unnamed_addr {
dec_label_pc_23f0:
  %0 = call i64 @__asm_endbr64(), !insn.addr !64
  %1 = call i64 @_ZNSaIcEC1Ev(), !insn.addr !65
  ret i64 %1, !insn.addr !65
}

define i64 @function_2400() local_unnamed_addr {
dec_label_pc_2400:
  %0 = call i64 @__asm_endbr64(), !insn.addr !66
  %1 = call i64 @SSL_CTX_set_verify(), !insn.addr !67
  ret i64 %1, !insn.addr !67
}

define i64 @function_2410() local_unnamed_addr {
dec_label_pc_2410:
  %0 = call i64 @__asm_endbr64(), !insn.addr !68
  %1 = call i64 @ERR_error_string(), !insn.addr !69
  ret i64 %1, !insn.addr !69
}

define i64 @_start(i64 %arg1, i64 %arg2, i64 %arg3, i64 %arg4) local_unnamed_addr {
dec_label_pc_2420:
  %stack_var_8 = alloca i64, align 8
  %0 = call i64 @__asm_endbr64(), !insn.addr !70
  %1 = trunc i64 %arg4 to i32, !insn.addr !71
  %2 = bitcast i64* %stack_var_8 to i8**, !insn.addr !71
  %3 = inttoptr i64 %arg3 to void ()*, !insn.addr !71
  %4 = call i32 @__libc_start_main(i64 10397, i32 %1, i8** nonnull %2, void ()* inttoptr (i64 11200 to void ()*), void ()* inttoptr (i64 11312 to void ()*), void ()* %3), !insn.addr !71
  %5 = call i64 @__asm_hlt(), !insn.addr !72
  unreachable, !insn.addr !72
}

define i64 @deregister_tm_clones() local_unnamed_addr {
dec_label_pc_2450:
  ret i64 20512, !insn.addr !73
}

define i64 @register_tm_clones() local_unnamed_addr {
dec_label_pc_2480:
  ret i64 0, !insn.addr !74
}

define i64 @__do_global_dtors_aux() local_unnamed_addr {
dec_label_pc_24c0:
  %0 = call i64 @__asm_endbr64(), !insn.addr !75
  %1 = load i8, i8* @global_var_5270, align 1, !insn.addr !76
  %2 = icmp eq i8 %1, 0, !insn.addr !76
  %3 = icmp eq i1 %2, false, !insn.addr !77
  br i1 %3, label %dec_label_pc_24f8, label %dec_label_pc_24cd, !insn.addr !77

dec_label_pc_24cd:                                ; preds = %dec_label_pc_24c0
  %4 = load i64, i64* @global_var_4fc8, align 8, !insn.addr !78
  %5 = icmp eq i64 %4, 0, !insn.addr !78
  br i1 %5, label %dec_label_pc_24e7, label %dec_label_pc_24db, !insn.addr !79

dec_label_pc_24db:                                ; preds = %dec_label_pc_24cd
  %6 = call i64 @function_2220(), !insn.addr !80
  br label %dec_label_pc_24e7, !insn.addr !80

dec_label_pc_24e7:                                ; preds = %dec_label_pc_24db, %dec_label_pc_24cd
  %7 = call i64 @deregister_tm_clones(), !insn.addr !81
  store i8 1, i8* @global_var_5270, align 1, !insn.addr !82
  ret i64 %7, !insn.addr !83

dec_label_pc_24f8:                                ; preds = %dec_label_pc_24c0
  ret i64 %0, !insn.addr !84

; uselistorder directives
  uselistorder i8 0, { 1, 0 }
  uselistorder i8* @global_var_5270, { 1, 0 }
}

define i64 @frame_dummy() local_unnamed_addr {
dec_label_pc_2500:
  %0 = call i64 @__asm_endbr64(), !insn.addr !85
  %1 = call i64 @register_tm_clones(), !insn.addr !86
  ret i64 %1, !insn.addr !86
}

define i64 @_Z9connectToNSt7__cxx1112basic_stringIcSt11char_traitsIcESaIcEEEi(i64 %arg1, i32 %arg2) local_unnamed_addr {
dec_label_pc_2509:
  %rax.1.reg2mem = alloca i64, !insn.addr !87
  %rax.0.reg2mem = alloca i64, !insn.addr !87
  %0 = call i64 @__asm_endbr64(), !insn.addr !87
  %1 = call i64 @__readfsqword(i64 40), !insn.addr !88
  %2 = call i64 @function_2250(), !insn.addr !89
  %3 = trunc i64 %2 to i32, !insn.addr !90
  %4 = icmp eq i32 %3, 0, !insn.addr !91
  %5 = icmp eq i1 %4, false, !insn.addr !92
  br i1 %5, label %dec_label_pc_255e, label %dec_label_pc_2548, !insn.addr !92

dec_label_pc_2548:                                ; preds = %dec_label_pc_2509
  %6 = call i64 @function_23b0(), !insn.addr !93
  store i64 4294967295, i64* %rax.0.reg2mem, !insn.addr !94
  br label %dec_label_pc_2640, !insn.addr !94

dec_label_pc_255e:                                ; preds = %dec_label_pc_2509
  %7 = call i64 @function_2310(), !insn.addr !95
  %8 = call i64 @function_2300(), !insn.addr !96
  %9 = call i64 @function_2310(), !insn.addr !97
  %10 = call i64 @function_2330(), !insn.addr !98
  %11 = call i64 @function_2290(), !insn.addr !99
  %12 = call i64 @function_2270(), !insn.addr !100
  %13 = call i64 @function_2320(), !insn.addr !101
  %14 = call i64 @function_2230(), !insn.addr !102
  %15 = call i64 @function_22e0(), !insn.addr !103
  %16 = trunc i64 %15 to i32, !insn.addr !104
  %17 = icmp eq i32 %16, 0, !insn.addr !104
  %18 = icmp eq i1 %17, false, !insn.addr !105
  %19 = icmp eq i1 %18, false, !insn.addr !106
  br i1 %19, label %dec_label_pc_263d, label %dec_label_pc_260e, !insn.addr !107

dec_label_pc_260e:                                ; preds = %dec_label_pc_255e
  %20 = call i64 @function_2310(), !insn.addr !108
  %21 = call i64 @function_2330(), !insn.addr !109
  store i64 4294967295, i64* %rax.0.reg2mem, !insn.addr !110
  br label %dec_label_pc_2640, !insn.addr !110

dec_label_pc_263d:                                ; preds = %dec_label_pc_255e
  %22 = and i64 %2, 4294967295, !insn.addr !111
  store i64 %22, i64* %rax.0.reg2mem, !insn.addr !111
  br label %dec_label_pc_2640, !insn.addr !111

dec_label_pc_2640:                                ; preds = %dec_label_pc_263d, %dec_label_pc_260e, %dec_label_pc_2548
  %rax.0.reload = load i64, i64* %rax.0.reg2mem
  %23 = call i64 @__readfsqword(i64 40), !insn.addr !112
  %24 = icmp eq i64 %1, %23, !insn.addr !112
  store i64 %rax.0.reload, i64* %rax.1.reg2mem, !insn.addr !113
  br i1 %24, label %dec_label_pc_2654, label %dec_label_pc_264f, !insn.addr !113

dec_label_pc_264f:                                ; preds = %dec_label_pc_2640
  %25 = call i64 @function_2350(), !insn.addr !114
  store i64 %25, i64* %rax.1.reg2mem, !insn.addr !114
  br label %dec_label_pc_2654, !insn.addr !114

dec_label_pc_2654:                                ; preds = %dec_label_pc_264f, %dec_label_pc_2640
  %rax.1.reload = load i64, i64* %rax.1.reg2mem
  ret i64 %rax.1.reload, !insn.addr !115

; uselistorder directives
  uselistorder i64* %rax.0.reg2mem, { 0, 3, 2, 1 }
}

define i64 @_Z23failDisableVerificationP10ssl_ctx_st(i64* %arg1) local_unnamed_addr {
dec_label_pc_2656:
  %0 = call i64 @__asm_endbr64(), !insn.addr !116
  %1 = call i64 @function_2400(), !insn.addr !117
  ret i64 %1, !insn.addr !118
}

define i64 @_Z22failSetInsecureCiphersP10ssl_ctx_st(i64* %arg1) local_unnamed_addr {
dec_label_pc_2681:
  %rax.0.reg2mem = alloca i64, !insn.addr !119
  %0 = call i64 @__asm_endbr64(), !insn.addr !119
  %1 = call i64 @__readfsqword(i64 40), !insn.addr !120
  %2 = call i64 @function_2380(), !insn.addr !121
  %3 = call i64 @__readfsqword(i64 40), !insn.addr !122
  %4 = icmp eq i64 %1, %3, !insn.addr !122
  store i64 0, i64* %rax.0.reg2mem, !insn.addr !123
  br i1 %4, label %dec_label_pc_26da, label %dec_label_pc_26d5, !insn.addr !123

dec_label_pc_26d5:                                ; preds = %dec_label_pc_2681
  %5 = call i64 @function_2350(), !insn.addr !124
  store i64 %5, i64* %rax.0.reg2mem, !insn.addr !124
  br label %dec_label_pc_26da, !insn.addr !124

dec_label_pc_26da:                                ; preds = %dec_label_pc_26d5, %dec_label_pc_2681
  %rax.0.reload = load i64, i64* %rax.0.reg2mem
  ret i64 %rax.0.reload, !insn.addr !125
}

define i64 @_Z29failSetInsecureCiphersLiteralP10ssl_ctx_st(i64* %arg1) local_unnamed_addr {
dec_label_pc_26dc:
  %0 = call i64 @__asm_endbr64(), !insn.addr !126
  %1 = call i64 @function_2380(), !insn.addr !127
  ret i64 %1, !insn.addr !128
}

define i64 @_Z25failSetInsecureCiphersSTLP10ssl_ctx_st(i64* %arg1) local_unnamed_addr {
dec_label_pc_2702:
  %rax.0.reg2mem = alloca i64, !insn.addr !129
  %0 = call i64 @__asm_endbr64(), !insn.addr !129
  %1 = call i64 @__readfsqword(i64 40), !insn.addr !130
  %2 = call i64 @function_23f0(), !insn.addr !131
  %3 = call i64 @function_2390(), !insn.addr !132
  %4 = call i64 @function_2340(), !insn.addr !133
  %5 = call i64 @function_2270(), !insn.addr !134
  %6 = call i64 @function_2380(), !insn.addr !135
  %7 = call i64 @function_22b0(), !insn.addr !136
  %8 = call i64 @__readfsqword(i64 40), !insn.addr !137
  %9 = icmp eq i64 %1, %8, !insn.addr !137
  store i64 0, i64* %rax.0.reg2mem, !insn.addr !138
  br i1 %9, label %dec_label_pc_27ce, label %dec_label_pc_27c9, !insn.addr !138

dec_label_pc_27c9:                                ; preds = %dec_label_pc_2702
  %10 = call i64 @function_2350(), !insn.addr !139
  store i64 %10, i64* %rax.0.reg2mem, !insn.addr !139
  br label %dec_label_pc_27ce, !insn.addr !139

dec_label_pc_27ce:                                ; preds = %dec_label_pc_27c9, %dec_label_pc_2702
  %rax.0.reload = load i64, i64* %rax.0.reg2mem
  ret i64 %rax.0.reload, !insn.addr !140

; uselistorder directives
  uselistorder i64 ()* @function_2270, { 1, 0 }
}

define i64 @_Z28failSetInsecureCiphersGlobalP10ssl_ctx_st(i64* %arg1) local_unnamed_addr {
dec_label_pc_27d5:
  %0 = call i64 @__asm_endbr64(), !insn.addr !141
  %1 = call i64 @function_2380(), !insn.addr !142
  ret i64 %1, !insn.addr !143

; uselistorder directives
  uselistorder i64 ()* @function_2380, { 3, 2, 1, 0 }
}

define i64 @_Z29failDisableVerificationLambdaP10ssl_ctx_st(i64* %arg1) local_unnamed_addr {
dec_label_pc_27fb:
  %0 = call i64 @__asm_endbr64(), !insn.addr !144
  ret i64 %0, !insn.addr !145
}

define i64 @_Z14initTLSContextv() local_unnamed_addr {
dec_label_pc_280a:
  %0 = call i64 @__asm_endbr64(), !insn.addr !146
  %1 = call i64 @function_2280(), !insn.addr !147
  %2 = call i64 @function_2280(), !insn.addr !148
  %3 = call i64 @function_22d0(), !insn.addr !149
  %4 = call i64 @function_2360(), !insn.addr !150
  %5 = inttoptr i64 %4 to i64*, !insn.addr !151
  %6 = call i64 @_Z22failSetInsecureCiphersP10ssl_ctx_st(i64* %5), !insn.addr !151
  %7 = call i64 @_Z29failSetInsecureCiphersLiteralP10ssl_ctx_st(i64* %5), !insn.addr !152
  %8 = call i64 @_Z25failSetInsecureCiphersSTLP10ssl_ctx_st(i64* %5), !insn.addr !153
  %9 = call i64 @_Z28failSetInsecureCiphersGlobalP10ssl_ctx_st(i64* %5), !insn.addr !154
  %10 = call i64 @function_2400(), !insn.addr !155
  %11 = call i64 @_Z23failDisableVerificationP10ssl_ctx_st(i64* %5), !insn.addr !156
  ret i64 %4, !insn.addr !157

; uselistorder directives
  uselistorder i64 ()* @function_2400, { 1, 0 }
  uselistorder i64 ()* @function_2280, { 1, 0 }
}

define i64 @main(i64 %argc, i8** %argv) local_unnamed_addr {
dec_label_pc_289d:
  %rax.1.reg2mem = alloca i64, !insn.addr !158
  %rax.0.reg2mem = alloca i64, !insn.addr !158
  %stack_var_-72 = alloca i64, align 8
  %0 = call i64 @__asm_endbr64(), !insn.addr !158
  %1 = call i64 @__readfsqword(i64 40), !insn.addr !159
  %2 = call i64 @function_23f0(), !insn.addr !160
  %3 = call i64 @function_2390(), !insn.addr !161
  %4 = ptrtoint i64* %stack_var_-72 to i64, !insn.addr !162
  %5 = call i64 @_Z9connectToNSt7__cxx1112basic_stringIcSt11char_traitsIcESaIcEEEi(i64 %4, i32 2), !insn.addr !163
  %6 = trunc i64 %5 to i32, !insn.addr !164
  %7 = call i64 @function_22b0(), !insn.addr !165
  %8 = call i64 @function_2340(), !insn.addr !166
  %9 = icmp slt i32 %6, 0, !insn.addr !167
  %10 = icmp eq i1 %9, false, !insn.addr !168
  store i64 4294967295, i64* %rax.0.reg2mem, !insn.addr !168
  br i1 %10, label %dec_label_pc_291f, label %dec_label_pc_2aea, !insn.addr !168

dec_label_pc_291f:                                ; preds = %dec_label_pc_289d
  %11 = call i64 @_Z14initTLSContextv(), !insn.addr !169
  %12 = call i64 @function_2260(), !insn.addr !170
  store i64 %12, i64* @global_var_5278, align 8, !insn.addr !171
  %13 = icmp eq i64 %12, 0, !insn.addr !172
  %14 = icmp eq i1 %13, false, !insn.addr !173
  br i1 %14, label %dec_label_pc_2979, label %dec_label_pc_2947, !insn.addr !173

dec_label_pc_2947:                                ; preds = %dec_label_pc_291f
  %15 = call i64 @function_2310(), !insn.addr !174
  %16 = call i64 @function_2330(), !insn.addr !175
  store i64 4294967295, i64* %rax.0.reg2mem, !insn.addr !176
  br label %dec_label_pc_2aea, !insn.addr !176

dec_label_pc_2979:                                ; preds = %dec_label_pc_291f
  %17 = call i64 @function_2240(), !insn.addr !177
  %18 = call i64 @function_2370(), !insn.addr !178
  %19 = trunc i64 %18 to i32, !insn.addr !179
  %20 = icmp eq i32 %19, 0, !insn.addr !180
  %21 = icmp slt i32 %19, 0, !insn.addr !180
  %22 = icmp eq i1 %21, false, !insn.addr !181
  %23 = icmp eq i1 %20, false, !insn.addr !181
  %24 = icmp eq i1 %22, %23, !insn.addr !181
  br i1 %24, label %dec_label_pc_2a57, label %dec_label_pc_29a5, !insn.addr !181

dec_label_pc_29a5:                                ; preds = %dec_label_pc_2979
  %25 = call i64 @function_22a0(), !insn.addr !182
  %26 = call i64 @function_2310(), !insn.addr !183
  %27 = call i64 @function_2410(), !insn.addr !184
  %28 = call i64 @function_2310(), !insn.addr !185
  %29 = call i64 @function_2330(), !insn.addr !186
  store i64 4294967295, i64* %rax.0.reg2mem, !insn.addr !187
  br label %dec_label_pc_2aea, !insn.addr !187

dec_label_pc_2a57:                                ; preds = %dec_label_pc_2979
  %30 = call i64 @function_23d0(), !insn.addr !188
  %31 = icmp eq i64 %30, 0, !insn.addr !189
  %32 = icmp eq i1 %31, false, !insn.addr !190
  br i1 %32, label %dec_label_pc_2a98, label %dec_label_pc_2a70, !insn.addr !191

dec_label_pc_2a70:                                ; preds = %dec_label_pc_2a57
  %33 = call i64 @function_2310(), !insn.addr !192
  %34 = call i64 @function_2330(), !insn.addr !193
  br label %dec_label_pc_2a98, !insn.addr !193

dec_label_pc_2a98:                                ; preds = %dec_label_pc_2a70, %dec_label_pc_2a57
  %35 = call i64 @function_2310(), !insn.addr !194
  %36 = call i64 @function_23c0(), !insn.addr !195
  %37 = call i64 @function_22c0(), !insn.addr !196
  %38 = call i64 @function_2310(), !insn.addr !197
  %39 = call i64 @function_2330(), !insn.addr !198
  store i64 0, i64* %rax.0.reg2mem, !insn.addr !199
  br label %dec_label_pc_2aea, !insn.addr !199

dec_label_pc_2aea:                                ; preds = %dec_label_pc_289d, %dec_label_pc_2a98, %dec_label_pc_29a5, %dec_label_pc_2947
  %rax.0.reload = load i64, i64* %rax.0.reg2mem
  %40 = call i64 @__readfsqword(i64 40), !insn.addr !200
  %41 = icmp eq i64 %1, %40, !insn.addr !200
  store i64 %rax.0.reload, i64* %rax.1.reg2mem, !insn.addr !201
  br i1 %41, label %dec_label_pc_2b33, label %dec_label_pc_2b2e, !insn.addr !201

dec_label_pc_2b2e:                                ; preds = %dec_label_pc_2aea
  %42 = call i64 @function_2350(), !insn.addr !202
  store i64 %42, i64* %rax.1.reg2mem, !insn.addr !202
  br label %dec_label_pc_2b33, !insn.addr !202

dec_label_pc_2b33:                                ; preds = %dec_label_pc_2b2e, %dec_label_pc_2aea
  %rax.1.reload = load i64, i64* %rax.1.reg2mem
  ret i64 %rax.1.reload, !insn.addr !203

; uselistorder directives
  uselistorder i32 %19, { 1, 0 }
  uselistorder i64* %rax.0.reg2mem, { 0, 4, 3, 2, 1 }
  uselistorder i64 ()* @function_2350, { 3, 2, 1, 0 }
  uselistorder i64 ()* @function_2330, { 5, 4, 3, 2, 1, 0 }
  uselistorder i64 ()* @function_2310, { 8, 7, 6, 5, 4, 3, 2, 1, 0 }
  uselistorder i64 4294967295, { 2, 1, 0, 5, 4, 3 }
  uselistorder i64 ()* @function_2340, { 1, 0 }
  uselistorder i64 ()* @function_22b0, { 1, 0 }
  uselistorder i64 ()* @function_2390, { 1, 0 }
  uselistorder i64 ()* @function_23f0, { 1, 0 }
  uselistorder label %dec_label_pc_2aea, { 1, 2, 3, 0 }
}

define i64 @_Z10callMeBackiP17x509_store_ctx_st(i32 %arg1, i64* %arg2) local_unnamed_addr {
dec_label_pc_2b3a:
  %0 = call i64 @__asm_endbr64(), !insn.addr !204
  ret i64 1, !insn.addr !205
}

define i64 @_Z41__static_initialization_and_destruction_0ii(i32 %arg1, i32 %arg2) local_unnamed_addr {
dec_label_pc_2b50:
  %rax.0.reg2mem = alloca i64, !insn.addr !206
  %0 = call i64 @__asm_endbr64(), !insn.addr !206
  %1 = icmp eq i32 %arg1, 1, !insn.addr !207
  %2 = icmp eq i32 %arg2, 65535, !insn.addr !208
  %3 = icmp eq i1 %1, %2
  store i64 %0, i64* %rax.0.reg2mem, !insn.addr !209
  br i1 %3, label %dec_label_pc_2b71, label %dec_label_pc_2b9a, !insn.addr !209

dec_label_pc_2b71:                                ; preds = %dec_label_pc_2b50
  %4 = call i64 @function_23a0(), !insn.addr !210
  %5 = call i64 @function_22f0(), !insn.addr !211
  store i64 %5, i64* %rax.0.reg2mem, !insn.addr !211
  br label %dec_label_pc_2b9a, !insn.addr !211

dec_label_pc_2b9a:                                ; preds = %dec_label_pc_2b50, %dec_label_pc_2b71
  %rax.0.reload = load i64, i64* %rax.0.reg2mem
  ret i64 %rax.0.reload, !insn.addr !212

; uselistorder directives
  uselistorder label %dec_label_pc_2b9a, { 1, 0 }
}

define i64 @_GLOBAL__sub_I_ssl() local_unnamed_addr {
dec_label_pc_2b9d:
  %0 = call i64 @__asm_endbr64(), !insn.addr !213
  %1 = call i64 @_Z41__static_initialization_and_destruction_0ii(i32 1, i32 65535), !insn.addr !214
  ret i64 %1, !insn.addr !215

; uselistorder directives
  uselistorder i32 65535, { 1, 0 }
}

define i64 @__libc_csu_init(i64 %arg1, i64 %arg2, i64 %arg3) local_unnamed_addr {
dec_label_pc_2bc0:
  %rbx.0.reg2mem = alloca i64, !insn.addr !216
  %0 = call i64 @__asm_endbr64(), !insn.addr !216
  %1 = call i64 @_init(), !insn.addr !217
  store i64 0, i64* %rbx.0.reg2mem, !insn.addr !218
  br i1 icmp eq (i64 ashr (i64 sub (i64 ptrtoint (i64* @global_var_4c80 to i64), i64 ptrtoint (i64* @global_var_4c70 to i64)), i64 3), i64 0), label %dec_label_pc_2c16, label %dec_label_pc_2c00, !insn.addr !218

dec_label_pc_2c00:                                ; preds = %dec_label_pc_2bc0, %dec_label_pc_2c00
  %rbx.0.reload = load i64, i64* %rbx.0.reg2mem
  %2 = add i64 %rbx.0.reload, 1, !insn.addr !219
  %3 = icmp eq i64 %2, ashr (i64 sub (i64 ptrtoint (i64* @global_var_4c80 to i64), i64 ptrtoint (i64* @global_var_4c70 to i64)), i64 3), !insn.addr !220
  %4 = icmp eq i1 %3, false, !insn.addr !221
  store i64 %2, i64* %rbx.0.reg2mem, !insn.addr !221
  br i1 %4, label %dec_label_pc_2c00, label %dec_label_pc_2c16, !insn.addr !221

dec_label_pc_2c16:                                ; preds = %dec_label_pc_2c00, %dec_label_pc_2bc0
  ret i64 %1, !insn.addr !222

; uselistorder directives
  uselistorder i64* %rbx.0.reg2mem, { 2, 0, 1 }
  uselistorder i1 false, { 3, 0, 4, 1, 5, 6, 2, 7, 8, 9 }
  uselistorder i64 1, { 1, 0 }
  uselistorder i64 0, { 6, 0, 1, 12, 13, 2, 3, 14, 5, 4, 15, 7, 8, 9, 10, 11 }
  uselistorder i32 1, { 13, 22, 23, 14, 24, 16, 15, 17, 18, 20, 19, 25, 12, 11, 10, 9, 8, 7, 6, 5, 4, 3, 2, 1, 0, 21 }
  uselistorder label %dec_label_pc_2c00, { 1, 0 }
}

define i64 @__libc_csu_fini() local_unnamed_addr {
dec_label_pc_2c30:
  %0 = call i64 @__asm_endbr64(), !insn.addr !223
  ret i64 %0, !insn.addr !224
}

define i64 @_fini() local_unnamed_addr {
dec_label_pc_2c38:
  %0 = call i64 @__asm_endbr64(), !insn.addr !225
  ret i64 %0, !insn.addr !226

; uselistorder directives
  uselistorder i64 ()* @__asm_endbr64, { 49, 48, 47, 46, 43, 42, 33, 29, 28, 27, 22, 21, 19, 17, 5, 4, 2, 0, 41, 18, 26, 50, 40, 39, 16, 45, 25, 20, 38, 32, 15, 24, 14, 13, 12, 11, 44, 10, 31, 37, 23, 36, 9, 30, 8, 35, 7, 34, 6, 3, 1 }
}

declare i16 @htons(i16) local_unnamed_addr

declare i64 @SSL_set_fd() local_unnamed_addr

declare i32 @socket(i32, i32, i32) local_unnamed_addr

declare i64 @SSL_new() local_unnamed_addr

declare i64 @_ZNKSt7__cxx1112basic_stringIcSt11char_traitsIcESaIcEE5c_strEv() local_unnamed_addr

declare i64 @OPENSSL_init_ssl() local_unnamed_addr

declare i64* @memset(i64*, i32, i32) local_unnamed_addr

declare i64 @ERR_get_error() local_unnamed_addr

declare i64 @_ZNSt7__cxx1112basic_stringIcSt11char_traitsIcESaIcEED1Ev() local_unnamed_addr

declare i64 @SSL_CIPHER_get_name() local_unnamed_addr

declare i64 @TLSv1_2_client_method() local_unnamed_addr

declare i32 @connect(i32, %sockaddr*, i32) local_unnamed_addr

declare i32 @__cxa_atexit(void (i64*)*, i64*, i64*) local_unnamed_addr

declare i64 @_ZStlsIcSt11char_traitsIcESaIcEERSt13basic_ostreamIT_T0_ES7_RKNSt7__cxx1112basic_stringIS4_S5_T1_EE(i64*, i64*) local_unnamed_addr

declare i64 @_ZStlsISt11char_traitsIcEERSt13basic_ostreamIcT_ES5_PKc(i64*, i8*) local_unnamed_addr

declare i32 @inet_addr(i8*) local_unnamed_addr

declare i64 @_ZNSolsEPFRSoS_E(i64* (i64*)*) local_unnamed_addr

declare i64 @_ZNSaIcED1Ev() local_unnamed_addr

declare void @__stack_chk_fail() local_unnamed_addr

declare i64 @SSL_CTX_new() local_unnamed_addr

declare i64 @SSL_connect() local_unnamed_addr

declare i64 @SSL_CTX_set_cipher_list() local_unnamed_addr

declare i64 @_ZNSt7__cxx1112basic_stringIcSt11char_traitsIcESaIcEEC1EPKcRKS3_(i8*, i64*) local_unnamed_addr

declare i64 @_ZNSt8ios_base4InitC1Ev() local_unnamed_addr

declare i32 @puts(i8*) local_unnamed_addr

declare i64 @SSL_get_current_cipher() local_unnamed_addr

declare i64 @SSL_get_verify_result() local_unnamed_addr

declare void @_Unwind_Resume(%_Unwind_Exception*) local_unnamed_addr

declare i64 @_ZNSaIcEC1Ev() local_unnamed_addr

declare i64 @SSL_CTX_set_verify() local_unnamed_addr

declare i64 @ERR_error_string() local_unnamed_addr

declare void @__cxa_finalize(i64*) local_unnamed_addr

declare i32 @__libc_start_main(i64, i32, i8**, void ()*, void ()*, void ()*) local_unnamed_addr

declare void @__gmon_start__() local_unnamed_addr

declare i64 @__asm_endbr64() local_unnamed_addr

declare i64 @__asm_hlt() local_unnamed_addr

declare i64 @__readfsqword(i64) local_unnamed_addr

!0 = !{i64 8192}
!1 = !{i64 8200}
!2 = !{i64 8207}
!3 = !{i64 8210}
!4 = !{i64 8212}
!5 = !{i64 8218}
!6 = !{i64 8736}
!7 = !{i64 8740}
!8 = !{i64 8752}
!9 = !{i64 8756}
!10 = !{i64 8768}
!11 = !{i64 8772}
!12 = !{i64 8784}
!13 = !{i64 8788}
!14 = !{i64 8800}
!15 = !{i64 8804}
!16 = !{i64 8816}
!17 = !{i64 8820}
!18 = !{i64 8832}
!19 = !{i64 8836}
!20 = !{i64 8848}
!21 = !{i64 8852}
!22 = !{i64 8864}
!23 = !{i64 8868}
!24 = !{i64 8880}
!25 = !{i64 8884}
!26 = !{i64 8896}
!27 = !{i64 8900}
!28 = !{i64 8912}
!29 = !{i64 8916}
!30 = !{i64 8928}
!31 = !{i64 8932}
!32 = !{i64 8944}
!33 = !{i64 8948}
!34 = !{i64 8960}
!35 = !{i64 8964}
!36 = !{i64 8976}
!37 = !{i64 8980}
!38 = !{i64 8992}
!39 = !{i64 8996}
!40 = !{i64 9008}
!41 = !{i64 9012}
!42 = !{i64 9024}
!43 = !{i64 9028}
!44 = !{i64 9040}
!45 = !{i64 9044}
!46 = !{i64 9056}
!47 = !{i64 9060}
!48 = !{i64 9072}
!49 = !{i64 9076}
!50 = !{i64 9088}
!51 = !{i64 9092}
!52 = !{i64 9104}
!53 = !{i64 9108}
!54 = !{i64 9120}
!55 = !{i64 9124}
!56 = !{i64 9136}
!57 = !{i64 9140}
!58 = !{i64 9152}
!59 = !{i64 9156}
!60 = !{i64 9168}
!61 = !{i64 9172}
!62 = !{i64 9184}
!63 = !{i64 9188}
!64 = !{i64 9200}
!65 = !{i64 9204}
!66 = !{i64 9216}
!67 = !{i64 9220}
!68 = !{i64 9232}
!69 = !{i64 9236}
!70 = !{i64 9248}
!71 = !{i64 9288}
!72 = !{i64 9294}
!73 = !{i64 9336}
!74 = !{i64 9400}
!75 = !{i64 9408}
!76 = !{i64 9412}
!77 = !{i64 9419}
!78 = !{i64 9422}
!79 = !{i64 9433}
!80 = !{i64 9442}
!81 = !{i64 9447}
!82 = !{i64 9452}
!83 = !{i64 9460}
!84 = !{i64 9464}
!85 = !{i64 9472}
!86 = !{i64 9476}
!87 = !{i64 9481}
!88 = !{i64 9500}
!89 = !{i64 9530}
!90 = !{i64 9535}
!91 = !{i64 9538}
!92 = !{i64 9542}
!93 = !{i64 9551}
!94 = !{i64 9561}
!95 = !{i64 9580}
!96 = !{i64 9598}
!97 = !{i64 9613}
!98 = !{i64 9634}
!99 = !{i64 9656}
!100 = !{i64 9674}
!101 = !{i64 9682}
!102 = !{i64 9695}
!103 = !{i64 9728}
!104 = !{i64 9733}
!105 = !{i64 9735}
!106 = !{i64 9738}
!107 = !{i64 9740}
!108 = !{i64 9756}
!109 = !{i64 9777}
!110 = !{i64 9787}
!111 = !{i64 9789}
!112 = !{i64 9796}
!113 = !{i64 9805}
!114 = !{i64 9807}
!115 = !{i64 9813}
!116 = !{i64 9814}
!117 = !{i64 9849}
!118 = !{i64 9856}
!119 = !{i64 9857}
!120 = !{i64 9873}
!121 = !{i64 9920}
!122 = !{i64 9930}
!123 = !{i64 9939}
!124 = !{i64 9941}
!125 = !{i64 9947}
!126 = !{i64 9948}
!127 = !{i64 9978}
!128 = !{i64 9985}
!129 = !{i64 9986}
!130 = !{i64 10003}
!131 = !{i64 10025}
!132 = !{i64 10048}
!133 = !{i64 10060}
!134 = !{i64 10072}
!135 = !{i64 10090}
!136 = !{i64 10102}
!137 = !{i64 10112}
!138 = !{i64 10121}
!139 = !{i64 10185}
!140 = !{i64 10196}
!141 = !{i64 10197}
!142 = !{i64 10227}
!143 = !{i64 10234}
!144 = !{i64 10235}
!145 = !{i64 10249}
!146 = !{i64 10250}
!147 = !{i64 10272}
!148 = !{i64 10287}
!149 = !{i64 10292}
!150 = !{i64 10300}
!151 = !{i64 10316}
!152 = !{i64 10328}
!153 = !{i64 10340}
!154 = !{i64 10352}
!155 = !{i64 10374}
!156 = !{i64 10386}
!157 = !{i64 10396}
!158 = !{i64 10397}
!159 = !{i64 10417}
!160 = !{i64 10439}
!161 = !{i64 10462}
!162 = !{i64 10476}
!163 = !{i64 10479}
!164 = !{i64 10484}
!165 = !{i64 10494}
!166 = !{i64 10506}
!167 = !{i64 10511}
!168 = !{i64 10515}
!169 = !{i64 10527}
!170 = !{i64 10543}
!171 = !{i64 10548}
!172 = !{i64 10562}
!173 = !{i64 10565}
!174 = !{i64 10581}
!175 = !{i64 10602}
!176 = !{i64 10612}
!177 = !{i64 10632}
!178 = !{i64 10647}
!179 = !{i64 10652}
!180 = !{i64 10655}
!181 = !{i64 10659}
!182 = !{i64 10661}
!183 = !{i64 10683}
!184 = !{i64 10704}
!185 = !{i64 10715}
!186 = !{i64 10736}
!187 = !{i64 10746}
!188 = !{i64 10849}
!189 = !{i64 10854}
!190 = !{i64 10860}
!191 = !{i64 10862}
!192 = !{i64 10878}
!193 = !{i64 10899}
!194 = !{i64 10918}
!195 = !{i64 10936}
!196 = !{i64 10944}
!197 = !{i64 10955}
!198 = !{i64 10976}
!199 = !{i64 10981}
!200 = !{i64 10990}
!201 = !{i64 10999}
!202 = !{i64 11054}
!203 = !{i64 11065}
!204 = !{i64 11066}
!205 = !{i64 11087}
!206 = !{i64 11088}
!207 = !{i64 11106}
!208 = !{i64 11112}
!209 = !{i64 11110}
!210 = !{i64 11128}
!211 = !{i64 11157}
!212 = !{i64 11164}
!213 = !{i64 11165}
!214 = !{i64 11183}
!215 = !{i64 11189}
!216 = !{i64 11200}
!217 = !{i64 11244}
!218 = !{i64 11253}
!219 = !{i64 11277}
!220 = !{i64 11281}
!221 = !{i64 11284}
!222 = !{i64 11300}
!223 = !{i64 11312}
!224 = !{i64 11316}
!225 = !{i64 11320}
!226 = !{i64 11332}
