source_filename = "test"
target datalayout = "e-m:e-p:64:64-i64:64-f80:128-n8:16:32:64-S128"

%sockaddr = type { i64, [14 x i8] }

@global_var_403ff8 = local_unnamed_addr global i64 0
@global_var_404378 = local_unnamed_addr global i64 0
@global_var_404128 = local_unnamed_addr global i64 0
@global_var_402004 = constant [24 x i8] c"Error creating socket.\0A\00"
@global_var_404260 = global i64 0
@global_var_40201c = constant [15 x i8] c"Connecting to \00"
@global_var_40202b = constant [4 x i8] c"...\00"
@global_var_40202f = constant [28 x i8] c"Error connecting to server.\00"
@global_var_40204b = constant [9 x i8] c"ALL:!ADH\00"
@global_var_402053 = local_unnamed_addr constant i64 3977015119937220864
@global_var_404130 = constant [4 x i8] c"MD5\00"
@global_var_402054 = constant [14 x i8] c"172.217.18.99\00"
@global_var_404380 = local_unnamed_addr global i64 0
@global_var_402062 = constant [20 x i8] c"Error creating SSL.\00"
@global_var_402076 = constant [44 x i8] c"Error creating SSL connection. Error Code: \00"
@global_var_404140 = global i64 0
@global_var_4020a2 = constant [36 x i8] c"Call to SSL_get_verify_result is ok\00"
@global_var_4020c6 = constant [37 x i8] c"SSL communication established using \00"
@global_var_403db8 = local_unnamed_addr global i64 4199280
@global_var_403dc8 = local_unnamed_addr global i64 4199232
@global_var_404370 = local_unnamed_addr global i8 0

define i64 @function_401050(i64 %arg1, i32 %arg2) local_unnamed_addr {
dec_label_pc_401050:
  %0 = call i64 @SSL_set_fd(), !insn.addr !0
  ret i64 %0, !insn.addr !0
}

define i64 @function_401070(i64 %arg1) local_unnamed_addr {
dec_label_pc_401070:
  %0 = call i64 @SSL_new(), !insn.addr !1
  ret i64 %0, !insn.addr !1
}

define i64 @function_4010a0(i64 %arg1, i64 %arg2, i64 %arg3) local_unnamed_addr {
dec_label_pc_4010a0:
  %0 = call i64 @OPENSSL_init_ssl(), !insn.addr !2
  ret i64 %0, !insn.addr !2
}

define i64 @function_4010c0() local_unnamed_addr {
dec_label_pc_4010c0:
  %0 = call i64 @ERR_get_error(), !insn.addr !3
  ret i64 %0, !insn.addr !3
}

define i64 @function_4010e0(i64 %arg1) local_unnamed_addr {
dec_label_pc_4010e0:
  %0 = call i64 @SSL_CIPHER_get_name(), !insn.addr !4
  ret i64 %0, !insn.addr !4
}

define i64 @function_4010f0() local_unnamed_addr {
dec_label_pc_4010f0:
  %0 = call i64 @TLSv1_2_client_method(), !insn.addr !5
  ret i64 %0, !insn.addr !5
}

define i64 @function_401170(i64 %arg1) local_unnamed_addr {
dec_label_pc_401170:
  %0 = call i64 @SSL_CTX_new(), !insn.addr !6
  ret i64 %0, !insn.addr !6
}

define i64 @function_401180(i64 %arg1) local_unnamed_addr {
dec_label_pc_401180:
  %0 = call i64 @SSL_connect(), !insn.addr !7
  ret i64 %0, !insn.addr !7
}

define i64 @function_401190(i64 %arg1, i64* %arg2) local_unnamed_addr {
dec_label_pc_401190:
  %0 = call i64 @SSL_CTX_set_cipher_list(), !insn.addr !8
  ret i64 %0, !insn.addr !8
}

define i64 @function_4011c0(i64 %arg1) local_unnamed_addr {
dec_label_pc_4011c0:
  %0 = call i64 @SSL_get_current_cipher(), !insn.addr !9
  ret i64 %0, !insn.addr !9
}

define i64 @function_4011e0(i64 %arg1) local_unnamed_addr {
dec_label_pc_4011e0:
  %0 = call i64 @SSL_get_verify_result(), !insn.addr !10
  ret i64 %0, !insn.addr !10
}

define i64 @function_401210(i64 %arg1, i64 %arg2, i64 %arg3) local_unnamed_addr {
dec_label_pc_401210:
  %0 = call i64 @SSL_CTX_set_verify(), !insn.addr !11
  ret i64 %0, !insn.addr !11
}

define i64 @function_401220(i32 %arg1, i64 %arg2) local_unnamed_addr {
dec_label_pc_401220:
  %0 = call i64 @ERR_error_string(), !insn.addr !12
  ret i64 %0, !insn.addr !12
}

define i64 @_Z9connectToNSt7__cxx1112basic_stringIcSt11char_traitsIcESaIcEEEi(i64* %result, i64 %arg2, i32 %arg3) local_unnamed_addr {
dec_label_pc_401380:
  %stack_var_-12.0.reg2mem = alloca i64, !insn.addr !13
  %stack_var_-40 = alloca i64, align 8
  %0 = call i32 @socket(i32 2, i32 1, i32 0), !insn.addr !14
  %1 = icmp eq i32 %0, 0, !insn.addr !15
  %2 = icmp eq i1 %1, false, !insn.addr !16
  br i1 %2, label %dec_label_pc_4013cc, label %dec_label_pc_4013af, !insn.addr !16

dec_label_pc_4013af:                              ; preds = %dec_label_pc_401380
  %3 = call i32 (i8*, ...) @printf(i8* getelementptr inbounds ([24 x i8], [24 x i8]* @global_var_402004, i64 0, i64 0)), !insn.addr !17
  store i64 4294967295, i64* %stack_var_-12.0.reg2mem, !insn.addr !18
  br label %dec_label_pc_4014b5, !insn.addr !18

dec_label_pc_4013cc:                              ; preds = %dec_label_pc_401380
  %4 = call i64 @_ZStlsISt11char_traitsIcEERSt13basic_ostreamIcT_ES5_PKc(i64* nonnull @global_var_404260, i8* getelementptr inbounds ([15 x i8], [15 x i8]* @global_var_40201c, i64 0, i64 0)), !insn.addr !19
  %5 = inttoptr i64 %4 to i64*, !insn.addr !20
  %6 = call i64 @_ZStlsIcSt11char_traitsIcESaIcEERSt13basic_ostreamIT_T0_ES7_RKNSt7__cxx1112basic_stringIS4_S5_T1_EE(i64* %5, i64* %result), !insn.addr !20
  %7 = inttoptr i64 %6 to i64*, !insn.addr !21
  %8 = call i64 @_ZStlsISt11char_traitsIcEERSt13basic_ostreamIcT_ES5_PKc(i64* %7, i8* getelementptr inbounds ([4 x i8], [4 x i8]* @global_var_40202b, i64 0, i64 0)), !insn.addr !21
  %9 = inttoptr i64 %8 to i64* (i64*)*, !insn.addr !22
  %10 = call i64 @_ZNSolsEPFRSoS_E(i64* (i64*)* %9), !insn.addr !22
  %11 = call i64* @memset(i64* nonnull %stack_var_-40, i32 0, i32 16), !insn.addr !23
  store i64 2, i64* %stack_var_-40, align 8, !insn.addr !24
  %12 = call i64 @_ZNKSt7__cxx1112basic_stringIcSt11char_traitsIcESaIcEE5c_strEv(), !insn.addr !25
  %13 = inttoptr i64 %12 to i8*, !insn.addr !26
  %14 = call i32 @inet_addr(i8* %13), !insn.addr !26
  %15 = call i16 @htons(i16 443), !insn.addr !27
  %16 = bitcast i64* %stack_var_-40 to %sockaddr*, !insn.addr !28
  %17 = call i32 @connect(i32 %0, %sockaddr* nonnull %16, i32 16), !insn.addr !28
  %18 = icmp eq i32 %17, 0, !insn.addr !29
  br i1 %18, label %dec_label_pc_4014af, label %dec_label_pc_401478, !insn.addr !30

dec_label_pc_401478:                              ; preds = %dec_label_pc_4013cc
  %19 = call i64 @_ZStlsISt11char_traitsIcEERSt13basic_ostreamIcT_ES5_PKc(i64* nonnull @global_var_404260, i8* getelementptr inbounds ([28 x i8], [28 x i8]* @global_var_40202f, i64 0, i64 0)), !insn.addr !31
  %20 = inttoptr i64 %19 to i64* (i64*)*, !insn.addr !32
  %21 = call i64 @_ZNSolsEPFRSoS_E(i64* (i64*)* %20), !insn.addr !32
  store i64 4294967295, i64* %stack_var_-12.0.reg2mem, !insn.addr !33
  br label %dec_label_pc_4014b5, !insn.addr !33

dec_label_pc_4014af:                              ; preds = %dec_label_pc_4013cc
  %phitmp = zext i32 %0 to i64
  store i64 %phitmp, i64* %stack_var_-12.0.reg2mem, !insn.addr !34
  br label %dec_label_pc_4014b5, !insn.addr !34

dec_label_pc_4014b5:                              ; preds = %dec_label_pc_4014af, %dec_label_pc_401478, %dec_label_pc_4013af
  %stack_var_-12.0.reload = load i64, i64* %stack_var_-12.0.reg2mem
  ret i64 %stack_var_-12.0.reload, !insn.addr !35
}

define i64 @_Z23failDisableVerificationP10ssl_ctx_st(i64* %arg1) local_unnamed_addr {
dec_label_pc_4014c0:
  %0 = ptrtoint i64* %arg1 to i64
  %1 = call i64 @function_401210(i64 %0, i64 1, i64 4199664), !insn.addr !36
  ret i64 %1, !insn.addr !37
}

define i64 @_Z22failSetInsecureCiphersP10ssl_ctx_st(i64 %arg1, i64 %arg2, i64 %arg3, i64 %arg4) local_unnamed_addr {
dec_label_pc_401510:
  %stack_var_-25 = alloca i64, align 8
  store i64 5207358680114940993, i64* %stack_var_-25, align 8, !insn.addr !38
  %0 = call i64 @function_401190(i64 %arg1, i64* nonnull %stack_var_-25), !insn.addr !39
  ret i64 %0, !insn.addr !40
}

define i64 @_Z29failSetInsecureCiphersLiteralP10ssl_ctx_st(i64* %arg1) local_unnamed_addr {
dec_label_pc_401550:
  %0 = ptrtoint i64* %arg1 to i64
  %1 = call i64 @function_401190(i64 %0, i64* bitcast ([9 x i8]* @global_var_40204b to i64*)), !insn.addr !41
  ret i64 %1, !insn.addr !42
}

define i64 @_Z25failSetInsecureCiphersSTLP10ssl_ctx_st(i64* %arg1) local_unnamed_addr {
dec_label_pc_401580:
  %0 = ptrtoint i64* %arg1 to i64
  %stack_var_-48 = alloca i64, align 8
  %1 = call i64 @_ZNSaIcEC1Ev(), !insn.addr !43
  %2 = bitcast i64* %stack_var_-48 to i8*, !insn.addr !44
  %3 = call i64 @_ZNSt7__cxx1112basic_stringIcSt11char_traitsIcESaIcEEC1EPKcRKS3_(i8* nonnull %2, i64* bitcast ([9 x i8]* @global_var_40204b to i64*)), !insn.addr !44
  %4 = call i64 @_ZNSaIcED1Ev(), !insn.addr !45
  %5 = call i64 @_ZNKSt7__cxx1112basic_stringIcSt11char_traitsIcESaIcEE5c_strEv(), !insn.addr !46
  %6 = inttoptr i64 %5 to i64*, !insn.addr !47
  %7 = call i64 @function_401190(i64 %0, i64* %6), !insn.addr !47
  %8 = call i64 @_ZNSt7__cxx1112basic_stringIcSt11char_traitsIcESaIcEED1Ev(), !insn.addr !48
  ret i64 %8, !insn.addr !49
}

define i64 @_Z28failSetInsecureCiphersGlobalP10ssl_ctx_st(i64* %arg1) local_unnamed_addr {
dec_label_pc_401620:
  %0 = ptrtoint i64* %arg1 to i64
  %1 = call i64 @function_401190(i64 %0, i64* bitcast ([4 x i8]* @global_var_404130 to i64*)), !insn.addr !50
  ret i64 %1, !insn.addr !51
}

define i64 @_Z14initTLSContextv(i64 %arg1, i64 %arg2, i64 %arg3) local_unnamed_addr {
dec_label_pc_401660:
  %0 = call i64 @function_4010a0(i64 0, i64 0, i64 %arg3), !insn.addr !52
  %1 = call i64 @function_4010a0(i64 2097154, i64 0, i64 0), !insn.addr !53
  %2 = call i64 @function_4010f0(), !insn.addr !54
  %3 = call i64 @function_401170(i64 %2), !insn.addr !55
  %4 = call i64 @_Z22failSetInsecureCiphersP10ssl_ctx_st(i64 %3, i64 0, i64 0, i64 0), !insn.addr !56
  %5 = inttoptr i64 %3 to i64*, !insn.addr !57
  %6 = call i64 @_Z29failSetInsecureCiphersLiteralP10ssl_ctx_st(i64* %5), !insn.addr !57
  %7 = call i64 @_Z25failSetInsecureCiphersSTLP10ssl_ctx_st(i64* %5), !insn.addr !58
  %8 = call i64 @_Z28failSetInsecureCiphersGlobalP10ssl_ctx_st(i64* %5), !insn.addr !59
  %9 = call i64 @function_401210(i64 %3, i64 1, i64 0), !insn.addr !60
  %10 = call i64 @_Z23failDisableVerificationP10ssl_ctx_st(i64* %5), !insn.addr !61
  ret i64 %3, !insn.addr !62
}

define i64 @main(i64 %argc, i8** %argv) local_unnamed_addr {
dec_label_pc_4016f0:
  %stack_var_-12.0.reg2mem = alloca i64, !insn.addr !63
  %stack_var_-64 = alloca i64, align 8
  %stack_var_-72 = alloca i64, align 8
  %0 = ptrtoint i64* %stack_var_-72 to i64, !insn.addr !64
  %1 = call i64 @_ZNSaIcEC1Ev(), !insn.addr !65
  %2 = bitcast i64* %stack_var_-64 to i8*, !insn.addr !66
  %3 = call i64 @_ZNSt7__cxx1112basic_stringIcSt11char_traitsIcESaIcEEC1EPKcRKS3_(i8* nonnull %2, i64* bitcast ([14 x i8]* @global_var_402054 to i64*)), !insn.addr !66
  %4 = trunc i64 %0 to i32, !insn.addr !67
  %5 = call i64 @_Z9connectToNSt7__cxx1112basic_stringIcSt11char_traitsIcESaIcEEEi(i64* nonnull %stack_var_-64, i64 2, i32 %4), !insn.addr !67
  %6 = trunc i64 %5 to i32, !insn.addr !68
  %7 = call i64 @_ZNSt7__cxx1112basic_stringIcSt11char_traitsIcESaIcEED1Ev(), !insn.addr !69
  %8 = call i64 @_ZNSaIcED1Ev(), !insn.addr !70
  %9 = icmp slt i32 %6, 0, !insn.addr !71
  %10 = icmp eq i1 %9, false, !insn.addr !72
  store i64 4294967295, i64* %stack_var_-12.0.reg2mem, !insn.addr !72
  br i1 %10, label %dec_label_pc_40179e, label %dec_label_pc_401988, !insn.addr !72

dec_label_pc_40179e:                              ; preds = %dec_label_pc_4016f0
  %11 = call i64 @_Z14initTLSContextv(i64 %0, i64 2, i64 %0), !insn.addr !73
  %12 = call i64 @function_401070(i64 %11), !insn.addr !74
  store i64 %12, i64* @global_var_404380, align 8, !insn.addr !75
  %13 = icmp eq i64 %12, 0, !insn.addr !76
  %14 = icmp eq i1 %13, false, !insn.addr !77
  br i1 %14, label %dec_label_pc_4017fe, label %dec_label_pc_4017c7, !insn.addr !77

dec_label_pc_4017c7:                              ; preds = %dec_label_pc_40179e
  %15 = call i64 @_ZStlsISt11char_traitsIcEERSt13basic_ostreamIcT_ES5_PKc(i64* nonnull @global_var_404260, i8* getelementptr inbounds ([20 x i8], [20 x i8]* @global_var_402062, i64 0, i64 0)), !insn.addr !78
  %16 = inttoptr i64 %15 to i64* (i64*)*, !insn.addr !79
  %17 = call i64 @_ZNSolsEPFRSoS_E(i64* (i64*)* %16), !insn.addr !79
  store i64 4294967295, i64* %stack_var_-12.0.reg2mem, !insn.addr !80
  br label %dec_label_pc_401988, !insn.addr !80

dec_label_pc_4017fe:                              ; preds = %dec_label_pc_40179e
  %18 = call i64 @function_401050(i64 %12, i32 %6), !insn.addr !81
  %19 = load i64, i64* @global_var_404380, align 8, !insn.addr !82
  %20 = call i64 @function_401180(i64 %19), !insn.addr !83
  %21 = trunc i64 %20 to i32, !insn.addr !84
  %22 = icmp eq i32 %21, 0, !insn.addr !85
  %23 = icmp slt i32 %21, 0, !insn.addr !85
  %24 = icmp eq i1 %23, false, !insn.addr !86
  %25 = icmp eq i1 %22, false, !insn.addr !86
  %26 = icmp eq i1 %24, %25, !insn.addr !86
  br i1 %26, label %dec_label_pc_4018e9, label %dec_label_pc_40182b, !insn.addr !86

dec_label_pc_40182b:                              ; preds = %dec_label_pc_4017fe
  %27 = call i64 @function_4010c0(), !insn.addr !87
  %28 = trunc i64 %27 to i32, !insn.addr !88
  %29 = call i64 @_ZStlsISt11char_traitsIcEERSt13basic_ostreamIcT_ES5_PKc(i64* nonnull @global_var_404260, i8* getelementptr inbounds ([44 x i8], [44 x i8]* @global_var_402076, i64 0, i64 0)), !insn.addr !89
  %30 = call i64 @function_401220(i32 %28, i64 0), !insn.addr !90
  %31 = inttoptr i64 %29 to i64*, !insn.addr !91
  %32 = inttoptr i64 %30 to i8*, !insn.addr !91
  %33 = call i64 @_ZStlsISt11char_traitsIcEERSt13basic_ostreamIcT_ES5_PKc(i64* %31, i8* %32), !insn.addr !91
  %34 = inttoptr i64 %33 to i64* (i64*)*, !insn.addr !92
  %35 = call i64 @_ZNSolsEPFRSoS_E(i64* (i64*)* %34), !insn.addr !92
  store i64 4294967295, i64* %stack_var_-12.0.reg2mem, !insn.addr !93
  br label %dec_label_pc_401988, !insn.addr !93

dec_label_pc_4018e9:                              ; preds = %dec_label_pc_4017fe
  %36 = load i64, i64* @global_var_404380, align 8, !insn.addr !94
  %37 = call i64 @function_4011e0(i64 %36), !insn.addr !95
  %38 = icmp eq i64 %37, 0, !insn.addr !96
  %39 = icmp eq i1 %38, false, !insn.addr !97
  br i1 %39, label %dec_label_pc_40192b, label %dec_label_pc_401900, !insn.addr !97

dec_label_pc_401900:                              ; preds = %dec_label_pc_4018e9
  %40 = call i64 @_ZStlsISt11char_traitsIcEERSt13basic_ostreamIcT_ES5_PKc(i64* nonnull @global_var_404140, i8* getelementptr inbounds ([36 x i8], [36 x i8]* @global_var_4020a2, i64 0, i64 0)), !insn.addr !98
  %41 = inttoptr i64 %40 to i64* (i64*)*, !insn.addr !99
  %42 = call i64 @_ZNSolsEPFRSoS_E(i64* (i64*)* %41), !insn.addr !99
  br label %dec_label_pc_40192b, !insn.addr !99

dec_label_pc_40192b:                              ; preds = %dec_label_pc_401900, %dec_label_pc_4018e9
  %43 = call i64 @_ZStlsISt11char_traitsIcEERSt13basic_ostreamIcT_ES5_PKc(i64* nonnull @global_var_404140, i8* getelementptr inbounds ([37 x i8], [37 x i8]* @global_var_4020c6, i64 0, i64 0)), !insn.addr !100
  %44 = load i64, i64* @global_var_404380, align 8, !insn.addr !101
  %45 = call i64 @function_4011c0(i64 %44), !insn.addr !102
  %46 = call i64 @function_4010e0(i64 %45), !insn.addr !103
  %47 = inttoptr i64 %43 to i64*, !insn.addr !104
  %48 = inttoptr i64 %46 to i8*, !insn.addr !104
  %49 = call i64 @_ZStlsISt11char_traitsIcEERSt13basic_ostreamIcT_ES5_PKc(i64* %47, i8* %48), !insn.addr !104
  %50 = inttoptr i64 %49 to i64* (i64*)*, !insn.addr !105
  %51 = call i64 @_ZNSolsEPFRSoS_E(i64* (i64*)* %50), !insn.addr !105
  store i64 0, i64* %stack_var_-12.0.reg2mem, !insn.addr !106
  br label %dec_label_pc_401988, !insn.addr !106

dec_label_pc_401988:                              ; preds = %dec_label_pc_4016f0, %dec_label_pc_40192b, %dec_label_pc_40182b, %dec_label_pc_4017c7
  %stack_var_-12.0.reload = load i64, i64* %stack_var_-12.0.reg2mem
  ret i64 %stack_var_-12.0.reload, !insn.addr !107
}

declare i32 @printf(i8*, ...) local_unnamed_addr

declare i16 @htons(i16) local_unnamed_addr

declare i64 @SSL_set_fd() local_unnamed_addr

declare i32 @socket(i32, i32, i32) local_unnamed_addr

declare i64 @SSL_new() local_unnamed_addr

declare i64 @_ZNKSt7__cxx1112basic_stringIcSt11char_traitsIcESaIcEE5c_strEv() local_unnamed_addr

declare i64 @OPENSSL_init_ssl() local_unnamed_addr

declare i64* @memset(i64*, i32, i32) local_unnamed_addr

declare i64 @ERR_get_error() local_unnamed_addr

declare i64 @_ZNSt7__cxx1112basic_stringIcSt11char_traitsIcESaIcEED1Ev() local_unnamed_addr

declare i64 @SSL_CIPHER_get_name() local_unnamed_addr

declare i64 @TLSv1_2_client_method() local_unnamed_addr

declare i32 @connect(i32, %sockaddr*, i32) local_unnamed_addr

declare i64 @_ZStlsIcSt11char_traitsIcESaIcEERSt13basic_ostreamIT_T0_ES7_RKNSt7__cxx1112basic_stringIS4_S5_T1_EE(i64*, i64*) local_unnamed_addr

declare i64 @_ZStlsISt11char_traitsIcEERSt13basic_ostreamIcT_ES5_PKc(i64*, i8*) local_unnamed_addr

declare i32 @inet_addr(i8*) local_unnamed_addr

declare i64 @_ZNSolsEPFRSoS_E(i64* (i64*)*) local_unnamed_addr

declare i64 @_ZNSaIcED1Ev() local_unnamed_addr

declare i64 @SSL_CTX_new() local_unnamed_addr

declare i64 @SSL_connect() local_unnamed_addr

declare i64 @SSL_CTX_set_cipher_list() local_unnamed_addr

declare i64 @_ZNSt7__cxx1112basic_stringIcSt11char_traitsIcESaIcEEC1EPKcRKS3_(i8*, i64*) local_unnamed_addr

declare i64 @SSL_get_current_cipher() local_unnamed_addr

declare i64 @SSL_get_verify_result() local_unnamed_addr

declare i64 @_ZNSaIcEC1Ev() local_unnamed_addr

declare i64 @SSL_CTX_set_verify() local_unnamed_addr

declare i64 @ERR_error_string() local_unnamed_addr

!0 = !{i64 4198480}
!1 = !{i64 4198512}
!2 = !{i64 4198560}
!3 = !{i64 4198592}
!4 = !{i64 4198624}
!5 = !{i64 4198640}
!6 = !{i64 4198768}
!7 = !{i64 4198784}
!8 = !{i64 4198800}
!9 = !{i64 4198848}
!10 = !{i64 4198880}
!11 = !{i64 4198928}
!12 = !{i64 4198944}
!13 = !{i64 4199296}
!14 = !{i64 4199325}
!15 = !{i64 4199333}
!16 = !{i64 4199337}
!17 = !{i64 4199355}
!18 = !{i64 4199367}
!19 = !{i64 4199392}
!20 = !{i64 4199404}
!21 = !{i64 4199422}
!22 = !{i64 4199440}
!23 = !{i64 4199463}
!24 = !{i64 4199468}
!25 = !{i64 4199478}
!26 = !{i64 4199486}
!27 = !{i64 4199499}
!28 = !{i64 4199530}
!29 = !{i64 4199535}
!30 = !{i64 4199538}
!31 = !{i64 4199564}
!32 = !{i64 4199582}
!33 = !{i64 4199594}
!34 = !{i64 4199602}
!35 = !{i64 4199613}
!36 = !{i64 4199647}
!37 = !{i64 4199657}
!38 = !{i64 4199720}
!39 = !{i64 4199738}
!40 = !{i64 4199748}
!41 = !{i64 4199786}
!42 = !{i64 4199796}
!43 = !{i64 4199831}
!44 = !{i64 4199849}
!45 = !{i64 4199863}
!46 = !{i64 4199883}
!47 = !{i64 4199895}
!48 = !{i64 4199909}
!49 = !{i64 4199919}
!50 = !{i64 4199994}
!51 = !{i64 4200004}
!52 = !{i64 4200050}
!53 = !{i64 4200067}
!54 = !{i64 4200075}
!55 = !{i64 4200083}
!56 = !{i64 4200096}
!57 = !{i64 4200105}
!58 = !{i64 4200114}
!59 = !{i64 4200123}
!60 = !{i64 4200139}
!61 = !{i64 4200148}
!62 = !{i64 4200162}
!63 = !{i64 4200176}
!64 = !{i64 4200208}
!65 = !{i64 4200212}
!66 = !{i64 4200230}
!67 = !{i64 4200249}
!68 = !{i64 4200254}
!69 = !{i64 4200266}
!70 = !{i64 4200275}
!71 = !{i64 4200286}
!72 = !{i64 4200290}
!73 = !{i64 4200350}
!74 = !{i64 4200363}
!75 = !{i64 4200368}
!76 = !{i64 4200376}
!77 = !{i64 4200385}
!78 = !{i64 4200411}
!79 = !{i64 4200429}
!80 = !{i64 4200441}
!81 = !{i64 4200457}
!82 = !{i64 4200462}
!83 = !{i64 4200473}
!84 = !{i64 4200478}
!85 = !{i64 4200481}
!86 = !{i64 4200485}
!87 = !{i64 4200491}
!88 = !{i64 4200496}
!89 = !{i64 4200519}
!90 = !{i64 4200536}
!91 = !{i64 4200548}
!92 = !{i64 4200566}
!93 = !{i64 4200578}
!94 = !{i64 4200681}
!95 = !{i64 4200689}
!96 = !{i64 4200694}
!97 = !{i64 4200698}
!98 = !{i64 4200724}
!99 = !{i64 4200742}
!100 = !{i64 4200767}
!101 = !{i64 4200772}
!102 = !{i64 4200787}
!103 = !{i64 4200795}
!104 = !{i64 4200810}
!105 = !{i64 4200828}
!106 = !{i64 4200833}
!107 = !{i64 4200851}
