source_filename = "test"
target datalayout = "e-m:e-p:64:64-i64:64-f80:128-n8:16:32:64-S128"

%sockaddr = type { i64, [14 x i8] }
%_Unwind_Exception = type { i32 }

@global_var_4fc8 = local_unnamed_addr global i64 0
@global_var_5008 = external global i64
@global_var_3009 = constant [23 x i8] c"Error creating socket.\00"
@global_var_3020 = constant [15 x i8] c"Connecting to \00"
@global_var_5160 = global i64 0
@global_var_302f = constant [4 x i8] c"...\00"
@global_var_3033 = constant [28 x i8] c"Error connecting to server.\00"
@global_var_304f = constant [9 x i8] c"ALL:!ADH\00"
@global_var_5010 = constant [4 x i8] c"MD5\00"
@global_var_3058 = constant [14 x i8] c"172.217.18.99\00"
@global_var_5278 = local_unnamed_addr global i64 0
@global_var_3066 = constant [20 x i8] c"Error creating SSL.\00"
@global_var_3080 = constant [44 x i8] c"Error creating SSL connection. Error Code: \00"
@global_var_30b0 = constant [36 x i8] c"Call to SSL_get_verify_result is ok\00"
@global_var_5040 = global i64 0
@global_var_30d8 = constant [37 x i8] c"SSL communication established using \00"
@global_var_5280 = global i64 0
@global_var_4c70 = global i64 9472
@global_var_4c80 = global i64 9408
@0 = external global i32
@global_var_5270 = local_unnamed_addr global i8 0

define i64 @_init() local_unnamed_addr {
dec_label_pc_2000:
  %rax.0.reg2mem = alloca i64, !insn.addr !0
  %0 = load i64, i64* inttoptr (i64 20456 to i64*), align 8, !insn.addr !1
  %1 = icmp eq i64 %0, 0, !insn.addr !2
  store i64 0, i64* %rax.0.reg2mem, !insn.addr !3
  br i1 %1, label %dec_label_pc_2016, label %dec_label_pc_2014, !insn.addr !3

dec_label_pc_2014:                                ; preds = %dec_label_pc_2000
  call void @__gmon_start__(), !insn.addr !4
  store i64 ptrtoint (i32* @0 to i64), i64* %rax.0.reg2mem, !insn.addr !4
  br label %dec_label_pc_2016, !insn.addr !4

dec_label_pc_2016:                                ; preds = %dec_label_pc_2014, %dec_label_pc_2000
  %rax.0.reload = load i64, i64* %rax.0.reg2mem
  ret i64 %rax.0.reload, !insn.addr !5
}

define void @function_2220(i64* %d) local_unnamed_addr {
dec_label_pc_2220:
  call void @__cxa_finalize(i64* %d), !insn.addr !6
  ret void, !insn.addr !6
}

define i16 @function_2230(i16 %hostshort) local_unnamed_addr {
dec_label_pc_2230:
  %0 = call i16 @htons(i16 %hostshort), !insn.addr !7
  ret i16 %0, !insn.addr !7
}

define i64 @function_2240(i64 %arg1, i64 %arg2, i32 %arg3) local_unnamed_addr {
dec_label_pc_2240:
  %0 = call i64 @SSL_set_fd(), !insn.addr !8
  ret i64 %0, !insn.addr !8
}

define i32 @function_2250(i32 %domain, i32 %type, i32 %protocol) local_unnamed_addr {
dec_label_pc_2250:
  %0 = call i32 @socket(i32 %domain, i32 %type, i32 %protocol), !insn.addr !9
  ret i32 %0, !insn.addr !9
}

define i64 @function_2260(i64 %arg1) local_unnamed_addr {
dec_label_pc_2260:
  %0 = call i64 @SSL_new(), !insn.addr !10
  ret i64 %0, !insn.addr !10
}

define i64 @function_2270() local_unnamed_addr {
dec_label_pc_2270:
  %0 = call i64 @_ZNKSt7__cxx1112basic_stringIcSt11char_traitsIcESaIcEE5c_strEv(), !insn.addr !11
  ret i64 %0, !insn.addr !11
}

define i64 @function_2280(i64 %arg1, i64 %arg2) local_unnamed_addr {
dec_label_pc_2280:
  %0 = call i64 @OPENSSL_init_ssl(), !insn.addr !12
  ret i64 %0, !insn.addr !12
}

define i64* @function_2290(i64* %s, i32 %c, i32 %n) local_unnamed_addr {
dec_label_pc_2290:
  %0 = call i64* @memset(i64* %s, i32 %c, i32 %n), !insn.addr !13
  ret i64* %0, !insn.addr !13
}

define i64 @function_22a0() local_unnamed_addr {
dec_label_pc_22a0:
  %0 = call i64 @ERR_get_error(), !insn.addr !14
  ret i64 %0, !insn.addr !14
}

define i64 @function_22b0() local_unnamed_addr {
dec_label_pc_22b0:
  %0 = call i64 @_ZNSt7__cxx1112basic_stringIcSt11char_traitsIcESaIcEED1Ev(), !insn.addr !15
  ret i64 %0, !insn.addr !15
}

define i64 @function_22c0(i64 %arg1) local_unnamed_addr {
dec_label_pc_22c0:
  %0 = call i64 @SSL_CIPHER_get_name(), !insn.addr !16
  ret i64 %0, !insn.addr !16
}

define i64 @function_22d0() local_unnamed_addr {
dec_label_pc_22d0:
  %0 = call i64 @TLSv1_2_client_method(), !insn.addr !17
  ret i64 %0, !insn.addr !17
}

define i32 @function_22e0(i32 %fd, %sockaddr* %addr, i32 %len) local_unnamed_addr {
dec_label_pc_22e0:
  %0 = call i32 @connect(i32 %fd, %sockaddr* %addr, i32 %len), !insn.addr !18
  ret i32 %0, !insn.addr !18
}

define i32 @function_22f0(void (i64*)* %func, i64* %arg, i64* %dso_handle) local_unnamed_addr {
dec_label_pc_22f0:
  %0 = call i32 @__cxa_atexit(void (i64*)* %func, i64* %arg, i64* %dso_handle), !insn.addr !19
  ret i32 %0, !insn.addr !19
}

define i64 @function_2300(i64* %arg1, i64* %arg2) local_unnamed_addr {
dec_label_pc_2300:
  %0 = call i64 @_ZStlsIcSt11char_traitsIcESaIcEERSt13basic_ostreamIT_T0_ES7_RKNSt7__cxx1112basic_stringIS4_S5_T1_EE(i64* %arg1, i64* %arg2), !insn.addr !20
  ret i64 %0, !insn.addr !20
}

define i64 @function_2310(i64* %arg1, i8* %arg2) local_unnamed_addr {
dec_label_pc_2310:
  %0 = call i64 @_ZStlsISt11char_traitsIcEERSt13basic_ostreamIcT_ES5_PKc(i64* %arg1, i8* %arg2), !insn.addr !21
  ret i64 %0, !insn.addr !21
}

define i32 @function_2320(i8* %cp) local_unnamed_addr {
dec_label_pc_2320:
  %0 = call i32 @inet_addr(i8* %cp), !insn.addr !22
  ret i32 %0, !insn.addr !22
}

define i64 @function_2330(i64* (i64*)* %arg1) local_unnamed_addr {
dec_label_pc_2330:
  %0 = call i64 @_ZNSolsEPFRSoS_E(i64* (i64*)* %arg1), !insn.addr !23
  ret i64 %0, !insn.addr !23
}

define i64 @function_2340() local_unnamed_addr {
dec_label_pc_2340:
  %0 = call i64 @_ZNSaIcED1Ev(), !insn.addr !24
  ret i64 %0, !insn.addr !24
}

define void @function_2350() local_unnamed_addr {
dec_label_pc_2350:
  call void @__stack_chk_fail(), !insn.addr !25
  ret void, !insn.addr !25
}

define i64 @function_2360(i64 %arg1) local_unnamed_addr {
dec_label_pc_2360:
  %0 = call i64 @SSL_CTX_new(), !insn.addr !26
  ret i64 %0, !insn.addr !26
}

define i64 @function_2370(i64 %arg1) local_unnamed_addr {
dec_label_pc_2370:
  %0 = call i64 @SSL_connect(), !insn.addr !27
  ret i64 %0, !insn.addr !27
}

define i64 @function_2380(i64 %arg1, i64* %arg2, i64* %arg3) local_unnamed_addr {
dec_label_pc_2380:
  %0 = call i64 @SSL_CTX_set_cipher_list(), !insn.addr !28
  ret i64 %0, !insn.addr !28
}

define i64 @function_2390(i8* %arg1, i64* %arg2) local_unnamed_addr {
dec_label_pc_2390:
  %0 = call i64 @_ZNSt7__cxx1112basic_stringIcSt11char_traitsIcESaIcEEC1EPKcRKS3_(i8* %arg1, i64* %arg2), !insn.addr !29
  ret i64 %0, !insn.addr !29
}

define i64 @function_23a0() local_unnamed_addr {
dec_label_pc_23a0:
  %0 = call i64 @_ZNSt8ios_base4InitC1Ev(), !insn.addr !30
  ret i64 %0, !insn.addr !30
}

define i32 @function_23b0(i8* %s) local_unnamed_addr {
dec_label_pc_23b0:
  %0 = call i32 @puts(i8* %s), !insn.addr !31
  ret i32 %0, !insn.addr !31
}

define i64 @function_23c0(i64 %arg1) local_unnamed_addr {
dec_label_pc_23c0:
  %0 = call i64 @SSL_get_current_cipher(), !insn.addr !32
  ret i64 %0, !insn.addr !32
}

define i64 @function_23d0(i64 %arg1) local_unnamed_addr {
dec_label_pc_23d0:
  %0 = call i64 @SSL_get_verify_result(), !insn.addr !33
  ret i64 %0, !insn.addr !33
}

define void @function_23e0(%_Unwind_Exception* %object) local_unnamed_addr {
dec_label_pc_23e0:
  call void @_Unwind_Resume(%_Unwind_Exception* %object), !insn.addr !34
  ret void, !insn.addr !34
}

define i64 @function_23f0() local_unnamed_addr {
dec_label_pc_23f0:
  %0 = call i64 @_ZNSaIcEC1Ev(), !insn.addr !35
  ret i64 %0, !insn.addr !35
}

define i64 @function_2400(i64 %arg1, i64 %arg2, i64 %arg3) local_unnamed_addr {
dec_label_pc_2400:
  %0 = call i64 @SSL_CTX_set_verify(), !insn.addr !36
  ret i64 %0, !insn.addr !36
}

define i64 @function_2410(i64 %arg1, i64 %arg2) local_unnamed_addr {
dec_label_pc_2410:
  %0 = call i64 @ERR_error_string(), !insn.addr !37
  ret i64 %0, !insn.addr !37
}

define i64 @_start(i64 %arg1, i64 %arg2, i64 %arg3, i64 %arg4) local_unnamed_addr {
dec_label_pc_2420:
  %stack_var_8 = alloca i64, align 8
  %0 = trunc i64 %arg4 to i32, !insn.addr !38
  %1 = bitcast i64* %stack_var_8 to i8**, !insn.addr !38
  %2 = inttoptr i64 %arg3 to void ()*, !insn.addr !38
  %3 = call i32 @__libc_start_main(i64 10397, i32 %0, i8** nonnull %1, void ()* inttoptr (i64 11200 to void ()*), void ()* inttoptr (i64 11312 to void ()*), void ()* %2), !insn.addr !38
  %4 = call i64 @__asm_hlt(), !insn.addr !39
  unreachable, !insn.addr !39
}

define i64 @deregister_tm_clones() local_unnamed_addr {
dec_label_pc_2450:
  ret i64 20512, !insn.addr !40
}

define i64 @register_tm_clones() local_unnamed_addr {
dec_label_pc_2480:
  ret i64 0, !insn.addr !41
}

define i64 @__do_global_dtors_aux() local_unnamed_addr {
dec_label_pc_24c0:
  %0 = alloca i64
  %1 = load i64, i64* %0
  %2 = load i8, i8* @global_var_5270, align 1, !insn.addr !42
  %3 = icmp eq i8 %2, 0, !insn.addr !42
  %4 = icmp eq i1 %3, false, !insn.addr !43
  br i1 %4, label %dec_label_pc_24f8, label %dec_label_pc_24cd, !insn.addr !43

dec_label_pc_24cd:                                ; preds = %dec_label_pc_24c0
  %5 = load i64, i64* @global_var_4fc8, align 8, !insn.addr !44
  %6 = icmp eq i64 %5, 0, !insn.addr !44
  br i1 %6, label %dec_label_pc_24e7, label %dec_label_pc_24db, !insn.addr !45

dec_label_pc_24db:                                ; preds = %dec_label_pc_24cd
  %7 = load i64, i64* inttoptr (i64 20488 to i64*), align 8, !insn.addr !46
  %8 = inttoptr i64 %7 to i64*, !insn.addr !47
  call void @__cxa_finalize(i64* %8), !insn.addr !47
  br label %dec_label_pc_24e7, !insn.addr !47

dec_label_pc_24e7:                                ; preds = %dec_label_pc_24db, %dec_label_pc_24cd
  %9 = call i64 @deregister_tm_clones(), !insn.addr !48
  store i8 1, i8* @global_var_5270, align 1, !insn.addr !49
  ret i64 %9, !insn.addr !50

dec_label_pc_24f8:                                ; preds = %dec_label_pc_24c0
  ret i64 %1, !insn.addr !51

; uselistorder directives
  uselistorder i8 0, { 1, 0 }
  uselistorder i8* @global_var_5270, { 1, 0 }
}

define i64 @frame_dummy() local_unnamed_addr {
dec_label_pc_2500:
  %0 = call i64 @register_tm_clones(), !insn.addr !52
  ret i64 %0, !insn.addr !52
}

define i64 @_Z9connectToNSt7__cxx1112basic_stringIcSt11char_traitsIcESaIcEEEi(i64 %arg1, i32 %arg2) local_unnamed_addr {
dec_label_pc_2509:
  %rax.1.reg2mem = alloca i64, !insn.addr !53
  %rax.0.reg2mem = alloca i64, !insn.addr !53
  %stack_var_-40 = alloca i64, align 8
  %0 = call i64 @__readfsqword(i64 40), !insn.addr !54
  %1 = call i32 @socket(i32 2, i32 1, i32 0), !insn.addr !55
  %2 = icmp eq i32 %1, 0, !insn.addr !56
  %3 = icmp eq i1 %2, false, !insn.addr !57
  br i1 %3, label %dec_label_pc_255e, label %dec_label_pc_2548, !insn.addr !57

dec_label_pc_2548:                                ; preds = %dec_label_pc_2509
  %4 = call i32 @puts(i8* getelementptr inbounds ([23 x i8], [23 x i8]* @global_var_3009, i64 0, i64 0)), !insn.addr !58
  store i64 4294967295, i64* %rax.0.reg2mem, !insn.addr !59
  br label %dec_label_pc_2640, !insn.addr !59

dec_label_pc_255e:                                ; preds = %dec_label_pc_2509
  %5 = call i64 @_ZStlsISt11char_traitsIcEERSt13basic_ostreamIcT_ES5_PKc(i64* nonnull @global_var_5160, i8* getelementptr inbounds ([15 x i8], [15 x i8]* @global_var_3020, i64 0, i64 0)), !insn.addr !60
  %6 = inttoptr i64 %5 to i64*, !insn.addr !61
  %7 = inttoptr i64 %arg1 to i64*, !insn.addr !61
  %8 = call i64 @_ZStlsIcSt11char_traitsIcESaIcEERSt13basic_ostreamIT_T0_ES7_RKNSt7__cxx1112basic_stringIS4_S5_T1_EE(i64* %6, i64* %7), !insn.addr !61
  %9 = inttoptr i64 %8 to i64*, !insn.addr !62
  %10 = call i64 @_ZStlsISt11char_traitsIcEERSt13basic_ostreamIcT_ES5_PKc(i64* %9, i8* getelementptr inbounds ([4 x i8], [4 x i8]* @global_var_302f, i64 0, i64 0)), !insn.addr !62
  %11 = inttoptr i64 %10 to i64* (i64*)*, !insn.addr !63
  %12 = call i64 @_ZNSolsEPFRSoS_E(i64* (i64*)* %11), !insn.addr !63
  %13 = call i64* @memset(i64* nonnull %stack_var_-40, i32 0, i32 16), !insn.addr !64
  store i64 2, i64* %stack_var_-40, align 8, !insn.addr !65
  %14 = call i64 @_ZNKSt7__cxx1112basic_stringIcSt11char_traitsIcESaIcEE5c_strEv(), !insn.addr !66
  %15 = inttoptr i64 %14 to i8*, !insn.addr !67
  %16 = call i32 @inet_addr(i8* %15), !insn.addr !67
  %17 = call i16 @htons(i16 443), !insn.addr !68
  %18 = bitcast i64* %stack_var_-40 to %sockaddr*, !insn.addr !69
  %19 = call i32 @connect(i32 %1, %sockaddr* nonnull %18, i32 16), !insn.addr !69
  %20 = icmp eq i32 %19, 0, !insn.addr !70
  %21 = icmp eq i1 %20, false, !insn.addr !71
  %22 = icmp eq i1 %21, false, !insn.addr !72
  br i1 %22, label %dec_label_pc_263d, label %dec_label_pc_260e, !insn.addr !73

dec_label_pc_260e:                                ; preds = %dec_label_pc_255e
  %23 = call i64 @_ZStlsISt11char_traitsIcEERSt13basic_ostreamIcT_ES5_PKc(i64* nonnull @global_var_5160, i8* getelementptr inbounds ([28 x i8], [28 x i8]* @global_var_3033, i64 0, i64 0)), !insn.addr !74
  %24 = inttoptr i64 %23 to i64* (i64*)*, !insn.addr !75
  %25 = call i64 @_ZNSolsEPFRSoS_E(i64* (i64*)* %24), !insn.addr !75
  store i64 4294967295, i64* %rax.0.reg2mem, !insn.addr !76
  br label %dec_label_pc_2640, !insn.addr !76

dec_label_pc_263d:                                ; preds = %dec_label_pc_255e
  %26 = zext i32 %1 to i64, !insn.addr !77
  store i64 %26, i64* %rax.0.reg2mem, !insn.addr !77
  br label %dec_label_pc_2640, !insn.addr !77

dec_label_pc_2640:                                ; preds = %dec_label_pc_263d, %dec_label_pc_260e, %dec_label_pc_2548
  %rax.0.reload = load i64, i64* %rax.0.reg2mem
  %27 = call i64 @__readfsqword(i64 40), !insn.addr !78
  %28 = icmp eq i64 %0, %27, !insn.addr !78
  store i64 %rax.0.reload, i64* %rax.1.reg2mem, !insn.addr !79
  br i1 %28, label %dec_label_pc_2654, label %dec_label_pc_264f, !insn.addr !79

dec_label_pc_264f:                                ; preds = %dec_label_pc_2640
  call void @__stack_chk_fail(), !insn.addr !80
  store i64 ptrtoint (i32* @0 to i64), i64* %rax.1.reg2mem, !insn.addr !80
  br label %dec_label_pc_2654, !insn.addr !80

dec_label_pc_2654:                                ; preds = %dec_label_pc_264f, %dec_label_pc_2640
  %rax.1.reload = load i64, i64* %rax.1.reg2mem
  ret i64 %rax.1.reload, !insn.addr !81

; uselistorder directives
  uselistorder i64* %stack_var_-40, { 0, 2, 1 }
  uselistorder i64* %rax.0.reg2mem, { 0, 3, 2, 1 }
}

define i64 @_Z23failDisableVerificationP10ssl_ctx_st(i64* %arg1) local_unnamed_addr {
dec_label_pc_2656:
  %0 = ptrtoint i64* %arg1 to i64
  %1 = call i64 @function_2400(i64 %0, i64 1, i64 11066), !insn.addr !82
  ret i64 %1, !insn.addr !83
}

define i64 @_Z22failSetInsecureCiphersP10ssl_ctx_st(i64* %arg1) local_unnamed_addr {
dec_label_pc_2681:
  %rax.0.reg2mem = alloca i64, !insn.addr !84
  %0 = ptrtoint i64* %arg1 to i64
  %stack_var_-25 = alloca i64, align 8
  %1 = call i64 @__readfsqword(i64 40), !insn.addr !85
  store i64 5207358680114940993, i64* %stack_var_-25, align 8, !insn.addr !86
  %2 = call i64 @function_2380(i64 %0, i64* nonnull %stack_var_-25, i64* nonnull %stack_var_-25), !insn.addr !87
  %3 = call i64 @__readfsqword(i64 40), !insn.addr !88
  %4 = icmp eq i64 %1, %3, !insn.addr !88
  store i64 0, i64* %rax.0.reg2mem, !insn.addr !89
  br i1 %4, label %dec_label_pc_26da, label %dec_label_pc_26d5, !insn.addr !89

dec_label_pc_26d5:                                ; preds = %dec_label_pc_2681
  call void @__stack_chk_fail(), !insn.addr !90
  store i64 ptrtoint (i32* @0 to i64), i64* %rax.0.reg2mem, !insn.addr !90
  br label %dec_label_pc_26da, !insn.addr !90

dec_label_pc_26da:                                ; preds = %dec_label_pc_26d5, %dec_label_pc_2681
  %rax.0.reload = load i64, i64* %rax.0.reg2mem
  ret i64 %rax.0.reload, !insn.addr !91
}

define i64 @_Z29failSetInsecureCiphersLiteralP10ssl_ctx_st(i64* %arg1) local_unnamed_addr {
dec_label_pc_26dc:
  %0 = alloca i64
  %1 = load i64, i64* %0
  %2 = ptrtoint i64* %arg1 to i64
  %3 = inttoptr i64 %1 to i64*, !insn.addr !92
  %4 = call i64 @function_2380(i64 %2, i64* bitcast ([9 x i8]* @global_var_304f to i64*), i64* %3), !insn.addr !92
  ret i64 %4, !insn.addr !93
}

define i64 @_Z25failSetInsecureCiphersSTLP10ssl_ctx_st(i64* %arg1) local_unnamed_addr {
dec_label_pc_2702:
  %rax.0.reg2mem = alloca i64, !insn.addr !94
  %0 = ptrtoint i64* %arg1 to i64
  %stack_var_-72 = alloca i64, align 8
  %1 = call i64 @__readfsqword(i64 40), !insn.addr !95
  %2 = call i64 @_ZNSaIcEC1Ev(), !insn.addr !96
  %3 = bitcast i64* %stack_var_-72 to i8*, !insn.addr !97
  %4 = call i64 @_ZNSt7__cxx1112basic_stringIcSt11char_traitsIcESaIcEEC1EPKcRKS3_(i8* nonnull %3, i64* bitcast ([9 x i8]* @global_var_304f to i64*)), !insn.addr !97
  %5 = call i64 @_ZNSaIcED1Ev(), !insn.addr !98
  %6 = call i64 @_ZNKSt7__cxx1112basic_stringIcSt11char_traitsIcESaIcEE5c_strEv(), !insn.addr !99
  %7 = inttoptr i64 %6 to i64*, !insn.addr !100
  %8 = call i64 @function_2380(i64 %0, i64* %7, i64* %7), !insn.addr !100
  %9 = call i64 @_ZNSt7__cxx1112basic_stringIcSt11char_traitsIcESaIcEED1Ev(), !insn.addr !101
  %10 = call i64 @__readfsqword(i64 40), !insn.addr !102
  %11 = icmp eq i64 %1, %10, !insn.addr !102
  store i64 0, i64* %rax.0.reg2mem, !insn.addr !103
  br i1 %11, label %dec_label_pc_27ce, label %dec_label_pc_27c9, !insn.addr !103

dec_label_pc_27c9:                                ; preds = %dec_label_pc_2702
  call void @__stack_chk_fail(), !insn.addr !104
  store i64 ptrtoint (i32* @0 to i64), i64* %rax.0.reg2mem, !insn.addr !104
  br label %dec_label_pc_27ce, !insn.addr !104

dec_label_pc_27ce:                                ; preds = %dec_label_pc_27c9, %dec_label_pc_2702
  %rax.0.reload = load i64, i64* %rax.0.reg2mem
  ret i64 %rax.0.reload, !insn.addr !105

; uselistorder directives
  uselistorder i64 ()* @_ZNKSt7__cxx1112basic_stringIcSt11char_traitsIcESaIcEE5c_strEv, { 1, 0, 2 }
}

define i64 @_Z28failSetInsecureCiphersGlobalP10ssl_ctx_st(i64* %arg1) local_unnamed_addr {
dec_label_pc_27d5:
  %0 = alloca i64
  %1 = load i64, i64* %0
  %2 = ptrtoint i64* %arg1 to i64
  %3 = inttoptr i64 %1 to i64*, !insn.addr !106
  %4 = call i64 @function_2380(i64 %2, i64* bitcast ([4 x i8]* @global_var_5010 to i64*), i64* %3), !insn.addr !106
  ret i64 %4, !insn.addr !107

; uselistorder directives
  uselistorder i64 (i64, i64*, i64*)* @function_2380, { 3, 2, 1, 0 }
}

define i64 @_Z29failDisableVerificationLambdaP10ssl_ctx_st(i64* %arg1) local_unnamed_addr {
dec_label_pc_27fb:
  %0 = alloca i64
  %1 = load i64, i64* %0
  ret i64 %1, !insn.addr !108
}

define i64 @_Z14initTLSContextv() local_unnamed_addr {
dec_label_pc_280a:
  %0 = call i64 @function_2280(i64 0, i64 0), !insn.addr !109
  %1 = call i64 @function_2280(i64 2097154, i64 0), !insn.addr !110
  %2 = call i64 @function_22d0(), !insn.addr !111
  %3 = call i64 @function_2360(i64 %2), !insn.addr !112
  %4 = inttoptr i64 %3 to i64*, !insn.addr !113
  %5 = call i64 @_Z22failSetInsecureCiphersP10ssl_ctx_st(i64* %4), !insn.addr !113
  %6 = call i64 @_Z29failSetInsecureCiphersLiteralP10ssl_ctx_st(i64* %4), !insn.addr !114
  %7 = call i64 @_Z25failSetInsecureCiphersSTLP10ssl_ctx_st(i64* %4), !insn.addr !115
  %8 = call i64 @_Z28failSetInsecureCiphersGlobalP10ssl_ctx_st(i64* %4), !insn.addr !116
  %9 = call i64 @function_2400(i64 %3, i64 1, i64 0), !insn.addr !117
  %10 = call i64 @_Z23failDisableVerificationP10ssl_ctx_st(i64* %4), !insn.addr !118
  ret i64 %3, !insn.addr !119

; uselistorder directives
  uselistorder i64 (i64, i64, i64)* @function_2400, { 1, 0 }
  uselistorder i64 (i64, i64)* @function_2280, { 1, 0 }
}

define i64 @main(i64 %argc, i8** %argv) local_unnamed_addr {
dec_label_pc_289d:
  %rax.1.reg2mem = alloca i64, !insn.addr !120
  %rax.0.reg2mem = alloca i64, !insn.addr !120
  %stack_var_-72 = alloca i64, align 8
  %0 = call i64 @__readfsqword(i64 40), !insn.addr !121
  %1 = call i64 @_ZNSaIcEC1Ev(), !insn.addr !122
  %2 = bitcast i64* %stack_var_-72 to i8*, !insn.addr !123
  %3 = call i64 @_ZNSt7__cxx1112basic_stringIcSt11char_traitsIcESaIcEEC1EPKcRKS3_(i8* nonnull %2, i64* bitcast ([14 x i8]* @global_var_3058 to i64*)), !insn.addr !123
  %4 = ptrtoint i64* %stack_var_-72 to i64, !insn.addr !124
  %5 = call i64 @_Z9connectToNSt7__cxx1112basic_stringIcSt11char_traitsIcESaIcEEEi(i64 %4, i32 2), !insn.addr !125
  %6 = trunc i64 %5 to i32, !insn.addr !126
  %7 = call i64 @_ZNSt7__cxx1112basic_stringIcSt11char_traitsIcESaIcEED1Ev(), !insn.addr !127
  %8 = call i64 @_ZNSaIcED1Ev(), !insn.addr !128
  %9 = icmp slt i32 %6, 0, !insn.addr !129
  %10 = icmp eq i1 %9, false, !insn.addr !130
  store i64 4294967295, i64* %rax.0.reg2mem, !insn.addr !130
  br i1 %10, label %dec_label_pc_291f, label %dec_label_pc_2aea, !insn.addr !130

dec_label_pc_291f:                                ; preds = %dec_label_pc_289d
  %11 = call i64 @_Z14initTLSContextv(), !insn.addr !131
  %12 = call i64 @function_2260(i64 %11), !insn.addr !132
  store i64 %12, i64* @global_var_5278, align 8, !insn.addr !133
  %13 = icmp eq i64 %12, 0, !insn.addr !134
  %14 = icmp eq i1 %13, false, !insn.addr !135
  br i1 %14, label %dec_label_pc_2979, label %dec_label_pc_2947, !insn.addr !135

dec_label_pc_2947:                                ; preds = %dec_label_pc_291f
  %15 = call i64 @_ZStlsISt11char_traitsIcEERSt13basic_ostreamIcT_ES5_PKc(i64* nonnull @global_var_5160, i8* getelementptr inbounds ([20 x i8], [20 x i8]* @global_var_3066, i64 0, i64 0)), !insn.addr !136
  %16 = inttoptr i64 %15 to i64* (i64*)*, !insn.addr !137
  %17 = call i64 @_ZNSolsEPFRSoS_E(i64* (i64*)* %16), !insn.addr !137
  store i64 4294967295, i64* %rax.0.reg2mem, !insn.addr !138
  br label %dec_label_pc_2aea, !insn.addr !138

dec_label_pc_2979:                                ; preds = %dec_label_pc_291f
  %18 = and i64 %5, 4294967295, !insn.addr !139
  %19 = call i64 @function_2240(i64 %12, i64 %18, i32 %6), !insn.addr !140
  %20 = load i64, i64* @global_var_5278, align 8, !insn.addr !141
  %21 = call i64 @function_2370(i64 %20), !insn.addr !142
  %22 = trunc i64 %21 to i32, !insn.addr !143
  %23 = icmp eq i32 %22, 0, !insn.addr !144
  %24 = icmp slt i32 %22, 0, !insn.addr !144
  %25 = icmp eq i1 %24, false, !insn.addr !145
  %26 = icmp eq i1 %23, false, !insn.addr !145
  %27 = icmp eq i1 %25, %26, !insn.addr !145
  br i1 %27, label %dec_label_pc_2a57, label %dec_label_pc_29a5, !insn.addr !145

dec_label_pc_29a5:                                ; preds = %dec_label_pc_2979
  %28 = call i64 @function_22a0(), !insn.addr !146
  %29 = call i64 @_ZStlsISt11char_traitsIcEERSt13basic_ostreamIcT_ES5_PKc(i64* nonnull @global_var_5160, i8* getelementptr inbounds ([44 x i8], [44 x i8]* @global_var_3080, i64 0, i64 0)), !insn.addr !147
  %sext = mul i64 %28, 4294967296
  %30 = ashr exact i64 %sext, 32, !insn.addr !148
  %31 = call i64 @function_2410(i64 %30, i64 0), !insn.addr !149
  %32 = inttoptr i64 %29 to i64*, !insn.addr !150
  %33 = inttoptr i64 %31 to i8*, !insn.addr !150
  %34 = call i64 @_ZStlsISt11char_traitsIcEERSt13basic_ostreamIcT_ES5_PKc(i64* %32, i8* %33), !insn.addr !150
  %35 = inttoptr i64 %34 to i64* (i64*)*, !insn.addr !151
  %36 = call i64 @_ZNSolsEPFRSoS_E(i64* (i64*)* %35), !insn.addr !151
  store i64 4294967295, i64* %rax.0.reg2mem, !insn.addr !152
  br label %dec_label_pc_2aea, !insn.addr !152

dec_label_pc_2a57:                                ; preds = %dec_label_pc_2979
  %37 = load i64, i64* @global_var_5278, align 8, !insn.addr !153
  %38 = call i64 @function_23d0(i64 %37), !insn.addr !154
  %39 = icmp eq i64 %38, 0, !insn.addr !155
  %40 = icmp eq i1 %39, false, !insn.addr !156
  br i1 %40, label %dec_label_pc_2a98, label %dec_label_pc_2a70, !insn.addr !157

dec_label_pc_2a70:                                ; preds = %dec_label_pc_2a57
  %41 = call i64 @_ZStlsISt11char_traitsIcEERSt13basic_ostreamIcT_ES5_PKc(i64* nonnull @global_var_5040, i8* getelementptr inbounds ([36 x i8], [36 x i8]* @global_var_30b0, i64 0, i64 0)), !insn.addr !158
  %42 = inttoptr i64 %41 to i64* (i64*)*, !insn.addr !159
  %43 = call i64 @_ZNSolsEPFRSoS_E(i64* (i64*)* %42), !insn.addr !159
  br label %dec_label_pc_2a98, !insn.addr !159

dec_label_pc_2a98:                                ; preds = %dec_label_pc_2a70, %dec_label_pc_2a57
  %44 = call i64 @_ZStlsISt11char_traitsIcEERSt13basic_ostreamIcT_ES5_PKc(i64* nonnull @global_var_5040, i8* getelementptr inbounds ([37 x i8], [37 x i8]* @global_var_30d8, i64 0, i64 0)), !insn.addr !160
  %45 = load i64, i64* @global_var_5278, align 8, !insn.addr !161
  %46 = call i64 @function_23c0(i64 %45), !insn.addr !162
  %47 = call i64 @function_22c0(i64 %46), !insn.addr !163
  %48 = inttoptr i64 %44 to i64*, !insn.addr !164
  %49 = inttoptr i64 %47 to i8*, !insn.addr !164
  %50 = call i64 @_ZStlsISt11char_traitsIcEERSt13basic_ostreamIcT_ES5_PKc(i64* %48, i8* %49), !insn.addr !164
  %51 = inttoptr i64 %50 to i64* (i64*)*, !insn.addr !165
  %52 = call i64 @_ZNSolsEPFRSoS_E(i64* (i64*)* %51), !insn.addr !165
  store i64 0, i64* %rax.0.reg2mem, !insn.addr !166
  br label %dec_label_pc_2aea, !insn.addr !166

dec_label_pc_2aea:                                ; preds = %dec_label_pc_289d, %dec_label_pc_2a98, %dec_label_pc_29a5, %dec_label_pc_2947
  %rax.0.reload = load i64, i64* %rax.0.reg2mem
  %53 = call i64 @__readfsqword(i64 40), !insn.addr !167
  %54 = icmp eq i64 %0, %53, !insn.addr !167
  store i64 %rax.0.reload, i64* %rax.1.reg2mem, !insn.addr !168
  br i1 %54, label %dec_label_pc_2b33, label %dec_label_pc_2b2e, !insn.addr !168

dec_label_pc_2b2e:                                ; preds = %dec_label_pc_2aea
  call void @__stack_chk_fail(), !insn.addr !169
  store i64 ptrtoint (i32* @0 to i64), i64* %rax.1.reg2mem, !insn.addr !169
  br label %dec_label_pc_2b33, !insn.addr !169

dec_label_pc_2b33:                                ; preds = %dec_label_pc_2b2e, %dec_label_pc_2aea
  %rax.1.reload = load i64, i64* %rax.1.reg2mem
  ret i64 %rax.1.reload, !insn.addr !170

; uselistorder directives
  uselistorder i32 %22, { 1, 0 }
  uselistorder i64* %stack_var_-72, { 1, 0 }
  uselistorder i64* %rax.0.reg2mem, { 0, 4, 3, 2, 1 }
  uselistorder i64 (i64* (i64*)*)* @_ZNSolsEPFRSoS_E, { 5, 4, 3, 2, 1, 0, 6 }
  uselistorder i64 (i64*, i8*)* @_ZStlsISt11char_traitsIcEERSt13basic_ostreamIcT_ES5_PKc, { 8, 7, 6, 5, 4, 3, 2, 1, 0, 9 }
  uselistorder i64 4294967295, { 2, 5, 1, 0, 4, 3 }
  uselistorder i32 0, { 2, 3, 4, 5, 0, 6, 1 }
  uselistorder i64 (i8*, i64*)* @_ZNSt7__cxx1112basic_stringIcSt11char_traitsIcESaIcEEC1EPKcRKS3_, { 1, 0, 2 }
  uselistorder i64 ()* @_ZNSaIcEC1Ev, { 1, 0, 2 }
  uselistorder label %dec_label_pc_2aea, { 1, 2, 3, 0 }
}

define i64 @_Z10callMeBackiP17x509_store_ctx_st(i32 %arg1, i64* %arg2) local_unnamed_addr {
dec_label_pc_2b3a:
  ret i64 1, !insn.addr !171
}

define i64 @_Z41__static_initialization_and_destruction_0ii(i32 %arg1, i32 %arg2) local_unnamed_addr {
dec_label_pc_2b50:
  %rax.0.reg2mem = alloca i64, !insn.addr !172
  %0 = icmp eq i32 %arg1, 1, !insn.addr !173
  %1 = icmp eq i32 %arg2, 65535, !insn.addr !174
  %2 = icmp eq i1 %0, %1
  br i1 %2, label %dec_label_pc_2b71, label %dec_label_pc_2b9a, !insn.addr !175

dec_label_pc_2b71:                                ; preds = %dec_label_pc_2b50
  %3 = call i64 @_ZNSt8ios_base4InitC1Ev(), !insn.addr !176
  %4 = load i64, i64* inttoptr (i64 20472 to i64*), align 8, !insn.addr !177
  %5 = inttoptr i64 %4 to void (i64*)*, !insn.addr !178
  %6 = call i32 @__cxa_atexit(void (i64*)* %5, i64* nonnull @global_var_5280, i64* nonnull @global_var_5008), !insn.addr !178
  %7 = sext i32 %6 to i64, !insn.addr !178
  store i64 %7, i64* %rax.0.reg2mem, !insn.addr !178
  br label %dec_label_pc_2b9a, !insn.addr !178

dec_label_pc_2b9a:                                ; preds = %dec_label_pc_2b50, %dec_label_pc_2b71
  %rax.0.reload = load i64, i64* %rax.0.reg2mem
  ret i64 %rax.0.reload, !insn.addr !179

; uselistorder directives
  uselistorder label %dec_label_pc_2b9a, { 1, 0 }
}

define i64 @_GLOBAL__sub_I_ssl() local_unnamed_addr {
dec_label_pc_2b9d:
  %0 = call i64 @_Z41__static_initialization_and_destruction_0ii(i32 1, i32 65535), !insn.addr !180
  ret i64 %0, !insn.addr !181

; uselistorder directives
  uselistorder i32 65535, { 1, 0 }
}

define i64 @__libc_csu_init(i64 %arg1, i64 %arg2, i64 %arg3) local_unnamed_addr {
dec_label_pc_2bc0:
  %rbx.0.reg2mem = alloca i64, !insn.addr !182
  %0 = call i64 @_init(), !insn.addr !183
  store i64 0, i64* %rbx.0.reg2mem, !insn.addr !184
  br i1 icmp eq (i64 ashr (i64 sub (i64 ptrtoint (i64* @global_var_4c80 to i64), i64 ptrtoint (i64* @global_var_4c70 to i64)), i64 3), i64 0), label %dec_label_pc_2c16, label %dec_label_pc_2c00, !insn.addr !184

dec_label_pc_2c00:                                ; preds = %dec_label_pc_2bc0, %dec_label_pc_2c00
  %rbx.0.reload = load i64, i64* %rbx.0.reg2mem
  %1 = add i64 %rbx.0.reload, 1, !insn.addr !185
  %2 = icmp eq i64 %1, ashr (i64 sub (i64 ptrtoint (i64* @global_var_4c80 to i64), i64 ptrtoint (i64* @global_var_4c70 to i64)), i64 3), !insn.addr !186
  %3 = icmp eq i1 %2, false, !insn.addr !187
  store i64 %1, i64* %rbx.0.reg2mem, !insn.addr !187
  br i1 %3, label %dec_label_pc_2c00, label %dec_label_pc_2c16, !insn.addr !187

dec_label_pc_2c16:                                ; preds = %dec_label_pc_2c00, %dec_label_pc_2bc0
  ret i64 %0, !insn.addr !188

; uselistorder directives
  uselistorder i64* %rbx.0.reg2mem, { 2, 0, 1 }
  uselistorder i1 false, { 3, 0, 4, 1, 5, 6, 2, 7, 8, 9 }
  uselistorder i64 1, { 3, 0, 1, 2 }
  uselistorder i64 0, { 6, 0, 1, 7, 8, 9, 10, 33, 23, 11, 12, 13, 14, 34, 24, 25, 27, 26, 2, 3, 15, 16, 17, 18, 19, 20, 21, 22, 35, 5, 4, 36, 28, 29, 30, 31, 32 }
  uselistorder label %dec_label_pc_2c00, { 1, 0 }
}

define i64 @__libc_csu_fini() local_unnamed_addr {
dec_label_pc_2c30:
  %0 = alloca i64
  %1 = load i64, i64* %0
  ret i64 %1, !insn.addr !189
}

define i64 @_fini() local_unnamed_addr {
dec_label_pc_2c38:
  %0 = alloca i64
  %1 = load i64, i64* %0
  ret i64 %1, !insn.addr !190

; uselistorder directives
  uselistorder i32 1, { 5, 4, 6, 15, 16, 7, 18, 9, 8, 3, 2, 19, 10, 1, 20, 11, 17, 21, 13, 12, 0, 22, 14 }
}

declare i16 @htons(i16) local_unnamed_addr

declare i64 @SSL_set_fd() local_unnamed_addr

declare i32 @socket(i32, i32, i32) local_unnamed_addr

declare i64 @SSL_new() local_unnamed_addr

declare i64 @_ZNKSt7__cxx1112basic_stringIcSt11char_traitsIcESaIcEE5c_strEv() local_unnamed_addr

declare i64 @OPENSSL_init_ssl() local_unnamed_addr

declare i64* @memset(i64*, i32, i32) local_unnamed_addr

declare i64 @ERR_get_error() local_unnamed_addr

declare i64 @_ZNSt7__cxx1112basic_stringIcSt11char_traitsIcESaIcEED1Ev() local_unnamed_addr

declare i64 @SSL_CIPHER_get_name() local_unnamed_addr

declare i64 @TLSv1_2_client_method() local_unnamed_addr

declare i32 @connect(i32, %sockaddr*, i32) local_unnamed_addr

declare i32 @__cxa_atexit(void (i64*)*, i64*, i64*) local_unnamed_addr

declare i64 @_ZStlsIcSt11char_traitsIcESaIcEERSt13basic_ostreamIT_T0_ES7_RKNSt7__cxx1112basic_stringIS4_S5_T1_EE(i64*, i64*) local_unnamed_addr

declare i64 @_ZStlsISt11char_traitsIcEERSt13basic_ostreamIcT_ES5_PKc(i64*, i8*) local_unnamed_addr

declare i32 @inet_addr(i8*) local_unnamed_addr

declare i64 @_ZNSolsEPFRSoS_E(i64* (i64*)*) local_unnamed_addr

declare i64 @_ZNSaIcED1Ev() local_unnamed_addr

declare void @__stack_chk_fail() local_unnamed_addr

declare i64 @SSL_CTX_new() local_unnamed_addr

declare i64 @SSL_connect() local_unnamed_addr

declare i64 @SSL_CTX_set_cipher_list() local_unnamed_addr

declare i64 @_ZNSt7__cxx1112basic_stringIcSt11char_traitsIcESaIcEEC1EPKcRKS3_(i8*, i64*) local_unnamed_addr

declare i64 @_ZNSt8ios_base4InitC1Ev() local_unnamed_addr

declare i32 @puts(i8*) local_unnamed_addr

declare i64 @SSL_get_current_cipher() local_unnamed_addr

declare i64 @SSL_get_verify_result() local_unnamed_addr

declare void @_Unwind_Resume(%_Unwind_Exception*) local_unnamed_addr

declare i64 @_ZNSaIcEC1Ev() local_unnamed_addr

declare i64 @SSL_CTX_set_verify() local_unnamed_addr

declare i64 @ERR_error_string() local_unnamed_addr

declare void @__cxa_finalize(i64*) local_unnamed_addr

declare i32 @__libc_start_main(i64, i32, i8**, void ()*, void ()*, void ()*) local_unnamed_addr

declare void @__gmon_start__() local_unnamed_addr

declare i64 @__asm_hlt() local_unnamed_addr

declare i64 @__readfsqword(i64) local_unnamed_addr

!0 = !{i64 8192}
!1 = !{i64 8200}
!2 = !{i64 8207}
!3 = !{i64 8210}
!4 = !{i64 8212}
!5 = !{i64 8218}
!6 = !{i64 8740}
!7 = !{i64 8756}
!8 = !{i64 8772}
!9 = !{i64 8788}
!10 = !{i64 8804}
!11 = !{i64 8820}
!12 = !{i64 8836}
!13 = !{i64 8852}
!14 = !{i64 8868}
!15 = !{i64 8884}
!16 = !{i64 8900}
!17 = !{i64 8916}
!18 = !{i64 8932}
!19 = !{i64 8948}
!20 = !{i64 8964}
!21 = !{i64 8980}
!22 = !{i64 8996}
!23 = !{i64 9012}
!24 = !{i64 9028}
!25 = !{i64 9044}
!26 = !{i64 9060}
!27 = !{i64 9076}
!28 = !{i64 9092}
!29 = !{i64 9108}
!30 = !{i64 9124}
!31 = !{i64 9140}
!32 = !{i64 9156}
!33 = !{i64 9172}
!34 = !{i64 9188}
!35 = !{i64 9204}
!36 = !{i64 9220}
!37 = !{i64 9236}
!38 = !{i64 9288}
!39 = !{i64 9294}
!40 = !{i64 9336}
!41 = !{i64 9400}
!42 = !{i64 9412}
!43 = !{i64 9419}
!44 = !{i64 9422}
!45 = !{i64 9433}
!46 = !{i64 9435}
!47 = !{i64 9442}
!48 = !{i64 9447}
!49 = !{i64 9452}
!50 = !{i64 9460}
!51 = !{i64 9464}
!52 = !{i64 9476}
!53 = !{i64 9481}
!54 = !{i64 9500}
!55 = !{i64 9530}
!56 = !{i64 9538}
!57 = !{i64 9542}
!58 = !{i64 9551}
!59 = !{i64 9561}
!60 = !{i64 9580}
!61 = !{i64 9598}
!62 = !{i64 9613}
!63 = !{i64 9634}
!64 = !{i64 9656}
!65 = !{i64 9661}
!66 = !{i64 9674}
!67 = !{i64 9682}
!68 = !{i64 9695}
!69 = !{i64 9728}
!70 = !{i64 9733}
!71 = !{i64 9735}
!72 = !{i64 9738}
!73 = !{i64 9740}
!74 = !{i64 9756}
!75 = !{i64 9777}
!76 = !{i64 9787}
!77 = !{i64 9789}
!78 = !{i64 9796}
!79 = !{i64 9805}
!80 = !{i64 9807}
!81 = !{i64 9813}
!82 = !{i64 9849}
!83 = !{i64 9856}
!84 = !{i64 9857}
!85 = !{i64 9873}
!86 = !{i64 9898}
!87 = !{i64 9920}
!88 = !{i64 9930}
!89 = !{i64 9939}
!90 = !{i64 9941}
!91 = !{i64 9947}
!92 = !{i64 9978}
!93 = !{i64 9985}
!94 = !{i64 9986}
!95 = !{i64 10003}
!96 = !{i64 10025}
!97 = !{i64 10048}
!98 = !{i64 10060}
!99 = !{i64 10072}
!100 = !{i64 10090}
!101 = !{i64 10102}
!102 = !{i64 10112}
!103 = !{i64 10121}
!104 = !{i64 10185}
!105 = !{i64 10196}
!106 = !{i64 10227}
!107 = !{i64 10234}
!108 = !{i64 10249}
!109 = !{i64 10272}
!110 = !{i64 10287}
!111 = !{i64 10292}
!112 = !{i64 10300}
!113 = !{i64 10316}
!114 = !{i64 10328}
!115 = !{i64 10340}
!116 = !{i64 10352}
!117 = !{i64 10374}
!118 = !{i64 10386}
!119 = !{i64 10396}
!120 = !{i64 10397}
!121 = !{i64 10417}
!122 = !{i64 10439}
!123 = !{i64 10462}
!124 = !{i64 10476}
!125 = !{i64 10479}
!126 = !{i64 10484}
!127 = !{i64 10494}
!128 = !{i64 10506}
!129 = !{i64 10511}
!130 = !{i64 10515}
!131 = !{i64 10527}
!132 = !{i64 10543}
!133 = !{i64 10548}
!134 = !{i64 10562}
!135 = !{i64 10565}
!136 = !{i64 10581}
!137 = !{i64 10602}
!138 = !{i64 10612}
!139 = !{i64 10627}
!140 = !{i64 10632}
!141 = !{i64 10637}
!142 = !{i64 10647}
!143 = !{i64 10652}
!144 = !{i64 10655}
!145 = !{i64 10659}
!146 = !{i64 10661}
!147 = !{i64 10683}
!148 = !{i64 10694}
!149 = !{i64 10704}
!150 = !{i64 10715}
!151 = !{i64 10736}
!152 = !{i64 10746}
!153 = !{i64 10839}
!154 = !{i64 10849}
!155 = !{i64 10854}
!156 = !{i64 10860}
!157 = !{i64 10862}
!158 = !{i64 10878}
!159 = !{i64 10899}
!160 = !{i64 10918}
!161 = !{i64 10926}
!162 = !{i64 10936}
!163 = !{i64 10944}
!164 = !{i64 10955}
!165 = !{i64 10976}
!166 = !{i64 10981}
!167 = !{i64 10990}
!168 = !{i64 10999}
!169 = !{i64 11054}
!170 = !{i64 11065}
!171 = !{i64 11087}
!172 = !{i64 11088}
!173 = !{i64 11106}
!174 = !{i64 11112}
!175 = !{i64 11110}
!176 = !{i64 11128}
!177 = !{i64 11147}
!178 = !{i64 11157}
!179 = !{i64 11164}
!180 = !{i64 11183}
!181 = !{i64 11189}
!182 = !{i64 11200}
!183 = !{i64 11244}
!184 = !{i64 11253}
!185 = !{i64 11277}
!186 = !{i64 11281}
!187 = !{i64 11284}
!188 = !{i64 11300}
!189 = !{i64 11316}
!190 = !{i64 11332}
