; ModuleID = 'memchr.a0036eed-cgu.0'
source_filename = "memchr.a0036eed-cgu.0"
target datalayout = "e-m:e-p270:32:32-p271:32:32-p272:64:64-i64:64-f80:128-n8:16:32:64-S128"
target triple = "x86_64-unknown-linux-gnu"

%"memmem::NeedleInfo" = type { { i32, i32 }, { i8, i8 }, [2 x i8] }
%"core::panic::location::Location" = type { { [0 x i8]*, i64 }, i32, i32 }
%"core::fmt::Formatter" = type { { i64, i64 }, { i64, i64 }, { {}*, [3 x i64]* }, i32, i32, i8, [7 x i8] }
%"memmem::FindIter" = type { { [0 x i8]*, i64 }, %"memmem::Finder", i64, { i32, i32 } }
%"memmem::Finder" = type { %"memmem::Searcher" }
%"memmem::Searcher" = type { { i8*, i64 }, i64*, %"memmem::SearcherKind", %"memmem::NeedleInfo", [1 x i32] }
%"memmem::SearcherKind" = type { i8, [39 x i8] }
%"memmem::twoway::Forward" = type { %"memmem::twoway::TwoWay" }
%"memmem::twoway::TwoWay" = type { i64, i64, { i64, i64 } }
%"memmem::FindRevIter" = type { { [0 x i8]*, i64 }, %"memmem::FinderRev", { i64, i64 } }
%"memmem::FinderRev" = type { %"memmem::SearcherRev" }
%"memmem::SearcherRev" = type { { i8*, i64 }, %"memmem::SearcherRevKind", { i32, i32 } }
%"memmem::SearcherRevKind" = type { i8, [39 x i8] }
%"core::option::Option<core::fmt::Arguments>" = type { {}*, [5 x i64] }
%"core::fmt::builders::DebugTuple" = type { %"core::fmt::Formatter"*, i64, i8, i8, [6 x i8] }
%"core::fmt::builders::DebugStruct" = type { %"core::fmt::Formatter"*, i8, i8, [6 x i8] }
%"memmem::twoway::Reverse" = type { %"memmem::twoway::TwoWay" }
%"memmem::x86::avx::nostd::Forward" = type { {} }
%"core::fmt::builders::DebugList" = type { %"core::fmt::builders::DebugInner" }
%"core::fmt::builders::DebugInner" = type { %"core::fmt::Formatter"*, i8, i8, [6 x i8] }

@alloc1050 = private unnamed_addr constant <{ [101 x i8] }> <{ [101 x i8] c"/home/alwagner/.cargo/registry/src/github.com-1ecc6299db9ec823/memchr-2.4.1/src/memmem/genericsimd.rs" }>, align 1
@alloc1049 = private unnamed_addr constant <{ i8*, [16 x i8] }> <{ i8* getelementptr inbounds (<{ [101 x i8] }>, <{ [101 x i8] }>* @alloc1050, i32 0, i32 0, i32 0), [16 x i8] c"e\00\00\00\00\00\00\00\83\00\00\00\1F\00\00\00" }>, align 8
@alloc1051 = private unnamed_addr constant <{ i8*, [16 x i8] }> <{ i8* getelementptr inbounds (<{ [101 x i8] }>, <{ [101 x i8] }>* @alloc1050, i32 0, i32 0, i32 0), [16 x i8] c"e\00\00\00\00\00\00\00\84\00\00\00\1F\00\00\00" }>, align 8
@alloc1054 = private unnamed_addr constant <{ [31 x i8] }> <{ [31 x i8] c"needle must be at least 2 bytes" }>, align 1
@alloc1059 = private unnamed_addr constant <{ [111 x i8] }> <{ [111 x i8] c"/home/alwagner/.cargo/registry/src/github.com-1ecc6299db9ec823/memchr-2.4.1/src/memmem/prefilter/genericsimd.rs" }>, align 1
@alloc1056 = private unnamed_addr constant <{ i8*, [16 x i8] }> <{ i8* getelementptr inbounds (<{ [111 x i8] }>, <{ [111 x i8] }>* @alloc1059, i32 0, i32 0, i32 0), [16 x i8] c"o\00\00\00\00\00\00\003\00\00\00\05\00\00\00" }>, align 8
@alloc1058 = private unnamed_addr constant <{ i8*, [16 x i8] }> <{ i8* getelementptr inbounds (<{ [111 x i8] }>, <{ [111 x i8] }>* @alloc1059, i32 0, i32 0, i32 0), [16 x i8] c"o\00\00\00\00\00\00\00?\00\00\00\1F\00\00\00" }>, align 8
@alloc1060 = private unnamed_addr constant <{ i8*, [16 x i8] }> <{ i8* getelementptr inbounds (<{ [111 x i8] }>, <{ [111 x i8] }>* @alloc1059, i32 0, i32 0, i32 0), [16 x i8] c"o\00\00\00\00\00\00\00@\00\00\00\1F\00\00\00" }>, align 8
@alloc1061 = private unnamed_addr constant <{ [107 x i8] }> <{ [107 x i8] c"/home/alwagner/.cargo/registry/src/github.com-1ecc6299db9ec823/memchr-2.4.1/src/memmem/prefilter/x86/sse.rs" }>, align 1
@alloc1062 = private unnamed_addr constant <{ i8*, [16 x i8] }> <{ i8* getelementptr inbounds (<{ [107 x i8] }>, <{ [107 x i8] }>* @alloc1061, i32 0, i32 0, i32 0), [16 x i8] c"k\00\00\00\00\00\00\00#\00\00\00\17\00\00\00" }>, align 8
@alloc1063 = private unnamed_addr constant <{ [19 x i8] }> <{ [19 x i8] c"<prefilter-fn(...)>" }>, align 1
@alloc1082 = private unnamed_addr constant <{ [99 x i8] }> <{ [99 x i8] c"/home/alwagner/.cargo/registry/src/github.com-1ecc6299db9ec823/memchr-2.4.1/src/memmem/rabinkarp.rs" }>, align 1
@alloc1077 = private unnamed_addr constant <{ i8*, [16 x i8] }> <{ i8* getelementptr inbounds (<{ [99 x i8] }>, <{ [99 x i8] }>* @alloc1082, i32 0, i32 0, i32 0), [16 x i8] c"c\00\00\00\00\00\00\00a\00\00\00\0D\00\00\00" }>, align 8
@alloc1094 = private unnamed_addr constant <{ [99 x i8] }> <{ [99 x i8] c"/home/alwagner/.cargo/registry/src/github.com-1ecc6299db9ec823/memchr-2.4.1/src/memmem/rarebytes.rs" }>, align 1
@alloc1089 = private unnamed_addr constant <{ i8*, [16 x i8] }> <{ i8* getelementptr inbounds (<{ [99 x i8] }>, <{ [99 x i8] }>* @alloc1094, i32 0, i32 0, i32 0), [16 x i8] c"c\00\00\00\00\00\00\00T\00\00\00\09\00\00\00" }>, align 8
@0 = private unnamed_addr constant <{ [256 x i8] }> <{ [256 x i8] c"743210/.-g\F2BC\E5,+*)('&%$#\22!8 \1F\1E\1D\1C\FF\94\A4\95\88\A0\9B\AD\DD\DE\86z\E8\CA\D7\E0\D0\DC\CC\BB\B7\B3\B1\A8\B2\C8\E2\C3\9A\B8\AE~x\BF\9D\C2\AA\BD\A2\A1\96\C1\8E\89\AB\B0\B9\A7\BAp\AF\C0\BC\9C\8C\8F{\85\80\93\8A\92r\DF\97\F9\D8\EE\EC\FD\E3\DA\E6\F7\87\B4\F1\E9\F6\F4\E7\8B\F5\F3\FB\EB\C9\C4\F0\D6\98\B6\CD\B5\7F\1B\D4\D3\D2\D5\E4\C5\A9\9F\83\ACiPb`aQ\CF\91ts\90\82\99yk\84mn|oRlv\8Dq\81w}\A5u\\jSHc]AO\A6\ED\A3\C7\BE\E1\D1\CB\C6\D9\DB\CE\EA\F8\9E\EF\FF\FF\FF\FF\FF\FF\FF\FF\FF\FF\FF\FF\FF\FF\FF\FF\FF\FF\FF\FF\FF\FF\FF\FF\FF\FF\FF\FF\FF\FF\FF\FF\FF\FF\FF\FF\FF\FF\FF\FF\FF\FF\FF\FF\FF\FF\FF\FF\FF\FF\FF\FF\FF\FF\FF\FF\FF\FF\FF\FF\FF\FF\FF\FF" }>, align 1
@alloc1166 = private unnamed_addr constant <{ [96 x i8] }> <{ [96 x i8] c"/home/alwagner/.cargo/registry/src/github.com-1ecc6299db9ec823/memchr-2.4.1/src/memmem/twoway.rs" }>, align 1
@alloc1097 = private unnamed_addr constant <{ i8*, [16 x i8] }> <{ i8* getelementptr inbounds (<{ [96 x i8] }>, <{ [96 x i8] }>* @alloc1166, i32 0, i32 0, i32 0), [16 x i8] c"`\00\00\00\00\00\00\00\A6\00\00\00&\00\00\00" }>, align 8
@alloc1099 = private unnamed_addr constant <{ i8*, [16 x i8] }> <{ i8* getelementptr inbounds (<{ [96 x i8] }>, <{ [96 x i8] }>* @alloc1166, i32 0, i32 0, i32 0), [16 x i8] c"`\00\00\00\00\00\00\00\AE\00\00\00)\00\00\00" }>, align 8
@alloc1103 = private unnamed_addr constant <{ i8*, [16 x i8] }> <{ i8* getelementptr inbounds (<{ [96 x i8] }>, <{ [96 x i8] }>* @alloc1166, i32 0, i32 0, i32 0), [16 x i8] c"`\00\00\00\00\00\00\00\B3\00\00\004\00\00\00" }>, align 8
@alloc1105 = private unnamed_addr constant <{ i8*, [16 x i8] }> <{ i8* getelementptr inbounds (<{ [96 x i8] }>, <{ [96 x i8] }>* @alloc1166, i32 0, i32 0, i32 0), [16 x i8] c"`\00\00\00\00\00\00\00\BB\00\00\00$\00\00\00" }>, align 8
@alloc1107 = private unnamed_addr constant <{ i8*, [16 x i8] }> <{ i8* getelementptr inbounds (<{ [96 x i8] }>, <{ [96 x i8] }>* @alloc1166, i32 0, i32 0, i32 0), [16 x i8] c"`\00\00\00\00\00\00\00\BB\00\00\001\00\00\00" }>, align 8
@alloc1109 = private unnamed_addr constant <{ i8*, [16 x i8] }> <{ i8* getelementptr inbounds (<{ [96 x i8] }>, <{ [96 x i8] }>* @alloc1166, i32 0, i32 0, i32 0), [16 x i8] c"`\00\00\00\00\00\00\00\BE\00\00\00\22\00\00\00" }>, align 8
@alloc1111 = private unnamed_addr constant <{ i8*, [16 x i8] }> <{ i8* getelementptr inbounds (<{ [96 x i8] }>, <{ [96 x i8] }>* @alloc1166, i32 0, i32 0, i32 0), [16 x i8] c"`\00\00\00\00\00\00\00\BE\00\00\003\00\00\00" }>, align 8
@alloc1113 = private unnamed_addr constant <{ i8*, [16 x i8] }> <{ i8* getelementptr inbounds (<{ [96 x i8] }>, <{ [96 x i8] }>* @alloc1166, i32 0, i32 0, i32 0), [16 x i8] c"`\00\00\00\00\00\00\00\D5\00\00\00&\00\00\00" }>, align 8
@alloc1115 = private unnamed_addr constant <{ i8*, [16 x i8] }> <{ i8* getelementptr inbounds (<{ [96 x i8] }>, <{ [96 x i8] }>* @alloc1166, i32 0, i32 0, i32 0), [16 x i8] c"`\00\00\00\00\00\00\00\DC\00\00\00)\00\00\00" }>, align 8
@alloc1119 = private unnamed_addr constant <{ i8*, [16 x i8] }> <{ i8* getelementptr inbounds (<{ [96 x i8] }>, <{ [96 x i8] }>* @alloc1166, i32 0, i32 0, i32 0), [16 x i8] c"`\00\00\00\00\00\00\00\E1\00\00\004\00\00\00" }>, align 8
@alloc1121 = private unnamed_addr constant <{ i8*, [16 x i8] }> <{ i8* getelementptr inbounds (<{ [96 x i8] }>, <{ [96 x i8] }>* @alloc1166, i32 0, i32 0, i32 0), [16 x i8] c"`\00\00\00\00\00\00\00\E8\00\00\00\18\00\00\00" }>, align 8
@alloc1123 = private unnamed_addr constant <{ i8*, [16 x i8] }> <{ i8* getelementptr inbounds (<{ [96 x i8] }>, <{ [96 x i8] }>* @alloc1166, i32 0, i32 0, i32 0), [16 x i8] c"`\00\00\00\00\00\00\00\E8\00\00\00%\00\00\00" }>, align 8
@alloc1125 = private unnamed_addr constant <{ i8*, [16 x i8] }> <{ i8* getelementptr inbounds (<{ [96 x i8] }>, <{ [96 x i8] }>* @alloc1166, i32 0, i32 0, i32 0), [16 x i8] c"`\00\00\00\00\00\00\00A\01\00\00)\00\00\00" }>, align 8
@alloc1127 = private unnamed_addr constant <{ i8*, [16 x i8] }> <{ i8* getelementptr inbounds (<{ [96 x i8] }>, <{ [96 x i8] }>* @alloc1166, i32 0, i32 0, i32 0), [16 x i8] c"`\00\00\00\00\00\00\00G\01\00\00\1C\00\00\00" }>, align 8
@alloc1129 = private unnamed_addr constant <{ i8*, [16 x i8] }> <{ i8* getelementptr inbounds (<{ [96 x i8] }>, <{ [96 x i8] }>* @alloc1166, i32 0, i32 0, i32 0), [16 x i8] c"`\00\00\00\00\00\00\00G\01\00\00-\00\00\00" }>, align 8
@alloc1135 = private unnamed_addr constant <{ i8*, [16 x i8] }> <{ i8* getelementptr inbounds (<{ [96 x i8] }>, <{ [96 x i8] }>* @alloc1166, i32 0, i32 0, i32 0), [16 x i8] c"`\00\00\00\00\00\00\00O\01\00\00$\00\00\00" }>, align 8
@alloc1137 = private unnamed_addr constant <{ i8*, [16 x i8] }> <{ i8* getelementptr inbounds (<{ [96 x i8] }>, <{ [96 x i8] }>* @alloc1166, i32 0, i32 0, i32 0), [16 x i8] c"`\00\00\00\00\00\00\00O\01\00\001\00\00\00" }>, align 8
@alloc1139 = private unnamed_addr constant <{ i8*, [16 x i8] }> <{ i8* getelementptr inbounds (<{ [96 x i8] }>, <{ [96 x i8] }>* @alloc1166, i32 0, i32 0, i32 0), [16 x i8] c"`\00\00\00\00\00\00\00f\01\00\00)\00\00\00" }>, align 8
@alloc1141 = private unnamed_addr constant <{ i8*, [16 x i8] }> <{ i8* getelementptr inbounds (<{ [96 x i8] }>, <{ [96 x i8] }>* @alloc1166, i32 0, i32 0, i32 0), [16 x i8] c"`\00\00\00\00\00\00\00k\01\00\00\1C\00\00\00" }>, align 8
@alloc1143 = private unnamed_addr constant <{ i8*, [16 x i8] }> <{ i8* getelementptr inbounds (<{ [96 x i8] }>, <{ [96 x i8] }>* @alloc1166, i32 0, i32 0, i32 0), [16 x i8] c"`\00\00\00\00\00\00\00k\01\00\00-\00\00\00" }>, align 8
@alloc1151 = private unnamed_addr constant <{ i8*, [16 x i8] }> <{ i8* getelementptr inbounds (<{ [96 x i8] }>, <{ [96 x i8] }>* @alloc1166, i32 0, i32 0, i32 0), [16 x i8] c"`\00\00\00\00\00\00\00r\01\00\000\00\00\00" }>, align 8
@alloc1153 = private unnamed_addr constant <{ i8*, [16 x i8] }> <{ i8* getelementptr inbounds (<{ [96 x i8] }>, <{ [96 x i8] }>* @alloc1166, i32 0, i32 0, i32 0), [16 x i8] c"`\00\00\00\00\00\00\00\BE\01\00\00\1D\00\00\00" }>, align 8
@alloc1155 = private unnamed_addr constant <{ i8*, [16 x i8] }> <{ i8* getelementptr inbounds (<{ [96 x i8] }>, <{ [96 x i8] }>* @alloc1166, i32 0, i32 0, i32 0), [16 x i8] c"`\00\00\00\00\00\00\00\BF\01\00\00\1E\00\00\00" }>, align 8
@alloc1157 = private unnamed_addr constant <{ i8*, [16 x i8] }> <{ i8* getelementptr inbounds (<{ [96 x i8] }>, <{ [96 x i8] }>* @alloc1166, i32 0, i32 0, i32 0), [16 x i8] c"`\00\00\00\00\00\00\00\D5\01\00\00\1D\00\00\00" }>, align 8
@alloc1159 = private unnamed_addr constant <{ i8*, [16 x i8] }> <{ i8* getelementptr inbounds (<{ [96 x i8] }>, <{ [96 x i8] }>* @alloc1166, i32 0, i32 0, i32 0), [16 x i8] c"`\00\00\00\00\00\00\00\D6\01\00\00\1E\00\00\00" }>, align 8
@alloc1161 = private unnamed_addr constant <{ i8*, [16 x i8] }> <{ i8* getelementptr inbounds (<{ [96 x i8] }>, <{ [96 x i8] }>* @alloc1166, i32 0, i32 0, i32 0), [16 x i8] c"`\00\00\00\00\00\00\00\08\02\00\00\1B\00\00\00" }>, align 8
@alloc1165 = private unnamed_addr constant <{ i8*, [16 x i8] }> <{ i8* getelementptr inbounds (<{ [96 x i8] }>, <{ [96 x i8] }>* @alloc1166, i32 0, i32 0, i32 0), [16 x i8] c"`\00\00\00\00\00\00\00.\02\00\00\1B\00\00\00" }>, align 8
@alloc1167 = private unnamed_addr constant <{ i8*, [16 x i8] }> <{ i8* getelementptr inbounds (<{ [96 x i8] }>, <{ [96 x i8] }>* @alloc1166, i32 0, i32 0, i32 0), [16 x i8] c"`\00\00\00\00\00\00\00/\02\00\00\1D\00\00\00" }>, align 8
@alloc1175 = private unnamed_addr constant <{ [40 x i8] }> <{ [40 x i8] c"internal error: entered unreachable code" }>, align 1
@alloc1176 = private unnamed_addr constant <{ [97 x i8] }> <{ [97 x i8] c"/home/alwagner/.cargo/registry/src/github.com-1ecc6299db9ec823/memchr-2.4.1/src/memmem/x86/avx.rs" }>, align 1
@alloc1174 = private unnamed_addr constant <{ i8*, [16 x i8] }> <{ i8* getelementptr inbounds (<{ [97 x i8] }>, <{ [97 x i8] }>* @alloc1176, i32 0, i32 0, i32 0), [16 x i8] c"a\00\00\00\00\00\00\00Z\00\00\00\0D\00\00\00" }>, align 8
@alloc1184 = private unnamed_addr constant <{ [93 x i8] }> <{ [93 x i8] c"/home/alwagner/.cargo/registry/src/github.com-1ecc6299db9ec823/memchr-2.4.1/src/memmem/mod.rs" }>, align 1
@alloc1181 = private unnamed_addr constant <{ i8*, [16 x i8] }> <{ i8* getelementptr inbounds (<{ [93 x i8] }>, <{ [93 x i8] }>* @alloc1184, i32 0, i32 0, i32 0), [16 x i8] c"]\00\00\00\00\00\00\00\7F\01\00\00)\00\00\00" }>, align 8
@alloc1186 = private unnamed_addr constant <{ [8 x i8] }> <{ [8 x i8] c"CowBytes" }>, align 1
@vtable.0 = private unnamed_addr constant <{ i8*, [16 x i8], i8*, [0 x i8] }> <{ i8* bitcast (void (i8**)* @"_ZN4core3ptr27drop_in_place$LT$$RF$u8$GT$17h7881da1182d783ccE" to i8*), [16 x i8] c"\08\00\00\00\00\00\00\00\08\00\00\00\00\00\00\00", i8* bitcast (i1 ({ i8*, i64 }**, %"core::fmt::Formatter"*)* @"_ZN42_$LT$$RF$T$u20$as$u20$core..fmt..Debug$GT$3fmt17hed460d61bf2992aaE" to i8*), [0 x i8] zeroinitializer }>, align 8
@alloc1190 = private unnamed_addr constant <{ [3 x i8] }> <{ [3 x i8] c"Imp" }>, align 1
@vtable.1 = private unnamed_addr constant <{ i8*, [16 x i8], i8*, [0 x i8] }> <{ i8* bitcast (void (i8**)* @"_ZN4core3ptr27drop_in_place$LT$$RF$u8$GT$17h7881da1182d783ccE" to i8*), [16 x i8] c"\08\00\00\00\00\00\00\00\08\00\00\00\00\00\00\00", i8* bitcast (i1 ({ [0 x i8]*, i64 }**, %"core::fmt::Formatter"*)* @"_ZN42_$LT$$RF$T$u20$as$u20$core..fmt..Debug$GT$3fmt17h3aea02fb6dd27823E" to i8*), [0 x i8] zeroinitializer }>, align 8
@alloc1256 = private unnamed_addr constant <{ [7 x i8] }> <{ [7 x i8] c"Forward" }>, align 1
@alloc1216 = private unnamed_addr constant <{ [6 x i8] }> <{ [6 x i8] c"rare1i" }>, align 1
@vtable.2 = private unnamed_addr constant <{ i8*, [16 x i8], i8*, [0 x i8] }> <{ i8* bitcast (void (i8**)* @"_ZN4core3ptr27drop_in_place$LT$$RF$u8$GT$17h7881da1182d783ccE" to i8*), [16 x i8] c"\08\00\00\00\00\00\00\00\08\00\00\00\00\00\00\00", i8* bitcast (i1 (i8**, %"core::fmt::Formatter"*)* @"_ZN42_$LT$$RF$T$u20$as$u20$core..fmt..Debug$GT$3fmt17hfc5006809de8f68cE" to i8*), [0 x i8] zeroinitializer }>, align 8
@alloc1217 = private unnamed_addr constant <{ [6 x i8] }> <{ [6 x i8] c"rare2i" }>, align 1
@alloc1200 = private unnamed_addr constant <{ [4 x i8] }> <{ [4 x i8] c"Auto" }>, align 1
@alloc1368 = private unnamed_addr constant <{ [4 x i8] }> <{ [4 x i8] c"None" }>, align 1
@alloc1202 = private unnamed_addr constant <{ [14 x i8] }> <{ [14 x i8] c"PrefilterState" }>, align 1
@alloc1203 = private unnamed_addr constant <{ [5 x i8] }> <{ [5 x i8] c"skips" }>, align 1
@vtable.3 = private unnamed_addr constant <{ i8*, [16 x i8], i8*, [0 x i8] }> <{ i8* bitcast (void (i8**)* @"_ZN4core3ptr27drop_in_place$LT$$RF$u8$GT$17h7881da1182d783ccE" to i8*), [16 x i8] c"\08\00\00\00\00\00\00\00\08\00\00\00\00\00\00\00", i8* bitcast (i1 (i32**, %"core::fmt::Formatter"*)* @"_ZN42_$LT$$RF$T$u20$as$u20$core..fmt..Debug$GT$3fmt17h15d12a7ec8ebf07bE" to i8*), [0 x i8] zeroinitializer }>, align 8
@alloc1207 = private unnamed_addr constant <{ [7 x i8] }> <{ [7 x i8] c"skipped" }>, align 1
@alloc1208 = private unnamed_addr constant <{ [10 x i8] }> <{ [10 x i8] c"NeedleHash" }>, align 1
@alloc1209 = private unnamed_addr constant <{ [4 x i8] }> <{ [4 x i8] c"hash" }>, align 1
@vtable.4 = private unnamed_addr constant <{ i8*, [16 x i8], i8*, [0 x i8] }> <{ i8* bitcast (void (i8**)* @"_ZN4core3ptr27drop_in_place$LT$$RF$u8$GT$17h7881da1182d783ccE" to i8*), [16 x i8] c"\08\00\00\00\00\00\00\00\08\00\00\00\00\00\00\00", i8* bitcast (i1 (i32**, %"core::fmt::Formatter"*)* @"_ZN42_$LT$$RF$T$u20$as$u20$core..fmt..Debug$GT$3fmt17h1b91a732156e1f6cE" to i8*), [0 x i8] zeroinitializer }>, align 8
@alloc1213 = private unnamed_addr constant <{ [9 x i8] }> <{ [9 x i8] c"hash_2pow" }>, align 1
@alloc1214 = private unnamed_addr constant <{ [4 x i8] }> <{ [4 x i8] c"Hash" }>, align 1
@alloc1215 = private unnamed_addr constant <{ [15 x i8] }> <{ [15 x i8] c"RareNeedleBytes" }>, align 1
@vtable.5 = private unnamed_addr constant <{ i8*, [16 x i8], i8*, [0 x i8] }> <{ i8* bitcast (void (i8**)* @"_ZN4core3ptr27drop_in_place$LT$$RF$u8$GT$17h7881da1182d783ccE" to i8*), [16 x i8] c"\08\00\00\00\00\00\00\00\08\00\00\00\00\00\00\00", i8* bitcast (i1 (%"memmem::twoway::TwoWay"**, %"core::fmt::Formatter"*)* @"_ZN42_$LT$$RF$T$u20$as$u20$core..fmt..Debug$GT$3fmt17h30d83982d8dc029dE" to i8*), [0 x i8] zeroinitializer }>, align 8
@alloc1222 = private unnamed_addr constant <{ [7 x i8] }> <{ [7 x i8] c"Reverse" }>, align 1
@alloc1348 = private unnamed_addr constant <{ [6 x i8] }> <{ [6 x i8] c"TwoWay" }>, align 1
@alloc1224 = private unnamed_addr constant <{ [7 x i8] }> <{ [7 x i8] c"byteset" }>, align 1
@vtable.6 = private unnamed_addr constant <{ i8*, [16 x i8], i8*, [0 x i8] }> <{ i8* bitcast (void (i8**)* @"_ZN4core3ptr27drop_in_place$LT$$RF$u8$GT$17h7881da1182d783ccE" to i8*), [16 x i8] c"\08\00\00\00\00\00\00\00\08\00\00\00\00\00\00\00", i8* bitcast (i1 (i64**, %"core::fmt::Formatter"*)* @"_ZN42_$LT$$RF$T$u20$as$u20$core..fmt..Debug$GT$3fmt17hc4a9f9ccbf293413E" to i8*), [0 x i8] zeroinitializer }>, align 8
@alloc1228 = private unnamed_addr constant <{ [12 x i8] }> <{ [12 x i8] c"critical_pos" }>, align 1
@vtable.7 = private unnamed_addr constant <{ i8*, [16 x i8], i8*, [0 x i8] }> <{ i8* bitcast (void (i8**)* @"_ZN4core3ptr27drop_in_place$LT$$RF$u8$GT$17h7881da1182d783ccE" to i8*), [16 x i8] c"\08\00\00\00\00\00\00\00\08\00\00\00\00\00\00\00", i8* bitcast (i1 (i64**, %"core::fmt::Formatter"*)* @"_ZN42_$LT$$RF$T$u20$as$u20$core..fmt..Debug$GT$3fmt17hf0ca0eaf8e10788bE" to i8*), [0 x i8] zeroinitializer }>, align 8
@alloc1237 = private unnamed_addr constant <{ [5 x i8] }> <{ [5 x i8] c"shift" }>, align 1
@vtable.8 = private unnamed_addr constant <{ i8*, [16 x i8], i8*, [0 x i8] }> <{ i8* bitcast (void (i8**)* @"_ZN4core3ptr27drop_in_place$LT$$RF$u8$GT$17h7881da1182d783ccE" to i8*), [16 x i8] c"\08\00\00\00\00\00\00\00\08\00\00\00\00\00\00\00", i8* bitcast (i1 ({ i64, i64 }**, %"core::fmt::Formatter"*)* @"_ZN42_$LT$$RF$T$u20$as$u20$core..fmt..Debug$GT$3fmt17h9eb75065b6b2b2e6E" to i8*), [0 x i8] zeroinitializer }>, align 8
@alloc1236 = private unnamed_addr constant <{ [5 x i8] }> <{ [5 x i8] c"Large" }>, align 1
@alloc1238 = private unnamed_addr constant <{ [5 x i8] }> <{ [5 x i8] c"Small" }>, align 1
@alloc1242 = private unnamed_addr constant <{ [6 x i8] }> <{ [6 x i8] c"period" }>, align 1
@alloc1240 = private unnamed_addr constant <{ [6 x i8] }> <{ [6 x i8] c"Suffix" }>, align 1
@alloc1277 = private unnamed_addr constant <{ [3 x i8] }> <{ [3 x i8] c"pos" }>, align 1
@alloc1243 = private unnamed_addr constant <{ [7 x i8] }> <{ [7 x i8] c"Maximal" }>, align 1
@alloc1244 = private unnamed_addr constant <{ [7 x i8] }> <{ [7 x i8] c"Minimal" }>, align 1
@alloc1245 = private unnamed_addr constant <{ [4 x i8] }> <{ [4 x i8] c"Push" }>, align 1
@alloc1246 = private unnamed_addr constant <{ [4 x i8] }> <{ [4 x i8] c"Skip" }>, align 1
@alloc1247 = private unnamed_addr constant <{ [6 x i8] }> <{ [6 x i8] c"Accept" }>, align 1
@alloc1248 = private unnamed_addr constant <{ [18 x i8] }> <{ [18 x i8] c"ApproximateByteSet" }>, align 1
@vtable.9 = private unnamed_addr constant <{ i8*, [16 x i8], i8*, [0 x i8] }> <{ i8* bitcast (void (i8**)* @"_ZN4core3ptr27drop_in_place$LT$$RF$u8$GT$17h7881da1182d783ccE" to i8*), [16 x i8] c"\08\00\00\00\00\00\00\00\08\00\00\00\00\00\00\00", i8* bitcast (i1 (i64**, %"core::fmt::Formatter"*)* @"_ZN42_$LT$$RF$T$u20$as$u20$core..fmt..Debug$GT$3fmt17h375e3f0ea5f25018E" to i8*), [0 x i8] zeroinitializer }>, align 8
@vtable.a = private unnamed_addr constant <{ i8*, [16 x i8], i8*, [0 x i8] }> <{ i8* bitcast (void (i8**)* @"_ZN4core3ptr27drop_in_place$LT$$RF$u8$GT$17h7881da1182d783ccE" to i8*), [16 x i8] c"\08\00\00\00\00\00\00\00\08\00\00\00\00\00\00\00", i8* bitcast (i1 ({}**, %"core::fmt::Formatter"*)* @"_ZN42_$LT$$RF$T$u20$as$u20$core..fmt..Debug$GT$3fmt17h012f9a793918b767E" to i8*), [0 x i8] zeroinitializer }>, align 8
@vtable.b = private unnamed_addr constant <{ i8*, [16 x i8], i8*, [0 x i8] }> <{ i8* bitcast (void (i8**)* @"_ZN4core3ptr27drop_in_place$LT$$RF$u8$GT$17h7881da1182d783ccE" to i8*), [16 x i8] c"\08\00\00\00\00\00\00\00\08\00\00\00\00\00\00\00", i8* bitcast (i1 ({ i8, i8 }**, %"core::fmt::Formatter"*)* @"_ZN42_$LT$$RF$T$u20$as$u20$core..fmt..Debug$GT$3fmt17h203c01692e5cf32cE" to i8*), [0 x i8] zeroinitializer }>, align 8
@alloc1260 = private unnamed_addr constant <{ [8 x i8] }> <{ [8 x i8] c"FindIter" }>, align 1
@alloc1272 = private unnamed_addr constant <{ [8 x i8] }> <{ [8 x i8] c"haystack" }>, align 1
@alloc1262 = private unnamed_addr constant <{ [8 x i8] }> <{ [8 x i8] c"prestate" }>, align 1
@vtable.c = private unnamed_addr constant <{ i8*, [16 x i8], i8*, [0 x i8] }> <{ i8* bitcast (void (i8**)* @"_ZN4core3ptr27drop_in_place$LT$$RF$u8$GT$17h7881da1182d783ccE" to i8*), [16 x i8] c"\08\00\00\00\00\00\00\00\08\00\00\00\00\00\00\00", i8* bitcast (i1 ({ i32, i32 }**, %"core::fmt::Formatter"*)* @"_ZN42_$LT$$RF$T$u20$as$u20$core..fmt..Debug$GT$3fmt17h70f1e85449412d59E" to i8*), [0 x i8] zeroinitializer }>, align 8
@alloc1273 = private unnamed_addr constant <{ [6 x i8] }> <{ [6 x i8] c"finder" }>, align 1
@vtable.d = private unnamed_addr constant <{ i8*, [16 x i8], i8*, [0 x i8] }> <{ i8* bitcast (void (i8**)* @"_ZN4core3ptr27drop_in_place$LT$$RF$u8$GT$17h7881da1182d783ccE" to i8*), [16 x i8] c"\08\00\00\00\00\00\00\00\08\00\00\00\00\00\00\00", i8* bitcast (i1 (%"memmem::Finder"**, %"core::fmt::Formatter"*)* @"_ZN42_$LT$$RF$T$u20$as$u20$core..fmt..Debug$GT$3fmt17h6af5665499c3be04E" to i8*), [0 x i8] zeroinitializer }>, align 8
@alloc1271 = private unnamed_addr constant <{ [11 x i8] }> <{ [11 x i8] c"FindRevIter" }>, align 1
@vtable.e = private unnamed_addr constant <{ i8*, [16 x i8], i8*, [0 x i8] }> <{ i8* bitcast (void (i8**)* @"_ZN4core3ptr27drop_in_place$LT$$RF$u8$GT$17h7881da1182d783ccE" to i8*), [16 x i8] c"\08\00\00\00\00\00\00\00\08\00\00\00\00\00\00\00", i8* bitcast (i1 (%"memmem::FinderRev"**, %"core::fmt::Formatter"*)* @"_ZN42_$LT$$RF$T$u20$as$u20$core..fmt..Debug$GT$3fmt17hb757f96e3bd9808dE" to i8*), [0 x i8] zeroinitializer }>, align 8
@vtable.f = private unnamed_addr constant <{ i8*, [16 x i8], i8*, [0 x i8] }> <{ i8* bitcast (void (i8**)* @"_ZN4core3ptr27drop_in_place$LT$$RF$u8$GT$17h7881da1182d783ccE" to i8*), [16 x i8] c"\08\00\00\00\00\00\00\00\08\00\00\00\00\00\00\00", i8* bitcast (i1 ({ i64, i64 }**, %"core::fmt::Formatter"*)* @"_ZN42_$LT$$RF$T$u20$as$u20$core..fmt..Debug$GT$3fmt17h02afc80f286cfd18E" to i8*), [0 x i8] zeroinitializer }>, align 8
@alloc1281 = private unnamed_addr constant <{ [6 x i8] }> <{ [6 x i8] c"Finder" }>, align 1
@alloc1287 = private unnamed_addr constant <{ [8 x i8] }> <{ [8 x i8] c"searcher" }>, align 1
@vtable.g = private unnamed_addr constant <{ i8*, [16 x i8], i8*, [0 x i8] }> <{ i8* bitcast (void (i8**)* @"_ZN4core3ptr27drop_in_place$LT$$RF$u8$GT$17h7881da1182d783ccE" to i8*), [16 x i8] c"\08\00\00\00\00\00\00\00\08\00\00\00\00\00\00\00", i8* bitcast (i1 (%"memmem::Searcher"**, %"core::fmt::Formatter"*)* @"_ZN42_$LT$$RF$T$u20$as$u20$core..fmt..Debug$GT$3fmt17h782af9d435b63914E" to i8*), [0 x i8] zeroinitializer }>, align 8
@alloc1286 = private unnamed_addr constant <{ [9 x i8] }> <{ [9 x i8] c"FinderRev" }>, align 1
@vtable.h = private unnamed_addr constant <{ i8*, [16 x i8], i8*, [0 x i8] }> <{ i8* bitcast (void (i8**)* @"_ZN4core3ptr27drop_in_place$LT$$RF$u8$GT$17h7881da1182d783ccE" to i8*), [16 x i8] c"\08\00\00\00\00\00\00\00\08\00\00\00\00\00\00\00", i8* bitcast (i1 (%"memmem::SearcherRev"**, %"core::fmt::Formatter"*)* @"_ZN42_$LT$$RF$T$u20$as$u20$core..fmt..Debug$GT$3fmt17he61c36eefdf14552E" to i8*), [0 x i8] zeroinitializer }>, align 8
@alloc1291 = private unnamed_addr constant <{ [13 x i8] }> <{ [13 x i8] c"FinderBuilder" }>, align 1
@alloc1292 = private unnamed_addr constant <{ [6 x i8] }> <{ [6 x i8] c"config" }>, align 1
@vtable.i = private unnamed_addr constant <{ i8*, [16 x i8], i8*, [0 x i8] }> <{ i8* bitcast (void (i8**)* @"_ZN4core3ptr27drop_in_place$LT$$RF$u8$GT$17h7881da1182d783ccE" to i8*), [16 x i8] c"\08\00\00\00\00\00\00\00\08\00\00\00\00\00\00\00", i8* bitcast (i1 (i8**, %"core::fmt::Formatter"*)* @"_ZN42_$LT$$RF$T$u20$as$u20$core..fmt..Debug$GT$3fmt17he241ff79fca5e777E" to i8*), [0 x i8] zeroinitializer }>, align 8
@alloc1296 = private unnamed_addr constant <{ [8 x i8] }> <{ [8 x i8] c"Searcher" }>, align 1
@alloc1342 = private unnamed_addr constant <{ [6 x i8] }> <{ [6 x i8] c"needle" }>, align 1
@vtable.j = private unnamed_addr constant <{ i8*, [16 x i8], i8*, [0 x i8] }> <{ i8* bitcast (void (i8**)* @"_ZN4core3ptr27drop_in_place$LT$$RF$u8$GT$17h7881da1182d783ccE" to i8*), [16 x i8] c"\08\00\00\00\00\00\00\00\08\00\00\00\00\00\00\00", i8* bitcast (i1 ({ i8*, i64 }**, %"core::fmt::Formatter"*)* @"_ZN42_$LT$$RF$T$u20$as$u20$core..fmt..Debug$GT$3fmt17hff7095ab22540aa2E" to i8*), [0 x i8] zeroinitializer }>, align 8
@alloc1301 = private unnamed_addr constant <{ [5 x i8] }> <{ [5 x i8] c"ninfo" }>, align 1
@vtable.k = private unnamed_addr constant <{ i8*, [16 x i8], i8*, [0 x i8] }> <{ i8* bitcast (void (i8**)* @"_ZN4core3ptr27drop_in_place$LT$$RF$u8$GT$17h7881da1182d783ccE" to i8*), [16 x i8] c"\08\00\00\00\00\00\00\00\08\00\00\00\00\00\00\00", i8* bitcast (i1 (%"memmem::NeedleInfo"**, %"core::fmt::Formatter"*)* @"_ZN42_$LT$$RF$T$u20$as$u20$core..fmt..Debug$GT$3fmt17h289d590000ab1d43E" to i8*), [0 x i8] zeroinitializer }>, align 8
@alloc1305 = private unnamed_addr constant <{ [5 x i8] }> <{ [5 x i8] c"prefn" }>, align 1
@vtable.l = private unnamed_addr constant <{ i8*, [16 x i8], i8*, [0 x i8] }> <{ i8* bitcast (void (i8**)* @"_ZN4core3ptr27drop_in_place$LT$$RF$u8$GT$17h7881da1182d783ccE" to i8*), [16 x i8] c"\08\00\00\00\00\00\00\00\08\00\00\00\00\00\00\00", i8* bitcast (i1 (i64***, %"core::fmt::Formatter"*)* @"_ZN42_$LT$$RF$T$u20$as$u20$core..fmt..Debug$GT$3fmt17h6ec26ca7b51ec85cE" to i8*), [0 x i8] zeroinitializer }>, align 8
@alloc1344 = private unnamed_addr constant <{ [4 x i8] }> <{ [4 x i8] c"kind" }>, align 1
@vtable.m = private unnamed_addr constant <{ i8*, [16 x i8], i8*, [0 x i8] }> <{ i8* bitcast (void (i8**)* @"_ZN4core3ptr27drop_in_place$LT$$RF$u8$GT$17h7881da1182d783ccE" to i8*), [16 x i8] c"\08\00\00\00\00\00\00\00\08\00\00\00\00\00\00\00", i8* bitcast (i1 (%"memmem::SearcherKind"**, %"core::fmt::Formatter"*)* @"_ZN42_$LT$$RF$T$u20$as$u20$core..fmt..Debug$GT$3fmt17he2204767e76a9523E" to i8*), [0 x i8] zeroinitializer }>, align 8
@alloc1313 = private unnamed_addr constant <{ [10 x i8] }> <{ [10 x i8] c"NeedleInfo" }>, align 1
@alloc1314 = private unnamed_addr constant <{ [9 x i8] }> <{ [9 x i8] c"rarebytes" }>, align 1
@vtable.n = private unnamed_addr constant <{ i8*, [16 x i8], i8*, [0 x i8] }> <{ i8* bitcast (void (i8**)* @"_ZN4core3ptr27drop_in_place$LT$$RF$u8$GT$17h7881da1182d783ccE" to i8*), [16 x i8] c"\08\00\00\00\00\00\00\00\08\00\00\00\00\00\00\00", i8* bitcast (i1 ({ i8, i8 }**, %"core::fmt::Formatter"*)* @"_ZN42_$LT$$RF$T$u20$as$u20$core..fmt..Debug$GT$3fmt17h8d46de007ceb3d4bE" to i8*), [0 x i8] zeroinitializer }>, align 8
@alloc1343 = private unnamed_addr constant <{ [5 x i8] }> <{ [5 x i8] c"nhash" }>, align 1
@vtable.o = private unnamed_addr constant <{ i8*, [16 x i8], i8*, [0 x i8] }> <{ i8* bitcast (void (i8**)* @"_ZN4core3ptr27drop_in_place$LT$$RF$u8$GT$17h7881da1182d783ccE" to i8*), [16 x i8] c"\08\00\00\00\00\00\00\00\08\00\00\00\00\00\00\00", i8* bitcast (i1 ({ i32, i32 }**, %"core::fmt::Formatter"*)* @"_ZN42_$LT$$RF$T$u20$as$u20$core..fmt..Debug$GT$3fmt17h4956e92797be587dE" to i8*), [0 x i8] zeroinitializer }>, align 8
@alloc1322 = private unnamed_addr constant <{ [14 x i8] }> <{ [14 x i8] c"SearcherConfig" }>, align 1
@alloc1323 = private unnamed_addr constant <{ [9 x i8] }> <{ [9 x i8] c"prefilter" }>, align 1
@vtable.p = private unnamed_addr constant <{ i8*, [16 x i8], i8*, [0 x i8] }> <{ i8* bitcast (void (i8**)* @"_ZN4core3ptr27drop_in_place$LT$$RF$u8$GT$17h7881da1182d783ccE" to i8*), [16 x i8] c"\08\00\00\00\00\00\00\00\08\00\00\00\00\00\00\00", i8* bitcast (i1 (i8**, %"core::fmt::Formatter"*)* @"_ZN42_$LT$$RF$T$u20$as$u20$core..fmt..Debug$GT$3fmt17h423c5115cbf28310E" to i8*), [0 x i8] zeroinitializer }>, align 8
@alloc1327 = private unnamed_addr constant <{ [14 x i8] }> <{ [14 x i8] c"GenericSIMD256" }>, align 1
@vtable.q = private unnamed_addr constant <{ i8*, [16 x i8], i8*, [0 x i8] }> <{ i8* bitcast (void (i8**)* @"_ZN4core3ptr27drop_in_place$LT$$RF$u8$GT$17h7881da1182d783ccE" to i8*), [16 x i8] c"\08\00\00\00\00\00\00\00\08\00\00\00\00\00\00\00", i8* bitcast (i1 (%"memmem::x86::avx::nostd::Forward"**, %"core::fmt::Formatter"*)* @"_ZN42_$LT$$RF$T$u20$as$u20$core..fmt..Debug$GT$3fmt17h3658f4059176b5a0E" to i8*), [0 x i8] zeroinitializer }>, align 8
@alloc1331 = private unnamed_addr constant <{ [14 x i8] }> <{ [14 x i8] c"GenericSIMD128" }>, align 1
@vtable.r = private unnamed_addr constant <{ i8*, [16 x i8], i8*, [0 x i8] }> <{ i8* bitcast (void (i8**)* @"_ZN4core3ptr27drop_in_place$LT$$RF$u8$GT$17h7881da1182d783ccE" to i8*), [16 x i8] c"\08\00\00\00\00\00\00\00\08\00\00\00\00\00\00\00", i8* bitcast (i1 ({ i8, i8 }**, %"core::fmt::Formatter"*)* @"_ZN42_$LT$$RF$T$u20$as$u20$core..fmt..Debug$GT$3fmt17h1f25bed89d6307b2E" to i8*), [0 x i8] zeroinitializer }>, align 8
@vtable.s = private unnamed_addr constant <{ i8*, [16 x i8], i8*, [0 x i8] }> <{ i8* bitcast (void (i8**)* @"_ZN4core3ptr27drop_in_place$LT$$RF$u8$GT$17h7881da1182d783ccE" to i8*), [16 x i8] c"\08\00\00\00\00\00\00\00\08\00\00\00\00\00\00\00", i8* bitcast (i1 (%"memmem::twoway::Forward"**, %"core::fmt::Formatter"*)* @"_ZN42_$LT$$RF$T$u20$as$u20$core..fmt..Debug$GT$3fmt17h4fb05e4824d7062dE" to i8*), [0 x i8] zeroinitializer }>, align 8
@alloc1352 = private unnamed_addr constant <{ [7 x i8] }> <{ [7 x i8] c"OneByte" }>, align 1
@alloc1353 = private unnamed_addr constant <{ [5 x i8] }> <{ [5 x i8] c"Empty" }>, align 1
@alloc1341 = private unnamed_addr constant <{ [11 x i8] }> <{ [11 x i8] c"SearcherRev" }>, align 1
@vtable.t = private unnamed_addr constant <{ i8*, [16 x i8], i8*, [0 x i8] }> <{ i8* bitcast (void (i8**)* @"_ZN4core3ptr27drop_in_place$LT$$RF$u8$GT$17h7881da1182d783ccE" to i8*), [16 x i8] c"\08\00\00\00\00\00\00\00\08\00\00\00\00\00\00\00", i8* bitcast (i1 (%"memmem::SearcherRevKind"**, %"core::fmt::Formatter"*)* @"_ZN42_$LT$$RF$T$u20$as$u20$core..fmt..Debug$GT$3fmt17h91a378adcdf2e01eE" to i8*), [0 x i8] zeroinitializer }>, align 8
@vtable.u = private unnamed_addr constant <{ i8*, [16 x i8], i8*, [0 x i8] }> <{ i8* bitcast (void (i8**)* @"_ZN4core3ptr27drop_in_place$LT$$RF$u8$GT$17h7881da1182d783ccE" to i8*), [16 x i8] c"\08\00\00\00\00\00\00\00\08\00\00\00\00\00\00\00", i8* bitcast (i1 (%"memmem::twoway::Reverse"**, %"core::fmt::Formatter"*)* @"_ZN42_$LT$$RF$T$u20$as$u20$core..fmt..Debug$GT$3fmt17h4c8240682b9c408bE" to i8*), [0 x i8] zeroinitializer }>, align 8
@alloc1358 = private unnamed_addr constant <{ [2 x i8] }> <{ [2 x i8] c"()" }>, align 1
@alloc1359 = private unnamed_addr constant <{ [35 x i8] }> <{ [35 x i8] c"assertion failed: mid <= self.len()" }>, align 1
@alloc1364 = private unnamed_addr constant <{ [4 x i8] }> <{ [4 x i8] c"Some" }>, align 1
@vtable.v = private unnamed_addr constant <{ i8*, [16 x i8], i8*, [0 x i8] }> <{ i8* bitcast (void (i8**)* @"_ZN4core3ptr27drop_in_place$LT$$RF$u8$GT$17h7881da1182d783ccE" to i8*), [16 x i8] c"\08\00\00\00\00\00\00\00\08\00\00\00\00\00\00\00", i8* bitcast (i1 (i64***, %"core::fmt::Formatter"*)* @"_ZN42_$LT$$RF$T$u20$as$u20$core..fmt..Debug$GT$3fmt17h24add91eb36d19a2E" to i8*), [0 x i8] zeroinitializer }>, align 8

@"_ZN79_$LT$memchr..memmem..prefilter..Prefilter$u20$as$u20$core..default..Default$GT$7default17hf30f560f51bb53adE" = unnamed_addr alias i1 (), i1 ()* @_ZN6memchr6memmem13FinderBuilder3new17h6f660de5680092b7E

; core::ptr::drop_in_place<&u8>
; Function Attrs: inlinehint mustprogress nofree norecurse nosync nounwind nonlazybind readnone uwtable willreturn
define internal void @"_ZN4core3ptr27drop_in_place$LT$$RF$u8$GT$17h7881da1182d783ccE"(i8** nocapture readnone %_1) unnamed_addr #0 {
start:
  ret void
}

; memchr::memchr::fallback::memchr
; Function Attrs: nofree nosync nounwind nonlazybind uwtable
define { i64, i64 } @_ZN6memchr6memchr8fallback6memchr17h9e5739b193f13e8dE(i8 %0, [0 x i8]* noalias nonnull readonly align 1 %haystack.0, i64 %haystack.1) unnamed_addr #1 personality i32 (...)* @rust_eh_personality {
start:
  %_2.i = zext i8 %0 to i64
  %1 = mul nuw i64 %_2.i, 72340172838076673
  %2 = icmp ugt i64 %haystack.1, 15
  %3 = getelementptr [0 x i8], [0 x i8]* %haystack.0, i64 0, i64 0
  %4 = getelementptr inbounds [0 x i8], [0 x i8]* %haystack.0, i64 0, i64 %haystack.1
  %_18 = icmp ult i64 %haystack.1, 8
  br i1 %_18, label %bb5, label %bb7

bb7:                                              ; preds = %start
  %_26 = bitcast [0 x i8]* %haystack.0 to i64*
  %_26.val = load i64, i64* %_26, align 1
  %_29 = xor i64 %_26.val, %1
  %5 = add i64 %_29, -72340172838076673
  %_6.i = and i64 %_29, -9187201950435737472
  %_3.i = xor i64 %_6.i, -9187201950435737472
  %_2.i15 = and i64 %_3.i, %5
  %.not = icmp eq i64 %_2.i15, 0
  %6 = trunc i64 %_26.val to i8
  br i1 %.not, label %bb12, label %bb10

bb5:                                              ; preds = %start
  %_56.i.not = icmp eq i64 %haystack.1, 0
  br i1 %_56.i.not, label %bb33, label %bb2.preheader.i

bb2.preheader.i:                                  ; preds = %bb5
  %7 = ptrtoint [0 x i8]* %haystack.0 to i64
  %_11.i = load i8, i8* %3, align 1, !noalias !2
  %8 = icmp eq i8 %_11.i, %0
  br i1 %8, label %bb4.i, label %bb6.i

bb6.i:                                            ; preds = %bb2.preheader.i
  %9 = getelementptr inbounds [0 x i8], [0 x i8]* %haystack.0, i64 0, i64 1
  %exitcond.not.i = icmp eq i64 %haystack.1, 1
  br i1 %exitcond.not.i, label %bb33, label %bb2.i.1

bb4.i:                                            ; preds = %bb2.i.6, %bb2.i.5, %bb2.i.4, %bb2.i.3, %bb2.i.2, %bb2.i.1, %bb2.preheader.i
  %ptr.07.i.lcssa = phi i8* [ %3, %bb2.preheader.i ], [ %9, %bb2.i.1 ], [ %30, %bb2.i.2 ], [ %32, %bb2.i.3 ], [ %34, %bb2.i.4 ], [ %36, %bb2.i.5 ], [ %38, %bb2.i.6 ]
  %_3.i.i = ptrtoint i8* %ptr.07.i.lcssa to i64
  %10 = sub i64 %_3.i.i, %7
  br label %bb33

bb12:                                             ; preds = %bb7
  %_40 = ptrtoint [0 x i8]* %haystack.0 to i64
  %_39 = and i64 %_40, 7
  %_38 = sub nuw nsw i64 8, %_39
  %11 = getelementptr inbounds [0 x i8], [0 x i8]* %haystack.0, i64 0, i64 %_38
  %12 = getelementptr inbounds i8, i8* %4, i64 -16
  %_4661 = icmp ule i8* %11, %12
  %or.cond62 = select i1 %2, i1 %_4661, i1 false
  br i1 %or.cond62, label %bb19, label %bb30

bb10:                                             ; preds = %bb7
  %_56.i17 = icmp sgt i64 %haystack.1, 0
  br i1 %_56.i17, label %bb2.preheader.i19, label %bb33

bb2.preheader.i19:                                ; preds = %bb10
  %13 = ptrtoint [0 x i8]* %haystack.0 to i64
  %14 = icmp eq i8 %6, %0
  br i1 %14, label %bb4.i27, label %bb6.i24

bb6.i24:                                          ; preds = %bb2.preheader.i19, %bb6.i24.bb2.i22_crit_edge
  %ptr.07.i2082 = phi i8* [ %15, %bb6.i24.bb2.i22_crit_edge ], [ %3, %bb2.preheader.i19 ]
  %15 = getelementptr inbounds i8, i8* %ptr.07.i2082, i64 1
  %exitcond.not.i23 = icmp eq i8* %15, %4
  br i1 %exitcond.not.i23, label %bb33, label %bb6.i24.bb2.i22_crit_edge

bb6.i24.bb2.i22_crit_edge:                        ; preds = %bb6.i24
  %_11.i21.pre = load i8, i8* %15, align 1, !noalias !5
  %16 = icmp eq i8 %_11.i21.pre, %0
  br i1 %16, label %bb4.i27, label %bb6.i24

bb4.i27:                                          ; preds = %bb6.i24.bb2.i22_crit_edge, %bb2.preheader.i19
  %ptr.07.i20.lcssa = phi i8* [ %3, %bb2.preheader.i19 ], [ %15, %bb6.i24.bb2.i22_crit_edge ]
  %_3.i.i25 = ptrtoint i8* %ptr.07.i20.lcssa to i64
  %17 = sub i64 %_3.i.i25, %13
  br label %bb33

bb33:                                             ; preds = %bb2.i.6, %bb6.i24, %bb6.i45, %bb6.i, %bb6.i.1, %bb6.i.2, %bb6.i.3, %bb6.i.4, %bb6.i.5, %bb4.i48, %bb30, %bb4.i27, %bb10, %bb4.i, %bb5
  %.sroa.0.0.i50.pn = phi i64 [ 1, %bb4.i ], [ 0, %bb5 ], [ 1, %bb4.i27 ], [ 0, %bb10 ], [ 1, %bb4.i48 ], [ 0, %bb30 ], [ 0, %bb6.i.5 ], [ 0, %bb6.i.4 ], [ 0, %bb6.i.3 ], [ 0, %bb6.i.2 ], [ 0, %bb6.i.1 ], [ 0, %bb6.i ], [ 0, %bb6.i45 ], [ 0, %bb6.i24 ], [ 0, %bb2.i.6 ]
  %.sroa.3.0.i49.pn = phi i64 [ %10, %bb4.i ], [ undef, %bb5 ], [ %17, %bb4.i27 ], [ undef, %bb10 ], [ %28, %bb4.i48 ], [ undef, %bb30 ], [ undef, %bb6.i.5 ], [ undef, %bb6.i.4 ], [ undef, %bb6.i.3 ], [ undef, %bb6.i.2 ], [ undef, %bb6.i.1 ], [ undef, %bb6.i ], [ undef, %bb6.i45 ], [ undef, %bb6.i24 ], [ undef, %bb2.i.6 ]
  %.pn = insertvalue { i64, i64 } undef, i64 %.sroa.0.0.i50.pn, 0
  %.pn.pn = insertvalue { i64, i64 } %.pn, i64 %.sroa.3.0.i49.pn, 1
  ret { i64, i64 } %.pn.pn

bb19:                                             ; preds = %bb12, %bb27
  %ptr.063 = phi i8* [ %23, %bb27 ], [ %11, %bb12 ]
  %_55 = bitcast i8* %ptr.063 to i64*
  %a = load i64, i64* %_55, align 8
  %18 = getelementptr inbounds i8, i8* %ptr.063, i64 8
  %_58 = bitcast i8* %18 to i64*
  %b = load i64, i64* %_58, align 8
  %_62 = xor i64 %a, %1
  %19 = add i64 %_62, -72340172838076673
  %_6.i31 = and i64 %_62, -9187201950435737472
  %_3.i32 = xor i64 %_6.i31, -9187201950435737472
  %_2.i33 = and i64 %_3.i32, %19
  %20 = icmp ne i64 %_2.i33, 0
  %_66 = xor i64 %b, %1
  %21 = add i64 %_66, -72340172838076673
  %_6.i34 = and i64 %_66, -9187201950435737472
  %_3.i35 = xor i64 %_6.i34, -9187201950435737472
  %_2.i36 = and i64 %_3.i35, %21
  %22 = icmp ne i64 %_2.i36, 0
  %.eqb = select i1 %20, i1 true, i1 %22
  br i1 %.eqb, label %bb30, label %bb27

bb27:                                             ; preds = %bb19
  %23 = getelementptr inbounds i8, i8* %ptr.063, i64 16
  %_46.not = icmp ugt i8* %23, %12
  br i1 %_46.not, label %bb30, label %bb19

bb30:                                             ; preds = %bb19, %bb27, %bb12
  %ptr.0.lcssa = phi i8* [ %11, %bb12 ], [ %23, %bb27 ], [ %ptr.063, %bb19 ]
  %_56.i38 = icmp ult i8* %ptr.0.lcssa, %4
  br i1 %_56.i38, label %bb2.preheader.i40, label %bb33

bb2.preheader.i40:                                ; preds = %bb30
  %end_ptr9.i39 = ptrtoint i8* %4 to i64
  %24 = ptrtoint i8* %ptr.0.lcssa to i64
  %25 = sub i64 %end_ptr9.i39, %24
  %scevgep.i = getelementptr i8, i8* %ptr.0.lcssa, i64 %25
  br label %bb2.i43

bb2.i43:                                          ; preds = %bb6.i45, %bb2.preheader.i40
  %ptr.07.i41 = phi i8* [ %27, %bb6.i45 ], [ %ptr.0.lcssa, %bb2.preheader.i40 ]
  %_11.i42 = load i8, i8* %ptr.07.i41, align 1, !noalias !8
  %26 = icmp eq i8 %_11.i42, %0
  br i1 %26, label %bb4.i48, label %bb6.i45

bb6.i45:                                          ; preds = %bb2.i43
  %27 = getelementptr inbounds i8, i8* %ptr.07.i41, i64 1
  %exitcond.not.i44 = icmp eq i8* %27, %scevgep.i
  br i1 %exitcond.not.i44, label %bb33, label %bb2.i43

bb4.i48:                                          ; preds = %bb2.i43
  %_3.i.i46 = ptrtoint i8* %ptr.07.i41 to i64
  %28 = sub i64 %_3.i.i46, %_40
  br label %bb33

bb2.i.1:                                          ; preds = %bb6.i
  %_11.i.1 = load i8, i8* %9, align 1, !noalias !2
  %29 = icmp eq i8 %_11.i.1, %0
  br i1 %29, label %bb4.i, label %bb6.i.1

bb6.i.1:                                          ; preds = %bb2.i.1
  %30 = getelementptr inbounds [0 x i8], [0 x i8]* %haystack.0, i64 0, i64 2
  %exitcond.not.i.1 = icmp eq i64 %haystack.1, 2
  br i1 %exitcond.not.i.1, label %bb33, label %bb2.i.2

bb2.i.2:                                          ; preds = %bb6.i.1
  %_11.i.2 = load i8, i8* %30, align 1, !noalias !2
  %31 = icmp eq i8 %_11.i.2, %0
  br i1 %31, label %bb4.i, label %bb6.i.2

bb6.i.2:                                          ; preds = %bb2.i.2
  %32 = getelementptr inbounds [0 x i8], [0 x i8]* %haystack.0, i64 0, i64 3
  %exitcond.not.i.2 = icmp eq i64 %haystack.1, 3
  br i1 %exitcond.not.i.2, label %bb33, label %bb2.i.3

bb2.i.3:                                          ; preds = %bb6.i.2
  %_11.i.3 = load i8, i8* %32, align 1, !noalias !2
  %33 = icmp eq i8 %_11.i.3, %0
  br i1 %33, label %bb4.i, label %bb6.i.3

bb6.i.3:                                          ; preds = %bb2.i.3
  %34 = getelementptr inbounds [0 x i8], [0 x i8]* %haystack.0, i64 0, i64 4
  %exitcond.not.i.3 = icmp eq i64 %haystack.1, 4
  br i1 %exitcond.not.i.3, label %bb33, label %bb2.i.4

bb2.i.4:                                          ; preds = %bb6.i.3
  %_11.i.4 = load i8, i8* %34, align 1, !noalias !2
  %35 = icmp eq i8 %_11.i.4, %0
  br i1 %35, label %bb4.i, label %bb6.i.4

bb6.i.4:                                          ; preds = %bb2.i.4
  %36 = getelementptr inbounds [0 x i8], [0 x i8]* %haystack.0, i64 0, i64 5
  %exitcond.not.i.4 = icmp eq i64 %haystack.1, 5
  br i1 %exitcond.not.i.4, label %bb33, label %bb2.i.5

bb2.i.5:                                          ; preds = %bb6.i.4
  %_11.i.5 = load i8, i8* %36, align 1, !noalias !2
  %37 = icmp eq i8 %_11.i.5, %0
  br i1 %37, label %bb4.i, label %bb6.i.5

bb6.i.5:                                          ; preds = %bb2.i.5
  %38 = getelementptr inbounds [0 x i8], [0 x i8]* %haystack.0, i64 0, i64 6
  %exitcond.not.i.5 = icmp eq i64 %haystack.1, 6
  br i1 %exitcond.not.i.5, label %bb33, label %bb2.i.6

bb2.i.6:                                          ; preds = %bb6.i.5
  %_11.i.6 = load i8, i8* %38, align 1, !noalias !2
  %39 = icmp eq i8 %_11.i.6, %0
  br i1 %39, label %bb4.i, label %bb33
}

; memchr::memchr::fallback::memchr2
; Function Attrs: nofree nosync nounwind nonlazybind uwtable
define { i64, i64 } @_ZN6memchr6memchr8fallback7memchr217h2426afb0cdd3d1e3E(i8 %0, i8 %1, [0 x i8]* noalias nonnull readonly align 1 %haystack.0, i64 %haystack.1) unnamed_addr #1 personality i32 (...)* @rust_eh_personality {
start:
  %_2.i = zext i8 %0 to i64
  %2 = mul nuw i64 %_2.i, 72340172838076673
  %_2.i20 = zext i8 %1 to i64
  %3 = mul nuw i64 %_2.i20, 72340172838076673
  %4 = getelementptr [0 x i8], [0 x i8]* %haystack.0, i64 0, i64 0
  %5 = getelementptr inbounds [0 x i8], [0 x i8]* %haystack.0, i64 0, i64 %haystack.1
  %_19 = icmp ult i64 %haystack.1, 8
  br i1 %_19, label %bb5, label %bb7

bb7:                                              ; preds = %start
  %_27 = bitcast [0 x i8]* %haystack.0 to i64*
  %_27.val = load i64, i64* %_27, align 1
  %_30 = xor i64 %_27.val, %2
  %6 = add i64 %_30, -72340172838076673
  %_6.i = and i64 %_30, -9187201950435737472
  %_3.i = xor i64 %_6.i, -9187201950435737472
  %_2.i21 = and i64 %_3.i, %6
  %7 = icmp ne i64 %_2.i21, 0
  %_34 = xor i64 %_27.val, %3
  %8 = add i64 %_34, -72340172838076673
  %_6.i22 = and i64 %_34, -9187201950435737472
  %_3.i23 = xor i64 %_6.i22, -9187201950435737472
  %_2.i24 = and i64 %_3.i23, %8
  %9 = icmp ne i64 %_2.i24, 0
  %.eq2 = select i1 %7, i1 true, i1 %9
  %10 = trunc i64 %_27.val to i8
  br i1 %.eq2, label %bb14, label %bb16

bb5:                                              ; preds = %start
  %_59.i.not = icmp eq i64 %haystack.1, 0
  br i1 %_59.i.not, label %bb33, label %bb2.preheader.i

bb2.preheader.i:                                  ; preds = %bb5
  %11 = ptrtoint [0 x i8]* %haystack.0 to i64
  %_11.i = load i8, i8* %4, align 1, !noalias !11
  %_3.i.i = icmp eq i8 %_11.i, %0
  %_6.i.i = icmp eq i8 %_11.i, %1
  %or.cond.i = select i1 %_3.i.i, i1 true, i1 %_6.i.i
  br i1 %or.cond.i, label %bb4.i, label %bb6.i

bb6.i:                                            ; preds = %bb2.preheader.i
  %12 = getelementptr inbounds [0 x i8], [0 x i8]* %haystack.0, i64 0, i64 1
  %exitcond.not.i = icmp eq i64 %haystack.1, 1
  br i1 %exitcond.not.i, label %bb33, label %bb2.i.1

bb4.i:                                            ; preds = %bb2.i.6, %bb2.i.5, %bb2.i.4, %bb2.i.3, %bb2.i.2, %bb2.i.1, %bb2.preheader.i
  %ptr.010.i.lcssa = phi i8* [ %4, %bb2.preheader.i ], [ %12, %bb2.i.1 ], [ %28, %bb2.i.2 ], [ %29, %bb2.i.3 ], [ %30, %bb2.i.4 ], [ %31, %bb2.i.5 ], [ %32, %bb2.i.6 ]
  %_3.i6.i = ptrtoint i8* %ptr.010.i.lcssa to i64
  %13 = sub i64 %_3.i6.i, %11
  br label %bb33

bb16:                                             ; preds = %bb7
  %_48 = ptrtoint [0 x i8]* %haystack.0 to i64
  %_47 = and i64 %_48, 7
  %_46 = sub nuw nsw i64 8, %_47
  %14 = getelementptr inbounds [0 x i8], [0 x i8]* %haystack.0, i64 0, i64 %_46
  %15 = getelementptr inbounds i8, i8* %5, i64 -8
  %_51.not80 = icmp ugt i8* %14, %15
  br i1 %_51.not80, label %bb30, label %bb20

bb14:                                             ; preds = %bb7
  %_59.i27 = icmp sgt i64 %haystack.1, 0
  br i1 %_59.i27, label %bb2.preheader.i29, label %bb33

bb2.preheader.i29:                                ; preds = %bb14
  %16 = ptrtoint [0 x i8]* %haystack.0 to i64
  %_3.i.i3299 = icmp eq i8 %10, %0
  %_6.i.i33100 = icmp eq i8 %10, %1
  %or.cond.i34101 = select i1 %_3.i.i3299, i1 true, i1 %_6.i.i33100
  br i1 %or.cond.i34101, label %bb4.i40, label %bb6.i37

bb6.i37:                                          ; preds = %bb2.preheader.i29, %bb6.i37.bb2.i35_crit_edge
  %ptr.010.i30102 = phi i8* [ %17, %bb6.i37.bb2.i35_crit_edge ], [ %4, %bb2.preheader.i29 ]
  %17 = getelementptr inbounds i8, i8* %ptr.010.i30102, i64 1
  %exitcond.not.i36 = icmp eq i8* %17, %5
  br i1 %exitcond.not.i36, label %bb33, label %bb6.i37.bb2.i35_crit_edge

bb6.i37.bb2.i35_crit_edge:                        ; preds = %bb6.i37
  %_11.i31.pre = load i8, i8* %17, align 1, !noalias !15
  %_3.i.i32 = icmp eq i8 %_11.i31.pre, %0
  %_6.i.i33 = icmp eq i8 %_11.i31.pre, %1
  %or.cond.i34 = select i1 %_3.i.i32, i1 true, i1 %_6.i.i33
  br i1 %or.cond.i34, label %bb4.i40, label %bb6.i37

bb4.i40:                                          ; preds = %bb6.i37.bb2.i35_crit_edge, %bb2.preheader.i29
  %ptr.010.i30.lcssa = phi i8* [ %4, %bb2.preheader.i29 ], [ %17, %bb6.i37.bb2.i35_crit_edge ]
  %_3.i6.i38 = ptrtoint i8* %ptr.010.i30.lcssa to i64
  %18 = sub i64 %_3.i6.i38, %16
  br label %bb33

bb33:                                             ; preds = %bb2.i.6, %bb6.i62, %bb6.i37, %bb6.i, %bb6.i.1, %bb6.i.2, %bb6.i.3, %bb6.i.4, %bb6.i.5, %bb4.i65, %bb30, %bb4.i40, %bb14, %bb4.i, %bb5
  %.sroa.0.0.i67.pn = phi i64 [ 1, %bb4.i ], [ 0, %bb5 ], [ 1, %bb4.i40 ], [ 0, %bb14 ], [ 1, %bb4.i65 ], [ 0, %bb30 ], [ 0, %bb6.i.5 ], [ 0, %bb6.i.4 ], [ 0, %bb6.i.3 ], [ 0, %bb6.i.2 ], [ 0, %bb6.i.1 ], [ 0, %bb6.i ], [ 0, %bb6.i37 ], [ 0, %bb6.i62 ], [ 0, %bb2.i.6 ]
  %.sroa.3.0.i66.pn = phi i64 [ %13, %bb4.i ], [ undef, %bb5 ], [ %18, %bb4.i40 ], [ undef, %bb14 ], [ %27, %bb4.i65 ], [ undef, %bb30 ], [ undef, %bb6.i.5 ], [ undef, %bb6.i.4 ], [ undef, %bb6.i.3 ], [ undef, %bb6.i.2 ], [ undef, %bb6.i.1 ], [ undef, %bb6.i ], [ undef, %bb6.i37 ], [ undef, %bb6.i62 ], [ undef, %bb2.i.6 ]
  %.pn = insertvalue { i64, i64 } undef, i64 %.sroa.0.0.i67.pn, 0
  %.pn.pn = insertvalue { i64, i64 } %.pn, i64 %.sroa.3.0.i66.pn, 1
  ret { i64, i64 } %.pn.pn

bb20:                                             ; preds = %bb16, %bb27
  %ptr.081 = phi i8* [ %23, %bb27 ], [ %14, %bb16 ]
  %_59 = bitcast i8* %ptr.081 to i64*
  %chunk1 = load i64, i64* %_59, align 8
  %_62 = xor i64 %chunk1, %2
  %19 = add i64 %_62, -72340172838076673
  %_6.i44 = and i64 %_62, -9187201950435737472
  %_3.i45 = xor i64 %_6.i44, -9187201950435737472
  %_2.i46 = and i64 %_3.i45, %19
  %20 = icmp ne i64 %_2.i46, 0
  %_66 = xor i64 %chunk1, %3
  %21 = add i64 %_66, -72340172838076673
  %_6.i47 = and i64 %_66, -9187201950435737472
  %_3.i48 = xor i64 %_6.i47, -9187201950435737472
  %_2.i49 = and i64 %_3.i48, %21
  %22 = icmp ne i64 %_2.i49, 0
  %.eq23 = select i1 %20, i1 true, i1 %22
  br i1 %.eq23, label %bb30, label %bb27

bb27:                                             ; preds = %bb20
  %23 = getelementptr inbounds i8, i8* %ptr.081, i64 8
  %_51.not = icmp ugt i8* %23, %15
  br i1 %_51.not, label %bb30, label %bb20

bb30:                                             ; preds = %bb27, %bb20, %bb16
  %ptr.0.lcssa = phi i8* [ %14, %bb16 ], [ %ptr.081, %bb20 ], [ %23, %bb27 ]
  %_59.i52 = icmp ult i8* %ptr.0.lcssa, %5
  br i1 %_59.i52, label %bb2.preheader.i54, label %bb33

bb2.preheader.i54:                                ; preds = %bb30
  %end_ptr12.i53 = ptrtoint i8* %5 to i64
  %24 = ptrtoint i8* %ptr.0.lcssa to i64
  %25 = sub i64 %end_ptr12.i53, %24
  %scevgep.i = getelementptr i8, i8* %ptr.0.lcssa, i64 %25
  br label %bb2.i60

bb2.i60:                                          ; preds = %bb6.i62, %bb2.preheader.i54
  %ptr.010.i55 = phi i8* [ %26, %bb6.i62 ], [ %ptr.0.lcssa, %bb2.preheader.i54 ]
  %_11.i56 = load i8, i8* %ptr.010.i55, align 1, !noalias !19
  %_3.i.i57 = icmp eq i8 %_11.i56, %0
  %_6.i.i58 = icmp eq i8 %_11.i56, %1
  %or.cond.i59 = select i1 %_3.i.i57, i1 true, i1 %_6.i.i58
  br i1 %or.cond.i59, label %bb4.i65, label %bb6.i62

bb6.i62:                                          ; preds = %bb2.i60
  %26 = getelementptr inbounds i8, i8* %ptr.010.i55, i64 1
  %exitcond.not.i61 = icmp eq i8* %26, %scevgep.i
  br i1 %exitcond.not.i61, label %bb33, label %bb2.i60

bb4.i65:                                          ; preds = %bb2.i60
  %_3.i6.i63 = ptrtoint i8* %ptr.010.i55 to i64
  %27 = sub i64 %_3.i6.i63, %_48
  br label %bb33

bb2.i.1:                                          ; preds = %bb6.i
  %_11.i.1 = load i8, i8* %12, align 1, !noalias !11
  %_3.i.i.1 = icmp eq i8 %_11.i.1, %0
  %_6.i.i.1 = icmp eq i8 %_11.i.1, %1
  %or.cond.i.1 = select i1 %_3.i.i.1, i1 true, i1 %_6.i.i.1
  br i1 %or.cond.i.1, label %bb4.i, label %bb6.i.1

bb6.i.1:                                          ; preds = %bb2.i.1
  %28 = getelementptr inbounds [0 x i8], [0 x i8]* %haystack.0, i64 0, i64 2
  %exitcond.not.i.1 = icmp eq i64 %haystack.1, 2
  br i1 %exitcond.not.i.1, label %bb33, label %bb2.i.2

bb2.i.2:                                          ; preds = %bb6.i.1
  %_11.i.2 = load i8, i8* %28, align 1, !noalias !11
  %_3.i.i.2 = icmp eq i8 %_11.i.2, %0
  %_6.i.i.2 = icmp eq i8 %_11.i.2, %1
  %or.cond.i.2 = select i1 %_3.i.i.2, i1 true, i1 %_6.i.i.2
  br i1 %or.cond.i.2, label %bb4.i, label %bb6.i.2

bb6.i.2:                                          ; preds = %bb2.i.2
  %29 = getelementptr inbounds [0 x i8], [0 x i8]* %haystack.0, i64 0, i64 3
  %exitcond.not.i.2 = icmp eq i64 %haystack.1, 3
  br i1 %exitcond.not.i.2, label %bb33, label %bb2.i.3

bb2.i.3:                                          ; preds = %bb6.i.2
  %_11.i.3 = load i8, i8* %29, align 1, !noalias !11
  %_3.i.i.3 = icmp eq i8 %_11.i.3, %0
  %_6.i.i.3 = icmp eq i8 %_11.i.3, %1
  %or.cond.i.3 = select i1 %_3.i.i.3, i1 true, i1 %_6.i.i.3
  br i1 %or.cond.i.3, label %bb4.i, label %bb6.i.3

bb6.i.3:                                          ; preds = %bb2.i.3
  %30 = getelementptr inbounds [0 x i8], [0 x i8]* %haystack.0, i64 0, i64 4
  %exitcond.not.i.3 = icmp eq i64 %haystack.1, 4
  br i1 %exitcond.not.i.3, label %bb33, label %bb2.i.4

bb2.i.4:                                          ; preds = %bb6.i.3
  %_11.i.4 = load i8, i8* %30, align 1, !noalias !11
  %_3.i.i.4 = icmp eq i8 %_11.i.4, %0
  %_6.i.i.4 = icmp eq i8 %_11.i.4, %1
  %or.cond.i.4 = select i1 %_3.i.i.4, i1 true, i1 %_6.i.i.4
  br i1 %or.cond.i.4, label %bb4.i, label %bb6.i.4

bb6.i.4:                                          ; preds = %bb2.i.4
  %31 = getelementptr inbounds [0 x i8], [0 x i8]* %haystack.0, i64 0, i64 5
  %exitcond.not.i.4 = icmp eq i64 %haystack.1, 5
  br i1 %exitcond.not.i.4, label %bb33, label %bb2.i.5

bb2.i.5:                                          ; preds = %bb6.i.4
  %_11.i.5 = load i8, i8* %31, align 1, !noalias !11
  %_3.i.i.5 = icmp eq i8 %_11.i.5, %0
  %_6.i.i.5 = icmp eq i8 %_11.i.5, %1
  %or.cond.i.5 = select i1 %_3.i.i.5, i1 true, i1 %_6.i.i.5
  br i1 %or.cond.i.5, label %bb4.i, label %bb6.i.5

bb6.i.5:                                          ; preds = %bb2.i.5
  %32 = getelementptr inbounds [0 x i8], [0 x i8]* %haystack.0, i64 0, i64 6
  %exitcond.not.i.5 = icmp eq i64 %haystack.1, 6
  br i1 %exitcond.not.i.5, label %bb33, label %bb2.i.6

bb2.i.6:                                          ; preds = %bb6.i.5
  %_11.i.6 = load i8, i8* %32, align 1, !noalias !11
  %_3.i.i.6 = icmp eq i8 %_11.i.6, %0
  %_6.i.i.6 = icmp eq i8 %_11.i.6, %1
  %or.cond.i.6 = select i1 %_3.i.i.6, i1 true, i1 %_6.i.i.6
  br i1 %or.cond.i.6, label %bb4.i, label %bb33
}

; memchr::memchr::fallback::memchr3
; Function Attrs: nofree nosync nounwind nonlazybind uwtable
define { i64, i64 } @_ZN6memchr6memchr8fallback7memchr317hb1fbce42d5904accE(i8 %0, i8 %1, i8 %2, [0 x i8]* noalias nonnull readonly align 1 %haystack.0, i64 %haystack.1) unnamed_addr #1 personality i32 (...)* @rust_eh_personality {
start:
  %_2.i = zext i8 %0 to i64
  %3 = mul nuw i64 %_2.i, 72340172838076673
  %_2.i44 = zext i8 %1 to i64
  %4 = mul nuw i64 %_2.i44, 72340172838076673
  %_2.i45 = zext i8 %2 to i64
  %5 = mul nuw i64 %_2.i45, 72340172838076673
  %6 = getelementptr [0 x i8], [0 x i8]* %haystack.0, i64 0, i64 0
  %7 = getelementptr inbounds [0 x i8], [0 x i8]* %haystack.0, i64 0, i64 %haystack.1
  %_23 = icmp ult i64 %haystack.1, 8
  br i1 %_23, label %bb6, label %bb8

bb8:                                              ; preds = %start
  %_31 = bitcast [0 x i8]* %haystack.0 to i64*
  %_31.val = load i64, i64* %_31, align 1
  %_34 = xor i64 %_31.val, %3
  %8 = add i64 %_34, -72340172838076673
  %_6.i = and i64 %_34, -9187201950435737472
  %_3.i = xor i64 %_6.i, -9187201950435737472
  %_2.i46 = and i64 %_3.i, %8
  %9 = icmp ne i64 %_2.i46, 0
  %_38 = xor i64 %_31.val, %4
  %10 = add i64 %_38, -72340172838076673
  %_6.i47 = and i64 %_38, -9187201950435737472
  %_3.i48 = xor i64 %_6.i47, -9187201950435737472
  %_2.i49 = and i64 %_3.i48, %10
  %11 = icmp ne i64 %_2.i49, 0
  %_42 = xor i64 %_31.val, %5
  %12 = add i64 %_42, -72340172838076673
  %_6.i50 = and i64 %_42, -9187201950435737472
  %_3.i51 = xor i64 %_6.i50, -9187201950435737472
  %_2.i52 = and i64 %_3.i51, %12
  %13 = icmp ne i64 %_2.i52, 0
  %.eq2 = select i1 %9, i1 true, i1 %11
  %brmerge = select i1 %.eq2, i1 true, i1 %13
  %14 = trunc i64 %_31.val to i8
  br i1 %brmerge, label %bb19, label %bb21

bb6:                                              ; preds = %start
  %_53.i.not = icmp eq i64 %haystack.1, 0
  br i1 %_53.i.not, label %bb42, label %bb2.lr.ph.i

bb2.lr.ph.i:                                      ; preds = %bb6
  %15 = ptrtoint [0 x i8]* %haystack.0 to i64
  %_11.i = load i8, i8* %6, align 1
  %_4.i.i = icmp eq i8 %_11.i, %0
  %_7.i.i = icmp eq i8 %_11.i, %1
  %or.cond = select i1 %_4.i.i, i1 true, i1 %_7.i.i
  %_10.i.i = icmp eq i8 %_11.i, %2
  %or.cond123 = select i1 %or.cond, i1 true, i1 %_10.i.i
  br i1 %or.cond123, label %bb4.i, label %bb6.i

bb6.i:                                            ; preds = %bb2.lr.ph.i
  %16 = getelementptr inbounds [0 x i8], [0 x i8]* %haystack.0, i64 0, i64 1
  %exitcond.not.i = icmp eq i64 %haystack.1, 1
  br i1 %exitcond.not.i, label %bb42, label %bb2.i.1

bb4.i:                                            ; preds = %bb2.i.6, %bb2.i.5, %bb2.i.4, %bb2.i.3, %bb2.i.2, %bb2.i.1, %bb2.lr.ph.i
  %ptr.04.i.lcssa = phi i8* [ %6, %bb2.lr.ph.i ], [ %16, %bb2.i.1 ], [ %34, %bb2.i.2 ], [ %35, %bb2.i.3 ], [ %36, %bb2.i.4 ], [ %37, %bb2.i.5 ], [ %38, %bb2.i.6 ]
  %_3.i.i = ptrtoint i8* %ptr.04.i.lcssa to i64
  %17 = sub i64 %_3.i.i, %15
  br label %bb42

bb21:                                             ; preds = %bb8
  %_58 = ptrtoint [0 x i8]* %haystack.0 to i64
  %_57 = and i64 %_58, 7
  %_56 = sub nuw nsw i64 8, %_57
  %18 = getelementptr inbounds [0 x i8], [0 x i8]* %haystack.0, i64 0, i64 %_56
  %19 = getelementptr inbounds i8, i8* %7, i64 -8
  %_61.not134 = icmp ugt i8* %18, %19
  br i1 %_61.not134, label %bb39, label %bb25

bb19:                                             ; preds = %bb8
  %_53.i53 = icmp sgt i64 %haystack.1, 0
  br i1 %_53.i53, label %bb2.lr.ph.i56, label %bb42

bb2.lr.ph.i56:                                    ; preds = %bb19
  %20 = ptrtoint [0 x i8]* %haystack.0 to i64
  %_4.i.i59153 = icmp eq i8 %14, %0
  %_7.i.i62154 = icmp eq i8 %14, %1
  %or.cond124155 = select i1 %_4.i.i59153, i1 true, i1 %_7.i.i62154
  %_10.i.i65156 = icmp eq i8 %14, %2
  %or.cond125157 = select i1 %or.cond124155, i1 true, i1 %_10.i.i65156
  br i1 %or.cond125157, label %bb4.i71, label %bb6.i68

bb6.i68:                                          ; preds = %bb2.lr.ph.i56, %bb6.i68.bb2.i60_crit_edge
  %ptr.04.i57158 = phi i8* [ %21, %bb6.i68.bb2.i60_crit_edge ], [ %6, %bb2.lr.ph.i56 ]
  %21 = getelementptr inbounds i8, i8* %ptr.04.i57158, i64 1
  %exitcond.not.i67 = icmp eq i8* %21, %7
  br i1 %exitcond.not.i67, label %bb42, label %bb6.i68.bb2.i60_crit_edge

bb6.i68.bb2.i60_crit_edge:                        ; preds = %bb6.i68
  %_11.i58.pre = load i8, i8* %21, align 1
  %_4.i.i59 = icmp eq i8 %_11.i58.pre, %0
  %_7.i.i62 = icmp eq i8 %_11.i58.pre, %1
  %or.cond124 = select i1 %_4.i.i59, i1 true, i1 %_7.i.i62
  %_10.i.i65 = icmp eq i8 %_11.i58.pre, %2
  %or.cond125 = select i1 %or.cond124, i1 true, i1 %_10.i.i65
  br i1 %or.cond125, label %bb4.i71, label %bb6.i68

bb4.i71:                                          ; preds = %bb6.i68.bb2.i60_crit_edge, %bb2.lr.ph.i56
  %ptr.04.i57.lcssa = phi i8* [ %6, %bb2.lr.ph.i56 ], [ %21, %bb6.i68.bb2.i60_crit_edge ]
  %_3.i.i69 = ptrtoint i8* %ptr.04.i57.lcssa to i64
  %22 = sub i64 %_3.i.i69, %20
  br label %bb42

bb42:                                             ; preds = %bb2.i.6, %bb6.i99, %bb6.i68, %bb6.i, %bb6.i.1, %bb6.i.2, %bb6.i.3, %bb6.i.4, %bb6.i.5, %bb4.i102, %bb39, %bb4.i71, %bb19, %bb4.i, %bb6
  %.sroa.0.0.i104.pn = phi i64 [ 1, %bb4.i ], [ 0, %bb6 ], [ 1, %bb4.i71 ], [ 0, %bb19 ], [ 1, %bb4.i102 ], [ 0, %bb39 ], [ 0, %bb6.i.5 ], [ 0, %bb6.i.4 ], [ 0, %bb6.i.3 ], [ 0, %bb6.i.2 ], [ 0, %bb6.i.1 ], [ 0, %bb6.i ], [ 0, %bb6.i68 ], [ 0, %bb6.i99 ], [ 0, %bb2.i.6 ]
  %.sroa.3.0.i103.pn = phi i64 [ %17, %bb4.i ], [ undef, %bb6 ], [ %22, %bb4.i71 ], [ undef, %bb19 ], [ %33, %bb4.i102 ], [ undef, %bb39 ], [ undef, %bb6.i.5 ], [ undef, %bb6.i.4 ], [ undef, %bb6.i.3 ], [ undef, %bb6.i.2 ], [ undef, %bb6.i.1 ], [ undef, %bb6.i ], [ undef, %bb6.i68 ], [ undef, %bb6.i99 ], [ undef, %bb2.i.6 ]
  %.pn = insertvalue { i64, i64 } undef, i64 %.sroa.0.0.i104.pn, 0
  %.pn.pn = insertvalue { i64, i64 } %.pn, i64 %.sroa.3.0.i103.pn, 1
  ret { i64, i64 } %.pn.pn

bb25:                                             ; preds = %bb21, %bb36
  %ptr.0135 = phi i8* [ %29, %bb36 ], [ %18, %bb21 ]
  %_69 = bitcast i8* %ptr.0135 to i64*
  %chunk1 = load i64, i64* %_69, align 8
  %_72 = xor i64 %chunk1, %3
  %23 = add i64 %_72, -72340172838076673
  %_6.i75 = and i64 %_72, -9187201950435737472
  %_3.i76 = xor i64 %_6.i75, -9187201950435737472
  %_2.i77 = and i64 %_3.i76, %23
  %24 = icmp ne i64 %_2.i77, 0
  %_76 = xor i64 %chunk1, %4
  %25 = add i64 %_76, -72340172838076673
  %_6.i78 = and i64 %_76, -9187201950435737472
  %_3.i79 = xor i64 %_6.i78, -9187201950435737472
  %_2.i80 = and i64 %_3.i79, %25
  %26 = icmp ne i64 %_2.i80, 0
  %_80 = xor i64 %chunk1, %5
  %27 = add i64 %_80, -72340172838076673
  %_6.i81 = and i64 %_80, -9187201950435737472
  %_3.i82 = xor i64 %_6.i81, -9187201950435737472
  %_2.i83 = and i64 %_3.i82, %27
  %28 = icmp ne i64 %_2.i83, 0
  %.eq23 = select i1 %24, i1 true, i1 %26
  %brmerge37 = select i1 %.eq23, i1 true, i1 %28
  br i1 %brmerge37, label %bb39, label %bb36

bb36:                                             ; preds = %bb25
  %29 = getelementptr inbounds i8, i8* %ptr.0135, i64 8
  %_61.not = icmp ugt i8* %29, %19
  br i1 %_61.not, label %bb39, label %bb25

bb39:                                             ; preds = %bb36, %bb25, %bb21
  %ptr.0.lcssa = phi i8* [ %18, %bb21 ], [ %ptr.0135, %bb25 ], [ %29, %bb36 ]
  %_53.i84 = icmp ult i8* %ptr.0.lcssa, %7
  br i1 %_53.i84, label %bb2.lr.ph.i87, label %bb42

bb2.lr.ph.i87:                                    ; preds = %bb39
  %end_ptr6.i85 = ptrtoint i8* %7 to i64
  %30 = ptrtoint i8* %ptr.0.lcssa to i64
  %31 = sub i64 %end_ptr6.i85, %30
  %scevgep.i = getelementptr i8, i8* %ptr.0.lcssa, i64 %31
  br label %bb2.i91

bb2.i91:                                          ; preds = %bb6.i99, %bb2.lr.ph.i87
  %ptr.04.i88 = phi i8* [ %ptr.0.lcssa, %bb2.lr.ph.i87 ], [ %32, %bb6.i99 ]
  %_11.i89 = load i8, i8* %ptr.04.i88, align 1
  %_4.i.i90 = icmp eq i8 %_11.i89, %0
  %_7.i.i93 = icmp eq i8 %_11.i89, %1
  %or.cond126 = select i1 %_4.i.i90, i1 true, i1 %_7.i.i93
  %_10.i.i96 = icmp eq i8 %_11.i89, %2
  %or.cond127 = select i1 %or.cond126, i1 true, i1 %_10.i.i96
  br i1 %or.cond127, label %bb4.i102, label %bb6.i99

bb6.i99:                                          ; preds = %bb2.i91
  %32 = getelementptr inbounds i8, i8* %ptr.04.i88, i64 1
  %exitcond.not.i98 = icmp eq i8* %32, %scevgep.i
  br i1 %exitcond.not.i98, label %bb42, label %bb2.i91

bb4.i102:                                         ; preds = %bb2.i91
  %_3.i.i100 = ptrtoint i8* %ptr.04.i88 to i64
  %33 = sub i64 %_3.i.i100, %_58
  br label %bb42

bb2.i.1:                                          ; preds = %bb6.i
  %_11.i.1 = load i8, i8* %16, align 1
  %_4.i.i.1 = icmp eq i8 %_11.i.1, %0
  %_7.i.i.1 = icmp eq i8 %_11.i.1, %1
  %or.cond.1 = select i1 %_4.i.i.1, i1 true, i1 %_7.i.i.1
  %_10.i.i.1 = icmp eq i8 %_11.i.1, %2
  %or.cond123.1 = select i1 %or.cond.1, i1 true, i1 %_10.i.i.1
  br i1 %or.cond123.1, label %bb4.i, label %bb6.i.1

bb6.i.1:                                          ; preds = %bb2.i.1
  %34 = getelementptr inbounds [0 x i8], [0 x i8]* %haystack.0, i64 0, i64 2
  %exitcond.not.i.1 = icmp eq i64 %haystack.1, 2
  br i1 %exitcond.not.i.1, label %bb42, label %bb2.i.2

bb2.i.2:                                          ; preds = %bb6.i.1
  %_11.i.2 = load i8, i8* %34, align 1
  %_4.i.i.2 = icmp eq i8 %_11.i.2, %0
  %_7.i.i.2 = icmp eq i8 %_11.i.2, %1
  %or.cond.2 = select i1 %_4.i.i.2, i1 true, i1 %_7.i.i.2
  %_10.i.i.2 = icmp eq i8 %_11.i.2, %2
  %or.cond123.2 = select i1 %or.cond.2, i1 true, i1 %_10.i.i.2
  br i1 %or.cond123.2, label %bb4.i, label %bb6.i.2

bb6.i.2:                                          ; preds = %bb2.i.2
  %35 = getelementptr inbounds [0 x i8], [0 x i8]* %haystack.0, i64 0, i64 3
  %exitcond.not.i.2 = icmp eq i64 %haystack.1, 3
  br i1 %exitcond.not.i.2, label %bb42, label %bb2.i.3

bb2.i.3:                                          ; preds = %bb6.i.2
  %_11.i.3 = load i8, i8* %35, align 1
  %_4.i.i.3 = icmp eq i8 %_11.i.3, %0
  %_7.i.i.3 = icmp eq i8 %_11.i.3, %1
  %or.cond.3 = select i1 %_4.i.i.3, i1 true, i1 %_7.i.i.3
  %_10.i.i.3 = icmp eq i8 %_11.i.3, %2
  %or.cond123.3 = select i1 %or.cond.3, i1 true, i1 %_10.i.i.3
  br i1 %or.cond123.3, label %bb4.i, label %bb6.i.3

bb6.i.3:                                          ; preds = %bb2.i.3
  %36 = getelementptr inbounds [0 x i8], [0 x i8]* %haystack.0, i64 0, i64 4
  %exitcond.not.i.3 = icmp eq i64 %haystack.1, 4
  br i1 %exitcond.not.i.3, label %bb42, label %bb2.i.4

bb2.i.4:                                          ; preds = %bb6.i.3
  %_11.i.4 = load i8, i8* %36, align 1
  %_4.i.i.4 = icmp eq i8 %_11.i.4, %0
  %_7.i.i.4 = icmp eq i8 %_11.i.4, %1
  %or.cond.4 = select i1 %_4.i.i.4, i1 true, i1 %_7.i.i.4
  %_10.i.i.4 = icmp eq i8 %_11.i.4, %2
  %or.cond123.4 = select i1 %or.cond.4, i1 true, i1 %_10.i.i.4
  br i1 %or.cond123.4, label %bb4.i, label %bb6.i.4

bb6.i.4:                                          ; preds = %bb2.i.4
  %37 = getelementptr inbounds [0 x i8], [0 x i8]* %haystack.0, i64 0, i64 5
  %exitcond.not.i.4 = icmp eq i64 %haystack.1, 5
  br i1 %exitcond.not.i.4, label %bb42, label %bb2.i.5

bb2.i.5:                                          ; preds = %bb6.i.4
  %_11.i.5 = load i8, i8* %37, align 1
  %_4.i.i.5 = icmp eq i8 %_11.i.5, %0
  %_7.i.i.5 = icmp eq i8 %_11.i.5, %1
  %or.cond.5 = select i1 %_4.i.i.5, i1 true, i1 %_7.i.i.5
  %_10.i.i.5 = icmp eq i8 %_11.i.5, %2
  %or.cond123.5 = select i1 %or.cond.5, i1 true, i1 %_10.i.i.5
  br i1 %or.cond123.5, label %bb4.i, label %bb6.i.5

bb6.i.5:                                          ; preds = %bb2.i.5
  %38 = getelementptr inbounds [0 x i8], [0 x i8]* %haystack.0, i64 0, i64 6
  %exitcond.not.i.5 = icmp eq i64 %haystack.1, 6
  br i1 %exitcond.not.i.5, label %bb42, label %bb2.i.6

bb2.i.6:                                          ; preds = %bb6.i.5
  %_11.i.6 = load i8, i8* %38, align 1
  %_4.i.i.6 = icmp eq i8 %_11.i.6, %0
  %_7.i.i.6 = icmp eq i8 %_11.i.6, %1
  %or.cond.6 = select i1 %_4.i.i.6, i1 true, i1 %_7.i.i.6
  %_10.i.i.6 = icmp eq i8 %_11.i.6, %2
  %or.cond123.6 = select i1 %or.cond.6, i1 true, i1 %_10.i.i.6
  br i1 %or.cond123.6, label %bb4.i, label %bb42
}

; memchr::memchr::fallback::memrchr
; Function Attrs: nofree nosync nounwind nonlazybind uwtable
define { i64, i64 } @_ZN6memchr6memchr8fallback7memrchr17h496897d60c974fbbE(i8 %0, [0 x i8]* noalias nonnull readonly align 1 %haystack.0, i64 %haystack.1) unnamed_addr #1 personality i32 (...)* @rust_eh_personality {
start:
  %_2.i = zext i8 %0 to i64
  %1 = mul nuw i64 %_2.i, 72340172838076673
  %2 = icmp ult i64 %haystack.1, 16
  %.0.sroa.speculated.i.i.i = select i1 %2, i64 %haystack.1, i64 16
  %3 = getelementptr [0 x i8], [0 x i8]* %haystack.0, i64 0, i64 0
  %4 = getelementptr inbounds [0 x i8], [0 x i8]* %haystack.0, i64 0, i64 %haystack.1
  %_18 = icmp ult i64 %haystack.1, 8
  br i1 %_18, label %bb1.i, label %bb7

bb7:                                              ; preds = %start
  %5 = getelementptr inbounds i8, i8* %4, i64 -8
  %_26 = bitcast i8* %5 to i64*
  %_26.val = load i64, i64* %_26, align 1
  %_30 = xor i64 %_26.val, %1
  %6 = add i64 %_30, -72340172838076673
  %_6.i = and i64 %_30, -9187201950435737472
  %_3.i = xor i64 %_6.i, -9187201950435737472
  %_2.i15 = and i64 %_3.i, %6
  %.not = icmp eq i64 %_2.i15, 0
  br i1 %.not, label %bb13, label %bb1.i19

bb1.i:                                            ; preds = %start, %bb2.i
  %ptr.0.i = phi i8* [ %7, %bb2.i ], [ %4, %start ]
  %_5.i = icmp ugt i8* %ptr.0.i, %3
  br i1 %_5.i, label %bb2.i, label %bb34

bb2.i:                                            ; preds = %bb1.i
  %7 = getelementptr inbounds i8, i8* %ptr.0.i, i64 -1
  %_13.i = load i8, i8* %7, align 1, !noalias !23
  %8 = icmp eq i8 %_13.i, %0
  br i1 %8, label %bb5.i, label %bb1.i

bb5.i:                                            ; preds = %bb2.i
  %_3.i.i = ptrtoint i8* %7 to i64
  %_5.i.i = ptrtoint [0 x i8]* %haystack.0 to i64
  %9 = sub i64 %_3.i.i, %_5.i.i
  br label %bb34

bb13:                                             ; preds = %bb7
  %_38 = ptrtoint i8* %4 to i64
  %_37 = and i64 %_38, -8
  %10 = inttoptr i64 %_37 to i8*
  %_43 = icmp ugt i64 %haystack.1, 15
  %11 = getelementptr inbounds [0 x i8], [0 x i8]* %haystack.0, i64 0, i64 16
  %12 = sub nsw i64 0, %.0.sroa.speculated.i.i.i
  %_4553 = icmp ule i8* %11, %10
  %or.cond54 = select i1 %_43, i1 %_4553, i1 false
  br i1 %or.cond54, label %bb19, label %bb1.i37.preheader

bb1.i19:                                          ; preds = %bb7, %bb2.i21
  %ptr.0.i17 = phi i8* [ %13, %bb2.i21 ], [ %4, %bb7 ]
  %_5.i18 = icmp ugt i8* %ptr.0.i17, %3
  br i1 %_5.i18, label %bb2.i21, label %bb34

bb2.i21:                                          ; preds = %bb1.i19
  %13 = getelementptr inbounds i8, i8* %ptr.0.i17, i64 -1
  %_13.i20 = load i8, i8* %13, align 1, !noalias !26
  %14 = icmp eq i8 %_13.i20, %0
  br i1 %14, label %bb5.i24, label %bb1.i19

bb5.i24:                                          ; preds = %bb2.i21
  %_3.i.i22 = ptrtoint i8* %13 to i64
  %_5.i.i23 = ptrtoint [0 x i8]* %haystack.0 to i64
  %15 = sub i64 %_3.i.i22, %_5.i.i23
  br label %bb34

bb34:                                             ; preds = %bb1.i19, %bb1.i37, %bb1.i, %bb5.i42, %bb5.i24, %bb5.i
  %.sroa.0.0.i44.pn = phi i64 [ 1, %bb5.i ], [ 1, %bb5.i24 ], [ 1, %bb5.i42 ], [ 0, %bb1.i ], [ 0, %bb1.i37 ], [ 0, %bb1.i19 ]
  %.sroa.3.0.i43.pn = phi i64 [ %9, %bb5.i ], [ %15, %bb5.i24 ], [ %25, %bb5.i42 ], [ undef, %bb1.i ], [ undef, %bb1.i37 ], [ undef, %bb1.i19 ]
  %.pn = insertvalue { i64, i64 } undef, i64 %.sroa.0.0.i44.pn, 0
  %.pn.pn = insertvalue { i64, i64 } %.pn, i64 %.sroa.3.0.i43.pn, 1
  ret { i64, i64 } %.pn.pn

bb19:                                             ; preds = %bb13, %bb28
  %ptr.055 = phi i8* [ %22, %bb28 ], [ %10, %bb13 ]
  %16 = getelementptr inbounds i8, i8* %ptr.055, i64 -16
  %_54 = bitcast i8* %16 to i64*
  %a = load i64, i64* %_54, align 8
  %17 = getelementptr inbounds i8, i8* %ptr.055, i64 -8
  %_59 = bitcast i8* %17 to i64*
  %b = load i64, i64* %_59, align 8
  %_64 = xor i64 %a, %1
  %18 = add i64 %_64, -72340172838076673
  %_6.i28 = and i64 %_64, -9187201950435737472
  %_3.i29 = xor i64 %_6.i28, -9187201950435737472
  %_2.i30 = and i64 %_3.i29, %18
  %19 = icmp ne i64 %_2.i30, 0
  %_68 = xor i64 %b, %1
  %20 = add i64 %_68, -72340172838076673
  %_6.i31 = and i64 %_68, -9187201950435737472
  %_3.i32 = xor i64 %_6.i31, -9187201950435737472
  %_2.i33 = and i64 %_3.i32, %20
  %21 = icmp ne i64 %_2.i33, 0
  %.eqb = select i1 %19, i1 true, i1 %21
  br i1 %.eqb, label %bb1.i37.preheader, label %bb28

bb28:                                             ; preds = %bb19
  %22 = getelementptr inbounds i8, i8* %ptr.055, i64 %12
  %_45.not = icmp ult i8* %22, %11
  br i1 %_45.not, label %bb1.i37.preheader, label %bb19

bb1.i37.preheader:                                ; preds = %bb19, %bb28, %bb13
  %ptr.0.i35.ph = phi i8* [ %10, %bb13 ], [ %ptr.055, %bb19 ], [ %22, %bb28 ]
  br label %bb1.i37

bb1.i37:                                          ; preds = %bb1.i37.preheader, %bb2.i39
  %ptr.0.i35 = phi i8* [ %23, %bb2.i39 ], [ %ptr.0.i35.ph, %bb1.i37.preheader ]
  %_5.i36 = icmp ugt i8* %ptr.0.i35, %3
  br i1 %_5.i36, label %bb2.i39, label %bb34

bb2.i39:                                          ; preds = %bb1.i37
  %23 = getelementptr inbounds i8, i8* %ptr.0.i35, i64 -1
  %_13.i38 = load i8, i8* %23, align 1, !noalias !29
  %24 = icmp eq i8 %_13.i38, %0
  br i1 %24, label %bb5.i42, label %bb1.i37

bb5.i42:                                          ; preds = %bb2.i39
  %_3.i.i40 = ptrtoint i8* %23 to i64
  %_5.i.i41 = ptrtoint [0 x i8]* %haystack.0 to i64
  %25 = sub i64 %_3.i.i40, %_5.i.i41
  br label %bb34
}

; memchr::memchr::fallback::memrchr2
; Function Attrs: nofree nosync nounwind nonlazybind uwtable
define { i64, i64 } @_ZN6memchr6memchr8fallback8memrchr217h986d7a15df682b91E(i8 %0, i8 %1, [0 x i8]* noalias nonnull readonly align 1 %haystack.0, i64 %haystack.1) unnamed_addr #1 personality i32 (...)* @rust_eh_personality {
start:
  %_2.i = zext i8 %0 to i64
  %2 = mul nuw i64 %_2.i, 72340172838076673
  %_2.i20 = zext i8 %1 to i64
  %3 = mul nuw i64 %_2.i20, 72340172838076673
  %4 = getelementptr [0 x i8], [0 x i8]* %haystack.0, i64 0, i64 0
  %5 = getelementptr inbounds [0 x i8], [0 x i8]* %haystack.0, i64 0, i64 %haystack.1
  %_19 = icmp ult i64 %haystack.1, 8
  br i1 %_19, label %bb1.i, label %bb7

bb7:                                              ; preds = %start
  %6 = getelementptr inbounds i8, i8* %5, i64 -8
  %_27 = bitcast i8* %6 to i64*
  %_27.val = load i64, i64* %_27, align 1
  %_31 = xor i64 %_27.val, %2
  %7 = add i64 %_31, -72340172838076673
  %_6.i = and i64 %_31, -9187201950435737472
  %_3.i = xor i64 %_6.i, -9187201950435737472
  %_2.i21 = and i64 %_3.i, %7
  %8 = icmp ne i64 %_2.i21, 0
  %_35 = xor i64 %_27.val, %3
  %9 = add i64 %_35, -72340172838076673
  %_6.i22 = and i64 %_35, -9187201950435737472
  %_3.i23 = xor i64 %_6.i22, -9187201950435737472
  %_2.i24 = and i64 %_3.i23, %9
  %10 = icmp ne i64 %_2.i24, 0
  %.eq2 = select i1 %8, i1 true, i1 %10
  br i1 %.eq2, label %bb1.i29, label %bb17

bb1.i:                                            ; preds = %start, %bb2.i
  %ptr.0.i = phi i8* [ %11, %bb2.i ], [ %5, %start ]
  %_5.i = icmp ugt i8* %ptr.0.i, %4
  br i1 %_5.i, label %bb2.i, label %bb34

bb2.i:                                            ; preds = %bb1.i
  %11 = getelementptr inbounds i8, i8* %ptr.0.i, i64 -1
  %_13.i = load i8, i8* %11, align 1, !noalias !32
  %_3.i.i = icmp eq i8 %_13.i, %0
  %_6.i.i = icmp eq i8 %_13.i, %1
  %or.cond.i = select i1 %_3.i.i, i1 true, i1 %_6.i.i
  br i1 %or.cond.i, label %bb5.i, label %bb1.i

bb5.i:                                            ; preds = %bb2.i
  %_3.i2.i = ptrtoint i8* %11 to i64
  %_5.i.i = ptrtoint [0 x i8]* %haystack.0 to i64
  %12 = sub i64 %_3.i2.i, %_5.i.i
  br label %bb34

bb17:                                             ; preds = %bb7
  %_46 = ptrtoint i8* %5 to i64
  %_45 = and i64 %_46, -8
  %13 = inttoptr i64 %_45 to i8*
  %14 = getelementptr inbounds [0 x i8], [0 x i8]* %haystack.0, i64 0, i64 8
  br label %bb18

bb1.i29:                                          ; preds = %bb7, %bb2.i34
  %ptr.0.i27 = phi i8* [ %15, %bb2.i34 ], [ %5, %bb7 ]
  %_5.i28 = icmp ugt i8* %ptr.0.i27, %4
  br i1 %_5.i28, label %bb2.i34, label %bb34

bb2.i34:                                          ; preds = %bb1.i29
  %15 = getelementptr inbounds i8, i8* %ptr.0.i27, i64 -1
  %_13.i30 = load i8, i8* %15, align 1, !noalias !36
  %_3.i.i31 = icmp eq i8 %_13.i30, %0
  %_6.i.i32 = icmp eq i8 %_13.i30, %1
  %or.cond.i33 = select i1 %_3.i.i31, i1 true, i1 %_6.i.i32
  br i1 %or.cond.i33, label %bb5.i37, label %bb1.i29

bb5.i37:                                          ; preds = %bb2.i34
  %_3.i2.i35 = ptrtoint i8* %15 to i64
  %_5.i.i36 = ptrtoint [0 x i8]* %haystack.0 to i64
  %16 = sub i64 %_3.i2.i35, %_5.i.i36
  br label %bb34

bb34:                                             ; preds = %bb1.i51, %bb1.i29, %bb1.i, %bb5.i59, %bb5.i37, %bb5.i
  %.sroa.0.0.i61.pn = phi i64 [ 1, %bb5.i ], [ 1, %bb5.i37 ], [ 1, %bb5.i59 ], [ 0, %bb1.i ], [ 0, %bb1.i29 ], [ 0, %bb1.i51 ]
  %.sroa.3.0.i60.pn = phi i64 [ %12, %bb5.i ], [ %16, %bb5.i37 ], [ %23, %bb5.i59 ], [ undef, %bb1.i ], [ undef, %bb1.i29 ], [ undef, %bb1.i51 ]
  %.pn = insertvalue { i64, i64 } undef, i64 %.sroa.0.0.i61.pn, 0
  %.pn.pn = insertvalue { i64, i64 } %.pn, i64 %.sroa.3.0.i60.pn, 1
  ret { i64, i64 } %.pn.pn

bb18:                                             ; preds = %bb20, %bb17
  %ptr.0 = phi i8* [ %13, %bb17 ], [ %17, %bb20 ]
  %_50.not = icmp ult i8* %ptr.0, %14
  br i1 %_50.not, label %bb1.i51.preheader, label %bb20

bb20:                                             ; preds = %bb18
  %17 = getelementptr inbounds i8, i8* %ptr.0, i64 -8
  %_58 = bitcast i8* %17 to i64*
  %chunk1 = load i64, i64* %_58, align 8
  %_62 = xor i64 %chunk1, %2
  %18 = add i64 %_62, -72340172838076673
  %_6.i41 = and i64 %_62, -9187201950435737472
  %_3.i42 = xor i64 %_6.i41, -9187201950435737472
  %_2.i43 = and i64 %_3.i42, %18
  %19 = icmp ne i64 %_2.i43, 0
  %_66 = xor i64 %chunk1, %3
  %20 = add i64 %_66, -72340172838076673
  %_6.i44 = and i64 %_66, -9187201950435737472
  %_3.i45 = xor i64 %_6.i44, -9187201950435737472
  %_2.i46 = and i64 %_3.i45, %20
  %21 = icmp ne i64 %_2.i46, 0
  %.eq23 = select i1 %19, i1 true, i1 %21
  br i1 %.eq23, label %bb1.i51.preheader, label %bb18

bb1.i51.preheader:                                ; preds = %bb20, %bb18
  br label %bb1.i51

bb1.i51:                                          ; preds = %bb1.i51.preheader, %bb2.i56
  %ptr.0.i49 = phi i8* [ %22, %bb2.i56 ], [ %ptr.0, %bb1.i51.preheader ]
  %_5.i50 = icmp ugt i8* %ptr.0.i49, %4
  br i1 %_5.i50, label %bb2.i56, label %bb34

bb2.i56:                                          ; preds = %bb1.i51
  %22 = getelementptr inbounds i8, i8* %ptr.0.i49, i64 -1
  %_13.i52 = load i8, i8* %22, align 1, !noalias !40
  %_3.i.i53 = icmp eq i8 %_13.i52, %0
  %_6.i.i54 = icmp eq i8 %_13.i52, %1
  %or.cond.i55 = select i1 %_3.i.i53, i1 true, i1 %_6.i.i54
  br i1 %or.cond.i55, label %bb5.i59, label %bb1.i51

bb5.i59:                                          ; preds = %bb2.i56
  %_3.i2.i57 = ptrtoint i8* %22 to i64
  %_5.i.i58 = ptrtoint [0 x i8]* %haystack.0 to i64
  %23 = sub i64 %_3.i2.i57, %_5.i.i58
  br label %bb34
}

; memchr::memchr::fallback::memrchr3
; Function Attrs: nofree nosync nounwind nonlazybind uwtable
define { i64, i64 } @_ZN6memchr6memchr8fallback8memrchr317h70c4992730bbc42bE(i8 %0, i8 %1, i8 %2, [0 x i8]* noalias nonnull readonly align 1 %haystack.0, i64 %haystack.1) unnamed_addr #1 personality i32 (...)* @rust_eh_personality {
start:
  %_2.i = zext i8 %0 to i64
  %3 = mul nuw i64 %_2.i, 72340172838076673
  %_2.i44 = zext i8 %1 to i64
  %4 = mul nuw i64 %_2.i44, 72340172838076673
  %_2.i45 = zext i8 %2 to i64
  %5 = mul nuw i64 %_2.i45, 72340172838076673
  %6 = getelementptr [0 x i8], [0 x i8]* %haystack.0, i64 0, i64 0
  %7 = getelementptr inbounds [0 x i8], [0 x i8]* %haystack.0, i64 0, i64 %haystack.1
  %_23 = icmp ult i64 %haystack.1, 8
  br i1 %_23, label %bb1.i, label %bb8

bb8:                                              ; preds = %start
  %8 = getelementptr inbounds i8, i8* %7, i64 -8
  %_31 = bitcast i8* %8 to i64*
  %_31.val = load i64, i64* %_31, align 1
  %_35 = xor i64 %_31.val, %3
  %9 = add i64 %_35, -72340172838076673
  %_6.i = and i64 %_35, -9187201950435737472
  %_3.i = xor i64 %_6.i, -9187201950435737472
  %_2.i46 = and i64 %_3.i, %9
  %10 = icmp ne i64 %_2.i46, 0
  %_39 = xor i64 %_31.val, %4
  %11 = add i64 %_39, -72340172838076673
  %_6.i47 = and i64 %_39, -9187201950435737472
  %_3.i48 = xor i64 %_6.i47, -9187201950435737472
  %_2.i49 = and i64 %_3.i48, %11
  %12 = icmp ne i64 %_2.i49, 0
  %_43 = xor i64 %_31.val, %5
  %13 = add i64 %_43, -72340172838076673
  %_6.i50 = and i64 %_43, -9187201950435737472
  %_3.i51 = xor i64 %_6.i50, -9187201950435737472
  %_2.i52 = and i64 %_3.i51, %13
  %14 = icmp ne i64 %_2.i52, 0
  %.eq2 = select i1 %10, i1 true, i1 %12
  %brmerge = select i1 %.eq2, i1 true, i1 %14
  br i1 %brmerge, label %bb1.i55, label %bb22

bb1.i:                                            ; preds = %start, %bb2.i
  %ptr.0.i = phi i8* [ %15, %bb2.i ], [ %7, %start ]
  %_5.i = icmp ugt i8* %ptr.0.i, %6
  br i1 %_5.i, label %bb2.i, label %bb43

bb2.i:                                            ; preds = %bb1.i
  %15 = getelementptr inbounds i8, i8* %ptr.0.i, i64 -1
  %_13.i = load i8, i8* %15, align 1
  %_4.i.i = icmp eq i8 %_13.i, %0
  %_7.i.i = icmp eq i8 %_13.i, %1
  %or.cond = select i1 %_4.i.i, i1 true, i1 %_7.i.i
  %_10.i.i = icmp eq i8 %_13.i, %2
  %or.cond117 = select i1 %or.cond, i1 true, i1 %_10.i.i
  br i1 %or.cond117, label %bb5.i, label %bb1.i

bb5.i:                                            ; preds = %bb2.i
  %_3.i.i = ptrtoint i8* %15 to i64
  %_5.i.i = ptrtoint [0 x i8]* %haystack.0 to i64
  %16 = sub i64 %_3.i.i, %_5.i.i
  br label %bb43

bb22:                                             ; preds = %bb8
  %_56 = ptrtoint i8* %7 to i64
  %_55 = and i64 %_56, -8
  %17 = inttoptr i64 %_55 to i8*
  %18 = getelementptr inbounds [0 x i8], [0 x i8]* %haystack.0, i64 0, i64 8
  br label %bb23

bb1.i55:                                          ; preds = %bb8, %bb2.i59
  %ptr.0.i53 = phi i8* [ %19, %bb2.i59 ], [ %7, %bb8 ]
  %_5.i54 = icmp ugt i8* %ptr.0.i53, %6
  br i1 %_5.i54, label %bb2.i59, label %bb43

bb2.i59:                                          ; preds = %bb1.i55
  %19 = getelementptr inbounds i8, i8* %ptr.0.i53, i64 -1
  %_13.i56 = load i8, i8* %19, align 1
  %_4.i.i58 = icmp eq i8 %_13.i56, %0
  %_7.i.i61 = icmp eq i8 %_13.i56, %1
  %or.cond118 = select i1 %_4.i.i58, i1 true, i1 %_7.i.i61
  %_10.i.i64 = icmp eq i8 %_13.i56, %2
  %or.cond119 = select i1 %or.cond118, i1 true, i1 %_10.i.i64
  br i1 %or.cond119, label %bb5.i68, label %bb1.i55

bb5.i68:                                          ; preds = %bb2.i59
  %_3.i.i66 = ptrtoint i8* %19 to i64
  %_5.i.i67 = ptrtoint [0 x i8]* %haystack.0 to i64
  %20 = sub i64 %_3.i.i66, %_5.i.i67
  br label %bb43

bb43:                                             ; preds = %bb1.i83, %bb1.i55, %bb1.i, %bb5.i96, %bb5.i68, %bb5.i
  %.sroa.0.0.i98.pn = phi i64 [ 1, %bb5.i ], [ 1, %bb5.i68 ], [ 1, %bb5.i96 ], [ 0, %bb1.i ], [ 0, %bb1.i55 ], [ 0, %bb1.i83 ]
  %.sroa.3.0.i97.pn = phi i64 [ %16, %bb5.i ], [ %20, %bb5.i68 ], [ %29, %bb5.i96 ], [ undef, %bb1.i ], [ undef, %bb1.i55 ], [ undef, %bb1.i83 ]
  %.pn = insertvalue { i64, i64 } undef, i64 %.sroa.0.0.i98.pn, 0
  %.pn.pn = insertvalue { i64, i64 } %.pn, i64 %.sroa.3.0.i97.pn, 1
  ret { i64, i64 } %.pn.pn

bb23:                                             ; preds = %bb25, %bb22
  %ptr.0 = phi i8* [ %17, %bb22 ], [ %21, %bb25 ]
  %_60.not = icmp ult i8* %ptr.0, %18
  br i1 %_60.not, label %bb1.i83.preheader, label %bb25

bb25:                                             ; preds = %bb23
  %21 = getelementptr inbounds i8, i8* %ptr.0, i64 -8
  %_68 = bitcast i8* %21 to i64*
  %chunk1 = load i64, i64* %_68, align 8
  %_72 = xor i64 %chunk1, %3
  %22 = add i64 %_72, -72340172838076673
  %_6.i72 = and i64 %_72, -9187201950435737472
  %_3.i73 = xor i64 %_6.i72, -9187201950435737472
  %_2.i74 = and i64 %_3.i73, %22
  %23 = icmp ne i64 %_2.i74, 0
  %_76 = xor i64 %chunk1, %4
  %24 = add i64 %_76, -72340172838076673
  %_6.i75 = and i64 %_76, -9187201950435737472
  %_3.i76 = xor i64 %_6.i75, -9187201950435737472
  %_2.i77 = and i64 %_3.i76, %24
  %25 = icmp ne i64 %_2.i77, 0
  %_80 = xor i64 %chunk1, %5
  %26 = add i64 %_80, -72340172838076673
  %_6.i78 = and i64 %_80, -9187201950435737472
  %_3.i79 = xor i64 %_6.i78, -9187201950435737472
  %_2.i80 = and i64 %_3.i79, %26
  %27 = icmp ne i64 %_2.i80, 0
  %.eq23 = select i1 %23, i1 true, i1 %25
  %brmerge37 = select i1 %.eq23, i1 true, i1 %27
  br i1 %brmerge37, label %bb1.i83.preheader, label %bb23

bb1.i83.preheader:                                ; preds = %bb25, %bb23
  br label %bb1.i83

bb1.i83:                                          ; preds = %bb1.i83.preheader, %bb2.i87
  %ptr.0.i81 = phi i8* [ %28, %bb2.i87 ], [ %ptr.0, %bb1.i83.preheader ]
  %_5.i82 = icmp ugt i8* %ptr.0.i81, %6
  br i1 %_5.i82, label %bb2.i87, label %bb43

bb2.i87:                                          ; preds = %bb1.i83
  %28 = getelementptr inbounds i8, i8* %ptr.0.i81, i64 -1
  %_13.i84 = load i8, i8* %28, align 1
  %_4.i.i86 = icmp eq i8 %_13.i84, %0
  %_7.i.i89 = icmp eq i8 %_13.i84, %1
  %or.cond120 = select i1 %_4.i.i86, i1 true, i1 %_7.i.i89
  %_10.i.i92 = icmp eq i8 %_13.i84, %2
  %or.cond121 = select i1 %or.cond120, i1 true, i1 %_10.i.i92
  br i1 %or.cond121, label %bb5.i96, label %bb1.i83

bb5.i96:                                          ; preds = %bb2.i87
  %_3.i.i94 = ptrtoint i8* %28 to i64
  %_5.i.i95 = ptrtoint [0 x i8]* %haystack.0 to i64
  %29 = sub i64 %_3.i.i94, %_5.i.i95
  br label %bb43
}

; memchr::memchr::x86::sse2::memchr
; Function Attrs: nofree nosync nounwind nonlazybind uwtable
define { i64, i64 } @_ZN6memchr6memchr3x864sse26memchr17h8c22de531a37fcc8E(i8 %n1, [0 x i8]* noalias nonnull readonly align 1 %haystack.0, i64 %haystack.1) unnamed_addr #2 personality i32 (...)* @rust_eh_personality {
start:
  %.0.vec.insert.i.i = insertelement <16 x i8> undef, i8 %n1, i32 0
  %.15.vec.insert.i.i = shufflevector <16 x i8> %.0.vec.insert.i.i, <16 x i8> poison, <16 x i32> zeroinitializer
  %0 = icmp ult i64 %haystack.1, 64
  %.0.sroa.speculated.i.i.i = select i1 %0, i64 %haystack.1, i64 64
  %1 = getelementptr inbounds [0 x i8], [0 x i8]* %haystack.0, i64 0, i64 %haystack.1
  %_17 = icmp ult i64 %haystack.1, 16
  br i1 %_17, label %bb6.preheader, label %bb13

bb6.preheader:                                    ; preds = %start
  %_20155.not = icmp eq i64 %haystack.1, 0
  br i1 %_20155.not, label %bb76, label %bb7.preheader

bb7.preheader:                                    ; preds = %bb6.preheader
  %2 = getelementptr [0 x i8], [0 x i8]* %haystack.0, i64 0, i64 0
  br label %bb7

bb13:                                             ; preds = %start
  %3 = bitcast [0 x i8]* %haystack.0 to <16 x i8>*
  %.0.copyload9.i = load <16 x i8>, <16 x i8>* %3, align 1
  %4 = icmp eq <16 x i8> %.0.copyload9.i, %.15.vec.insert.i.i
  %5 = bitcast <16 x i1> %4 to i16
  %6 = icmp eq i16 %5, 0
  br i1 %6, label %bb16, label %bb15

bb7:                                              ; preds = %bb7.preheader, %bb10
  %ptr.0156 = phi i8* [ %7, %bb10 ], [ %2, %bb7.preheader ]
  %_24 = load i8, i8* %ptr.0156, align 1
  %_23 = icmp eq i8 %_24, %n1
  br i1 %_23, label %bb8, label %bb10

bb10:                                             ; preds = %bb7
  %7 = getelementptr inbounds i8, i8* %ptr.0156, i64 1
  %_20 = icmp ult i8* %7, %1
  br i1 %_20, label %bb7, label %bb76

bb8:                                              ; preds = %bb7
  %_3.i = ptrtoint i8* %ptr.0156 to i64
  %_5.i = ptrtoint [0 x i8]* %haystack.0 to i64
  %8 = sub i64 %_3.i, %_5.i
  br label %bb76

bb15:                                             ; preds = %bb13
  %9 = tail call i16 @llvm.cttz.i16(i16 %5, i1 true) #21, !range !44
  %10 = zext i16 %9 to i64
  br label %bb76

bb16:                                             ; preds = %bb13
  %_43 = ptrtoint [0 x i8]* %haystack.0 to i64
  %_42 = and i64 %_43, 15
  %_41 = sub nuw nsw i64 16, %_42
  %11 = getelementptr inbounds [0 x i8], [0 x i8]* %haystack.0, i64 0, i64 %_41
  %_46 = icmp ugt i64 %haystack.1, 63
  %12 = getelementptr inbounds i8, i8* %1, i64 -64
  %_48144 = icmp ule i8* %11, %12
  %or.cond145 = select i1 %_46, i1 %_48144, i1 false
  br i1 %or.cond145, label %bb23, label %bb58.preheader

bb58.preheader:                                   ; preds = %bb55, %bb16
  %ptr.1.lcssa = phi i8* [ %11, %bb16 ], [ %30, %bb55 ]
  %13 = getelementptr inbounds i8, i8* %1, i64 -16
  %_129.not152 = icmp ugt i8* %ptr.1.lcssa, %13
  br i1 %_129.not152, label %bb65, label %bb60

bb23:                                             ; preds = %bb16, %bb55
  %ptr.1146 = phi i8* [ %30, %bb55 ], [ %11, %bb16 ]
  %14 = bitcast i8* %ptr.1146 to <16 x i8>*
  %_57.val133 = load <16 x i8>, <16 x i8>* %14, align 16
  %15 = getelementptr inbounds i8, i8* %ptr.1146, i64 16
  %16 = bitcast i8* %15 to <16 x i8>*
  %_60.val134 = load <16 x i8>, <16 x i8>* %16, align 16
  %17 = getelementptr inbounds i8, i8* %ptr.1146, i64 32
  %18 = bitcast i8* %17 to <16 x i8>*
  %_64.val135 = load <16 x i8>, <16 x i8>* %18, align 16
  %19 = getelementptr inbounds i8, i8* %ptr.1146, i64 48
  %20 = bitcast i8* %19 to <16 x i8>*
  %_69.val136 = load <16 x i8>, <16 x i8>* %20, align 16
  %21 = icmp eq <16 x i8> %.15.vec.insert.i.i, %_57.val133
  %22 = icmp eq <16 x i8> %.15.vec.insert.i.i, %_60.val134
  %23 = icmp eq <16 x i8> %.15.vec.insert.i.i, %_64.val135
  %24 = icmp eq <16 x i8> %.15.vec.insert.i.i, %_69.val136
  %25 = or <16 x i1> %22, %21
  %26 = or <16 x i1> %25, %23
  %27 = or <16 x i1> %26, %24
  %28 = bitcast <16 x i1> %27 to i16
  %29 = icmp eq i16 %28, 0
  br i1 %29, label %bb55, label %bb39

bb55:                                             ; preds = %bb23
  %30 = getelementptr inbounds i8, i8* %ptr.1146, i64 %.0.sroa.speculated.i.i.i
  %_48.not = icmp ugt i8* %30, %12
  br i1 %_48.not, label %bb58.preheader, label %bb23

bb39:                                             ; preds = %bb23
  %_3.i40 = ptrtoint i8* %ptr.1146 to i64
  %31 = sub i64 %_3.i40, %_43
  %32 = bitcast <16 x i1> %21 to i16
  %33 = icmp eq i16 %32, 0
  br i1 %33, label %bb44, label %bb42

bb44:                                             ; preds = %bb39
  %34 = bitcast <16 x i1> %22 to i16
  %35 = icmp eq i16 %34, 0
  br i1 %35, label %bb48, label %bb46

bb42:                                             ; preds = %bb39
  %36 = tail call i16 @llvm.cttz.i16(i16 %32, i1 true), !range !44
  %37 = zext i16 %36 to i64
  %_102 = add i64 %31, %37
  br label %bb76

bb48:                                             ; preds = %bb44
  %38 = bitcast <16 x i1> %23 to i16
  %39 = icmp eq i16 %38, 0
  br i1 %39, label %bb52, label %bb50

bb46:                                             ; preds = %bb44
  %40 = add i64 %31, 16
  %41 = tail call i16 @llvm.cttz.i16(i16 %34, i1 true), !range !44
  %42 = zext i16 %41 to i64
  %_109 = add i64 %40, %42
  br label %bb76

bb52:                                             ; preds = %bb48
  %43 = add i64 %31, 48
  %44 = bitcast <16 x i1> %24 to i16
  %45 = zext i16 %44 to i32
  %46 = tail call i32 @llvm.cttz.i32(i32 %45, i1 false) #21, !range !45
  %47 = zext i32 %46 to i64
  %_122 = add i64 %43, %47
  br label %bb76

bb50:                                             ; preds = %bb48
  %48 = add i64 %31, 32
  %49 = tail call i16 @llvm.cttz.i16(i16 %38, i1 true), !range !44
  %50 = zext i16 %49 to i64
  %_116 = add i64 %48, %50
  br label %bb76

bb65:                                             ; preds = %bb63, %bb58.preheader
  %ptr.2.lcssa = phi i8* [ %ptr.1.lcssa, %bb58.preheader ], [ %58, %bb63 ]
  %_143 = icmp ult i8* %ptr.2.lcssa, %1
  br i1 %_143, label %bb66, label %bb76

bb60:                                             ; preds = %bb58.preheader, %bb63
  %ptr.2153 = phi i8* [ %58, %bb63 ], [ %ptr.1.lcssa, %bb58.preheader ]
  %51 = bitcast i8* %ptr.2153 to <16 x i8>*
  %.0.copyload9.i46 = load <16 x i8>, <16 x i8>* %51, align 1
  %52 = icmp eq <16 x i8> %.0.copyload9.i46, %.15.vec.insert.i.i
  %53 = bitcast <16 x i1> %52 to i16
  %54 = icmp eq i16 %53, 0
  br i1 %54, label %bb63, label %bb62

bb62:                                             ; preds = %bb60
  %_3.i.i47 = ptrtoint i8* %ptr.2153 to i64
  %55 = sub i64 %_3.i.i47, %_43
  %56 = tail call i16 @llvm.cttz.i16(i16 %53, i1 true) #21, !range !44
  %57 = zext i16 %56 to i64
  %_13.i = add i64 %55, %57
  br label %bb76

bb63:                                             ; preds = %bb60
  %58 = getelementptr inbounds i8, i8* %ptr.2153, i64 16
  %_129.not = icmp ugt i8* %58, %13
  br i1 %_129.not, label %bb65, label %bb60

bb66:                                             ; preds = %bb65
  %_3.i53 = ptrtoint i8* %1 to i64
  %_5.i54 = ptrtoint i8* %ptr.2.lcssa to i64
  %.neg.neg = add i64 %_3.i53, -16
  %59 = sub i64 %.neg.neg, %_5.i54
  %60 = getelementptr inbounds i8, i8* %ptr.2.lcssa, i64 %59
  %61 = bitcast i8* %60 to <16 x i8>*
  %.0.copyload9.i55 = load <16 x i8>, <16 x i8>* %61, align 1
  %62 = icmp eq <16 x i8> %.0.copyload9.i55, %.15.vec.insert.i.i
  %63 = bitcast <16 x i1> %62 to i16
  %64 = icmp eq i16 %63, 0
  br i1 %64, label %bb76, label %bb4.i59

bb4.i59:                                          ; preds = %bb66
  %_3.i.i56 = ptrtoint i8* %60 to i64
  %65 = sub i64 %_3.i.i56, %_43
  %66 = tail call i16 @llvm.cttz.i16(i16 %63, i1 true) #21, !range !44
  %67 = zext i16 %66 to i64
  %_13.i58 = add i64 %65, %67
  br label %bb76

bb76:                                             ; preds = %bb10, %bb6.preheader, %bb4.i59, %bb66, %bb65, %bb42, %bb46, %bb52, %bb50, %bb62, %bb15, %bb8
  %.sroa.11.2 = phi i64 [ %8, %bb8 ], [ %10, %bb15 ], [ %_13.i, %bb62 ], [ %_122, %bb52 ], [ %_116, %bb50 ], [ %_109, %bb46 ], [ %_102, %bb42 ], [ undef, %bb65 ], [ %_13.i58, %bb4.i59 ], [ undef, %bb66 ], [ undef, %bb6.preheader ], [ undef, %bb10 ]
  %.sroa.0.2 = phi i64 [ 1, %bb8 ], [ 1, %bb15 ], [ 1, %bb62 ], [ 1, %bb52 ], [ 1, %bb50 ], [ 1, %bb46 ], [ 1, %bb42 ], [ 0, %bb65 ], [ 1, %bb4.i59 ], [ 0, %bb66 ], [ 0, %bb6.preheader ], [ 0, %bb10 ]
  %68 = insertvalue { i64, i64 } undef, i64 %.sroa.0.2, 0
  %69 = insertvalue { i64, i64 } %68, i64 %.sroa.11.2, 1
  ret { i64, i64 } %69
}

; memchr::memchr::x86::sse2::memchr2
; Function Attrs: nofree nosync nounwind nonlazybind uwtable
define { i64, i64 } @_ZN6memchr6memchr3x864sse27memchr217h648ef86af91e615fE(i8 %n1, i8 %n2, [0 x i8]* noalias nonnull readonly align 1 %haystack.0, i64 %haystack.1) unnamed_addr #2 personality i32 (...)* @rust_eh_personality {
start:
  %.0.vec.insert.i.i = insertelement <16 x i8> undef, i8 %n1, i32 0
  %.15.vec.insert.i.i = shufflevector <16 x i8> %.0.vec.insert.i.i, <16 x i8> poison, <16 x i32> zeroinitializer
  %.0.vec.insert.i.i33 = insertelement <16 x i8> undef, i8 %n2, i32 0
  %.15.vec.insert.i.i34 = shufflevector <16 x i8> %.0.vec.insert.i.i33, <16 x i8> poison, <16 x i32> zeroinitializer
  %0 = icmp ult i64 %haystack.1, 32
  %.0.sroa.speculated.i.i.i = select i1 %0, i64 %haystack.1, i64 32
  %1 = getelementptr inbounds [0 x i8], [0 x i8]* %haystack.0, i64 0, i64 %haystack.1
  %_21 = icmp ult i64 %haystack.1, 16
  br i1 %_21, label %bb7.preheader, label %bb17

bb7.preheader:                                    ; preds = %start
  %_24161.not = icmp eq i64 %haystack.1, 0
  br i1 %_24161.not, label %bb71, label %bb8.preheader

bb8.preheader:                                    ; preds = %bb7.preheader
  %2 = getelementptr [0 x i8], [0 x i8]* %haystack.0, i64 0, i64 0
  br label %bb8

bb17:                                             ; preds = %start
  %3 = bitcast [0 x i8]* %haystack.0 to <16 x i8>*
  %.0.copyload22.i = load <16 x i8>, <16 x i8>* %3, align 1
  %4 = icmp eq <16 x i8> %.0.copyload22.i, %.15.vec.insert.i.i
  %5 = icmp eq <16 x i8> %.0.copyload22.i, %.15.vec.insert.i.i34
  %6 = or <16 x i1> %5, %4
  %7 = bitcast <16 x i1> %6 to i16
  %8 = icmp eq i16 %7, 0
  br i1 %8, label %bb20, label %bb19

bb8:                                              ; preds = %bb8.preheader, %bb14
  %ptr.0162 = phi i8* [ %9, %bb14 ], [ %2, %bb8.preheader ]
  %_29 = load i8, i8* %ptr.0162, align 1
  %_28 = icmp eq i8 %_29, %n1
  %_31 = icmp eq i8 %_29, %n2
  %_27.0 = select i1 %_28, i1 true, i1 %_31
  br i1 %_27.0, label %bb12, label %bb14

bb14:                                             ; preds = %bb8
  %9 = getelementptr inbounds i8, i8* %ptr.0162, i64 1
  %_24 = icmp ult i8* %9, %1
  br i1 %_24, label %bb8, label %bb71

bb12:                                             ; preds = %bb8
  %_3.i = ptrtoint i8* %ptr.0162 to i64
  %_5.i = ptrtoint [0 x i8]* %haystack.0 to i64
  %10 = sub i64 %_3.i, %_5.i
  br label %bb71

bb19:                                             ; preds = %bb17
  %11 = tail call i16 @llvm.cttz.i16(i16 %7, i1 true) #21, !range !44
  %12 = zext i16 %11 to i64
  br label %bb71

bb20:                                             ; preds = %bb17
  %_52 = ptrtoint [0 x i8]* %haystack.0 to i64
  %_51 = and i64 %_52, 15
  %_50 = sub nuw nsw i64 16, %_51
  %13 = getelementptr inbounds [0 x i8], [0 x i8]* %haystack.0, i64 0, i64 %_50
  %_55 = icmp ugt i64 %haystack.1, 31
  %14 = getelementptr inbounds i8, i8* %1, i64 -32
  %_57150 = icmp ule i8* %13, %14
  %or.cond151 = select i1 %_55, i1 %_57150, i1 false
  br i1 %or.cond151, label %bb27, label %bb55.preheader

bb55.preheader:                                   ; preds = %bb52, %bb20
  %ptr.1.lcssa = phi i8* [ %13, %bb20 ], [ %28, %bb52 ]
  %15 = getelementptr inbounds i8, i8* %1, i64 -16
  %_123.not158 = icmp ugt i8* %ptr.1.lcssa, %15
  br i1 %_123.not158, label %bb62, label %bb57

bb27:                                             ; preds = %bb20, %bb52
  %ptr.1152 = phi i8* [ %28, %bb52 ], [ %13, %bb20 ]
  %16 = bitcast i8* %ptr.1152 to <16 x i8>*
  %_66.val137 = load <16 x i8>, <16 x i8>* %16, align 16
  %17 = getelementptr inbounds i8, i8* %ptr.1152, i64 16
  %18 = bitcast i8* %17 to <16 x i8>*
  %_69.val138 = load <16 x i8>, <16 x i8>* %18, align 16
  %19 = icmp eq <16 x i8> %.15.vec.insert.i.i, %_66.val137
  %20 = icmp eq <16 x i8> %.15.vec.insert.i.i, %_69.val138
  %21 = icmp eq <16 x i8> %.15.vec.insert.i.i34, %_66.val137
  %22 = icmp eq <16 x i8> %.15.vec.insert.i.i34, %_69.val138
  %23 = or <16 x i1> %19, %21
  %24 = or <16 x i1> %23, %22
  %25 = or <16 x i1> %24, %20
  %26 = bitcast <16 x i1> %25 to i16
  %27 = icmp eq i16 %26, 0
  br i1 %27, label %bb52, label %bb39

bb52:                                             ; preds = %bb27
  %28 = getelementptr inbounds i8, i8* %ptr.1152, i64 %.0.sroa.speculated.i.i.i
  %_57.not = icmp ugt i8* %28, %14
  br i1 %_57.not, label %bb55.preheader, label %bb27

bb39:                                             ; preds = %bb27
  %_3.i41 = ptrtoint i8* %ptr.1152 to i64
  %29 = sub i64 %_3.i41, %_52
  %30 = bitcast <16 x i1> %19 to i16
  %31 = bitcast <16 x i1> %21 to i16
  %32 = icmp ne i16 %30, 0
  %_104 = icmp ne i16 %31, 0
  %_102.0 = select i1 %32, i1 true, i1 %_104
  br i1 %_102.0, label %bb46, label %bb48

bb48:                                             ; preds = %bb39
  %33 = add i64 %29, 16
  %_3.i47139140 = or <16 x i1> %22, %20
  %_3.i47139 = bitcast <16 x i1> %_3.i47139140 to i16
  %_3.i47 = zext i16 %_3.i47139 to i32
  %34 = tail call i32 @llvm.cttz.i32(i32 %_3.i47, i1 false) #21, !range !45
  %35 = zext i32 %34 to i64
  %_115 = add i64 %33, %35
  br label %bb71

bb46:                                             ; preds = %bb39
  %_3.i48141 = bitcast <16 x i1> %23 to i16
  %_3.i48 = zext i16 %_3.i48141 to i32
  %36 = tail call i32 @llvm.cttz.i32(i32 %_3.i48, i1 false) #21, !range !45
  %37 = zext i32 %36 to i64
  %_106 = add i64 %29, %37
  br label %bb71

bb62:                                             ; preds = %bb60, %bb55.preheader
  %ptr.2.lcssa = phi i8* [ %ptr.1.lcssa, %bb55.preheader ], [ %47, %bb60 ]
  %_138 = icmp ult i8* %ptr.2.lcssa, %1
  br i1 %_138, label %bb63, label %bb71

bb57:                                             ; preds = %bb55.preheader, %bb60
  %ptr.2159 = phi i8* [ %47, %bb60 ], [ %ptr.1.lcssa, %bb55.preheader ]
  %38 = bitcast i8* %ptr.2159 to <16 x i8>*
  %.0.copyload22.i49 = load <16 x i8>, <16 x i8>* %38, align 1
  %39 = icmp eq <16 x i8> %.0.copyload22.i49, %.15.vec.insert.i.i
  %40 = icmp eq <16 x i8> %.0.copyload22.i49, %.15.vec.insert.i.i34
  %41 = or <16 x i1> %40, %39
  %42 = bitcast <16 x i1> %41 to i16
  %43 = icmp eq i16 %42, 0
  br i1 %43, label %bb60, label %bb59

bb59:                                             ; preds = %bb57
  %_3.i.i50 = ptrtoint i8* %ptr.2159 to i64
  %44 = sub i64 %_3.i.i50, %_52
  %45 = tail call i16 @llvm.cttz.i16(i16 %42, i1 true) #21, !range !44
  %46 = zext i16 %45 to i64
  %_23.i = add i64 %44, %46
  br label %bb71

bb60:                                             ; preds = %bb57
  %47 = getelementptr inbounds i8, i8* %ptr.2159, i64 16
  %_123.not = icmp ugt i8* %47, %15
  br i1 %_123.not, label %bb62, label %bb57

bb63:                                             ; preds = %bb62
  %_3.i56 = ptrtoint i8* %1 to i64
  %_5.i57 = ptrtoint i8* %ptr.2.lcssa to i64
  %.neg.neg = add i64 %_3.i56, -16
  %48 = sub i64 %.neg.neg, %_5.i57
  %49 = getelementptr inbounds i8, i8* %ptr.2.lcssa, i64 %48
  %50 = bitcast i8* %49 to <16 x i8>*
  %.0.copyload22.i58 = load <16 x i8>, <16 x i8>* %50, align 1
  %51 = icmp eq <16 x i8> %.0.copyload22.i58, %.15.vec.insert.i.i
  %52 = icmp eq <16 x i8> %.0.copyload22.i58, %.15.vec.insert.i.i34
  %53 = or <16 x i1> %52, %51
  %54 = bitcast <16 x i1> %53 to i16
  %55 = icmp eq i16 %54, 0
  br i1 %55, label %bb71, label %bb6.i62

bb6.i62:                                          ; preds = %bb63
  %_3.i.i59 = ptrtoint i8* %49 to i64
  %56 = sub i64 %_3.i.i59, %_52
  %57 = tail call i16 @llvm.cttz.i16(i16 %54, i1 true) #21, !range !44
  %58 = zext i16 %57 to i64
  %_23.i61 = add i64 %56, %58
  br label %bb71

bb71:                                             ; preds = %bb14, %bb7.preheader, %bb6.i62, %bb63, %bb62, %bb46, %bb48, %bb59, %bb19, %bb12
  %.sroa.9.2 = phi i64 [ %10, %bb12 ], [ %12, %bb19 ], [ %_23.i, %bb59 ], [ %_106, %bb46 ], [ %_115, %bb48 ], [ undef, %bb62 ], [ %_23.i61, %bb6.i62 ], [ undef, %bb63 ], [ undef, %bb7.preheader ], [ undef, %bb14 ]
  %.sroa.0.2 = phi i64 [ 1, %bb12 ], [ 1, %bb19 ], [ 1, %bb59 ], [ 1, %bb46 ], [ 1, %bb48 ], [ 0, %bb62 ], [ 1, %bb6.i62 ], [ 0, %bb63 ], [ 0, %bb7.preheader ], [ 0, %bb14 ]
  %59 = insertvalue { i64, i64 } undef, i64 %.sroa.0.2, 0
  %60 = insertvalue { i64, i64 } %59, i64 %.sroa.9.2, 1
  ret { i64, i64 } %60
}

; memchr::memchr::x86::sse2::memchr3
; Function Attrs: nofree nosync nounwind nonlazybind uwtable
define { i64, i64 } @_ZN6memchr6memchr3x864sse27memchr317h3528250da6145231E(i8 %n1, i8 %n2, i8 %n3, [0 x i8]* noalias nonnull readonly align 1 %haystack.0, i64 %haystack.1) unnamed_addr #2 personality i32 (...)* @rust_eh_personality {
start:
  %.0.vec.insert.i.i = insertelement <16 x i8> undef, i8 %n1, i32 0
  %.15.vec.insert.i.i = shufflevector <16 x i8> %.0.vec.insert.i.i, <16 x i8> poison, <16 x i32> zeroinitializer
  %.0.vec.insert.i.i42 = insertelement <16 x i8> undef, i8 %n2, i32 0
  %.15.vec.insert.i.i43 = shufflevector <16 x i8> %.0.vec.insert.i.i42, <16 x i8> poison, <16 x i32> zeroinitializer
  %.0.vec.insert.i.i44 = insertelement <16 x i8> undef, i8 %n3, i32 0
  %.15.vec.insert.i.i45 = shufflevector <16 x i8> %.0.vec.insert.i.i44, <16 x i8> poison, <16 x i32> zeroinitializer
  %0 = icmp ult i64 %haystack.1, 32
  %.0.sroa.speculated.i.i.i = select i1 %0, i64 %haystack.1, i64 32
  %1 = getelementptr inbounds [0 x i8], [0 x i8]* %haystack.0, i64 0, i64 %haystack.1
  %_25 = icmp ult i64 %haystack.1, 16
  br i1 %_25, label %bb8.preheader, label %bb21

bb8.preheader:                                    ; preds = %start
  %_28223.not = icmp eq i64 %haystack.1, 0
  br i1 %_28223.not, label %bb84, label %bb9.preheader

bb9.preheader:                                    ; preds = %bb8.preheader
  %2 = getelementptr [0 x i8], [0 x i8]* %haystack.0, i64 0, i64 0
  br label %bb9

bb21:                                             ; preds = %start
  %3 = bitcast [0 x i8]* %haystack.0 to <16 x i8>*
  %.0.copyload34.i = load <16 x i8>, <16 x i8>* %3, align 1
  %4 = icmp eq <16 x i8> %.0.copyload34.i, %.15.vec.insert.i.i
  %5 = icmp eq <16 x i8> %.0.copyload34.i, %.15.vec.insert.i.i43
  %6 = icmp eq <16 x i8> %.0.copyload34.i, %.15.vec.insert.i.i45
  %7 = or <16 x i1> %4, %6
  %8 = or <16 x i1> %7, %5
  %9 = bitcast <16 x i1> %8 to i16
  %10 = icmp eq i16 %9, 0
  br i1 %10, label %bb24, label %bb23

bb9:                                              ; preds = %bb9.preheader, %bb18
  %ptr.0224 = phi i8* [ %11, %bb18 ], [ %2, %bb9.preheader ]
  %_34 = load i8, i8* %ptr.0224, align 1
  %_33 = icmp eq i8 %_34, %n1
  %_36 = icmp eq i8 %_34, %n2
  %_32.0 = select i1 %_33, i1 true, i1 %_36
  %_39 = icmp eq i8 %_34, %n3
  %or.cond189 = select i1 %_32.0, i1 true, i1 %_39
  br i1 %or.cond189, label %bb16, label %bb18

bb18:                                             ; preds = %bb9
  %11 = getelementptr inbounds i8, i8* %ptr.0224, i64 1
  %_28 = icmp ult i8* %11, %1
  br i1 %_28, label %bb9, label %bb84

bb16:                                             ; preds = %bb9
  %_3.i = ptrtoint i8* %ptr.0224 to i64
  %_5.i = ptrtoint [0 x i8]* %haystack.0 to i64
  %12 = sub i64 %_3.i, %_5.i
  br label %bb84

bb23:                                             ; preds = %bb21
  %13 = tail call i16 @llvm.cttz.i16(i16 %9, i1 true) #21, !range !44
  %14 = zext i16 %13 to i64
  br label %bb84

bb24:                                             ; preds = %bb21
  %_61 = ptrtoint [0 x i8]* %haystack.0 to i64
  %_60 = and i64 %_61, 15
  %_59 = sub nuw nsw i64 16, %_60
  %15 = getelementptr inbounds [0 x i8], [0 x i8]* %haystack.0, i64 0, i64 %_59
  %_64 = icmp ugt i64 %haystack.1, 31
  %16 = getelementptr inbounds i8, i8* %1, i64 -32
  %_66210 = icmp ule i8* %15, %16
  %or.cond190211 = select i1 %_64, i1 %_66210, i1 false
  br i1 %or.cond190211, label %bb31, label %bb68.preheader

bb68.preheader:                                   ; preds = %bb65, %bb24
  %ptr.1.lcssa = phi i8* [ %15, %bb24 ], [ %34, %bb65 ]
  %17 = getelementptr inbounds i8, i8* %1, i64 -16
  %_153.not220 = icmp ugt i8* %ptr.1.lcssa, %17
  br i1 %_153.not220, label %bb75, label %bb70

bb31:                                             ; preds = %bb24, %bb65
  %ptr.1212 = phi i8* [ %34, %bb65 ], [ %15, %bb24 ]
  %18 = bitcast i8* %ptr.1212 to <16 x i8>*
  %_75.val191 = load <16 x i8>, <16 x i8>* %18, align 16
  %19 = getelementptr inbounds i8, i8* %ptr.1212, i64 16
  %20 = bitcast i8* %19 to <16 x i8>*
  %_78.val192 = load <16 x i8>, <16 x i8>* %20, align 16
  %21 = icmp eq <16 x i8> %.15.vec.insert.i.i, %_75.val191
  %22 = icmp eq <16 x i8> %.15.vec.insert.i.i, %_78.val192
  %23 = icmp eq <16 x i8> %.15.vec.insert.i.i43, %_75.val191
  %24 = icmp eq <16 x i8> %.15.vec.insert.i.i43, %_78.val192
  %25 = icmp eq <16 x i8> %.15.vec.insert.i.i45, %_75.val191
  %26 = icmp eq <16 x i8> %.15.vec.insert.i.i45, %_78.val192
  %27 = or <16 x i1> %23, %25
  %28 = or <16 x i1> %27, %21
  %29 = or <16 x i1> %28, %26
  %30 = or <16 x i1> %29, %24
  %31 = or <16 x i1> %30, %22
  %32 = bitcast <16 x i1> %31 to i16
  %33 = icmp eq i16 %32, 0
  br i1 %33, label %bb65, label %bb47

bb65:                                             ; preds = %bb31
  %34 = getelementptr inbounds i8, i8* %ptr.1212, i64 %.0.sroa.speculated.i.i.i
  %_66.not = icmp ugt i8* %34, %16
  br i1 %_66.not, label %bb68.preheader, label %bb31

bb47:                                             ; preds = %bb31
  %_3.i56 = ptrtoint i8* %ptr.1212 to i64
  %35 = sub i64 %_3.i56, %_61
  %36 = bitcast <16 x i1> %21 to i16
  %37 = bitcast <16 x i1> %23 to i16
  %38 = bitcast <16 x i1> %25 to i16
  %39 = icmp ne i16 %36, 0
  %_128 = icmp ne i16 %37, 0
  %_126.0 = select i1 %39, i1 true, i1 %_128
  %_130 = icmp ne i16 %38, 0
  %or.cond = select i1 %_126.0, i1 true, i1 %_130
  br i1 %or.cond, label %bb58, label %bb60

bb60:                                             ; preds = %bb47
  %40 = add i64 %35, 16
  %_5.i64193194 = or <16 x i1> %22, %26
  %_4.i195196 = or <16 x i1> %_5.i64193194, %24
  %_4.i195 = bitcast <16 x i1> %_4.i195196 to i16
  %_4.i = zext i16 %_4.i195 to i32
  %41 = tail call i32 @llvm.cttz.i32(i32 %_4.i, i1 false) #21, !range !45
  %42 = zext i32 %41 to i64
  %_144 = add i64 %40, %42
  br label %bb84

bb58:                                             ; preds = %bb47
  %_5.i65197198 = or <16 x i1> %21, %25
  %_4.i66199200 = or <16 x i1> %_5.i65197198, %23
  %_4.i66199 = bitcast <16 x i1> %_4.i66199200 to i16
  %_4.i66 = zext i16 %_4.i66199 to i32
  %43 = tail call i32 @llvm.cttz.i32(i32 %_4.i66, i1 false) #21, !range !45
  %44 = zext i32 %43 to i64
  %_132 = add i64 %35, %44
  br label %bb84

bb75:                                             ; preds = %bb73, %bb68.preheader
  %ptr.2.lcssa = phi i8* [ %ptr.1.lcssa, %bb68.preheader ], [ %56, %bb73 ]
  %_169 = icmp ult i8* %ptr.2.lcssa, %1
  br i1 %_169, label %bb76, label %bb84

bb70:                                             ; preds = %bb68.preheader, %bb73
  %ptr.2221 = phi i8* [ %56, %bb73 ], [ %ptr.1.lcssa, %bb68.preheader ]
  %45 = bitcast i8* %ptr.2221 to <16 x i8>*
  %.0.copyload34.i67 = load <16 x i8>, <16 x i8>* %45, align 1
  %46 = icmp eq <16 x i8> %.0.copyload34.i67, %.15.vec.insert.i.i
  %47 = icmp eq <16 x i8> %.0.copyload34.i67, %.15.vec.insert.i.i43
  %48 = icmp eq <16 x i8> %.0.copyload34.i67, %.15.vec.insert.i.i45
  %49 = or <16 x i1> %46, %48
  %50 = or <16 x i1> %49, %47
  %51 = bitcast <16 x i1> %50 to i16
  %52 = icmp eq i16 %51, 0
  br i1 %52, label %bb73, label %bb72

bb72:                                             ; preds = %bb70
  %_3.i.i68 = ptrtoint i8* %ptr.2221 to i64
  %53 = sub i64 %_3.i.i68, %_61
  %54 = tail call i16 @llvm.cttz.i16(i16 %51, i1 true) #21, !range !44
  %55 = zext i16 %54 to i64
  %_32.i70 = add i64 %53, %55
  br label %bb84

bb73:                                             ; preds = %bb70
  %56 = getelementptr inbounds i8, i8* %ptr.2221, i64 16
  %_153.not = icmp ugt i8* %56, %17
  br i1 %_153.not, label %bb75, label %bb70

bb76:                                             ; preds = %bb75
  %_3.i75 = ptrtoint i8* %1 to i64
  %_5.i76 = ptrtoint i8* %ptr.2.lcssa to i64
  %.neg.neg = add i64 %_3.i75, -16
  %57 = sub i64 %.neg.neg, %_5.i76
  %58 = getelementptr inbounds i8, i8* %ptr.2.lcssa, i64 %57
  %59 = bitcast i8* %58 to <16 x i8>*
  %.0.copyload34.i77 = load <16 x i8>, <16 x i8>* %59, align 1
  %60 = icmp eq <16 x i8> %.0.copyload34.i77, %.15.vec.insert.i.i
  %61 = icmp eq <16 x i8> %.0.copyload34.i77, %.15.vec.insert.i.i43
  %62 = icmp eq <16 x i8> %.0.copyload34.i77, %.15.vec.insert.i.i45
  %63 = or <16 x i1> %60, %62
  %64 = or <16 x i1> %63, %61
  %65 = bitcast <16 x i1> %64 to i16
  %66 = icmp eq i16 %65, 0
  br i1 %66, label %bb84, label %bb8.i81

bb8.i81:                                          ; preds = %bb76
  %_3.i.i78 = ptrtoint i8* %58 to i64
  %67 = sub i64 %_3.i.i78, %_61
  %68 = tail call i16 @llvm.cttz.i16(i16 %65, i1 true) #21, !range !44
  %69 = zext i16 %68 to i64
  %_32.i80 = add i64 %67, %69
  br label %bb84

bb84:                                             ; preds = %bb18, %bb8.preheader, %bb8.i81, %bb76, %bb75, %bb58, %bb60, %bb72, %bb23, %bb16
  %.sroa.9.2 = phi i64 [ %12, %bb16 ], [ %14, %bb23 ], [ %_32.i70, %bb72 ], [ %_132, %bb58 ], [ %_144, %bb60 ], [ undef, %bb75 ], [ %_32.i80, %bb8.i81 ], [ undef, %bb76 ], [ undef, %bb8.preheader ], [ undef, %bb18 ]
  %.sroa.0.2 = phi i64 [ 1, %bb16 ], [ 1, %bb23 ], [ 1, %bb72 ], [ 1, %bb58 ], [ 1, %bb60 ], [ 0, %bb75 ], [ 1, %bb8.i81 ], [ 0, %bb76 ], [ 0, %bb8.preheader ], [ 0, %bb18 ]
  %70 = insertvalue { i64, i64 } undef, i64 %.sroa.0.2, 0
  %71 = insertvalue { i64, i64 } %70, i64 %.sroa.9.2, 1
  ret { i64, i64 } %71
}

; memchr::memchr::x86::sse2::memrchr
; Function Attrs: nofree nosync nounwind nonlazybind uwtable
define { i64, i64 } @_ZN6memchr6memchr3x864sse27memrchr17h6b1a5fd77ea8a7e0E(i8 %n1, [0 x i8]* noalias nonnull readonly align 1 %haystack.0, i64 %haystack.1) unnamed_addr #2 personality i32 (...)* @rust_eh_personality {
start:
  %.0.vec.insert.i.i = insertelement <16 x i8> undef, i8 %n1, i32 0
  %.15.vec.insert.i.i = shufflevector <16 x i8> %.0.vec.insert.i.i, <16 x i8> poison, <16 x i32> zeroinitializer
  %0 = icmp ult i64 %haystack.1, 64
  %.0.sroa.speculated.i.i.i = select i1 %0, i64 %haystack.1, i64 64
  %1 = getelementptr [0 x i8], [0 x i8]* %haystack.0, i64 0, i64 0
  %2 = getelementptr inbounds [0 x i8], [0 x i8]* %haystack.0, i64 0, i64 %haystack.1
  %_17 = icmp ult i64 %haystack.1, 16
  br i1 %_17, label %bb6, label %bb13

bb13:                                             ; preds = %start
  %3 = getelementptr inbounds i8, i8* %2, i64 -16
  %4 = bitcast i8* %3 to <16 x i8>*
  %.0.copyload9.i = load <16 x i8>, <16 x i8>* %4, align 1
  %5 = icmp eq <16 x i8> %.0.copyload9.i, %.15.vec.insert.i.i
  %6 = bitcast <16 x i1> %5 to i16
  %7 = icmp eq i16 %6, 0
  br i1 %7, label %bb17, label %bb16

bb6:                                              ; preds = %start, %bb7
  %ptr.0 = phi i8* [ %8, %bb7 ], [ %2, %start ]
  %_20 = icmp ugt i8* %ptr.0, %1
  br i1 %_20, label %bb7, label %bb75

bb7:                                              ; preds = %bb6
  %8 = getelementptr inbounds i8, i8* %ptr.0, i64 -1
  %_26 = load i8, i8* %8, align 1
  %_25 = icmp eq i8 %_26, %n1
  br i1 %_25, label %bb9, label %bb6

bb9:                                              ; preds = %bb7
  %_3.i = ptrtoint i8* %8 to i64
  %_5.i = ptrtoint [0 x i8]* %haystack.0 to i64
  %9 = sub i64 %_3.i, %_5.i
  br label %bb75

bb16:                                             ; preds = %bb13
  %_3.i.i = ptrtoint i8* %3 to i64
  %_5.i1.i = ptrtoint [0 x i8]* %haystack.0 to i64
  %10 = sub i64 %_3.i.i, %_5.i1.i
  %11 = tail call i16 @llvm.ctlz.i16(i16 %6, i1 true) #21, !range !44
  %12 = xor i16 %11, 15
  %13 = zext i16 %12 to i64
  %_13.i = add i64 %10, %13
  br label %bb75

bb17:                                             ; preds = %bb13
  %_42 = ptrtoint i8* %2 to i64
  %_41 = and i64 %_42, -16
  %14 = inttoptr i64 %_41 to i8*
  %_46 = icmp ugt i64 %haystack.1, 63
  %15 = getelementptr inbounds [0 x i8], [0 x i8]* %haystack.0, i64 0, i64 64
  %16 = sub nsw i64 0, %.0.sroa.speculated.i.i.i
  br i1 %_46, label %bb18, label %bb59.preheader

bb18:                                             ; preds = %bb17, %bb23
  %ptr.1 = phi i8* [ %18, %bb23 ], [ %14, %bb17 ]
  %_48.not = icmp ult i8* %ptr.1, %15
  br i1 %_48.not, label %bb59.preheader, label %bb23

bb59.preheader:                                   ; preds = %bb18, %bb17
  %.us-phi = phi i8* [ %14, %bb17 ], [ %ptr.1, %bb18 ]
  %17 = getelementptr inbounds [0 x i8], [0 x i8]* %haystack.0, i64 0, i64 16
  br label %bb59

bb23:                                             ; preds = %bb18
  %18 = getelementptr inbounds i8, i8* %ptr.1, i64 %16
  %19 = bitcast i8* %18 to <16 x i8>*
  %_60.val135 = load <16 x i8>, <16 x i8>* %19, align 16
  %20 = getelementptr inbounds i8, i8* %18, i64 16
  %21 = bitcast i8* %20 to <16 x i8>*
  %_63.val136 = load <16 x i8>, <16 x i8>* %21, align 16
  %22 = getelementptr inbounds i8, i8* %18, i64 32
  %23 = bitcast i8* %22 to <16 x i8>*
  %_67.val137 = load <16 x i8>, <16 x i8>* %23, align 16
  %24 = getelementptr inbounds i8, i8* %18, i64 48
  %25 = bitcast i8* %24 to <16 x i8>*
  %_72.val138 = load <16 x i8>, <16 x i8>* %25, align 16
  %26 = icmp eq <16 x i8> %.15.vec.insert.i.i, %_60.val135
  %27 = icmp eq <16 x i8> %.15.vec.insert.i.i, %_63.val136
  %28 = icmp eq <16 x i8> %.15.vec.insert.i.i, %_67.val137
  %29 = icmp eq <16 x i8> %.15.vec.insert.i.i, %_72.val138
  %30 = or <16 x i1> %27, %26
  %31 = or <16 x i1> %30, %28
  %32 = or <16 x i1> %31, %29
  %33 = bitcast <16 x i1> %32 to i16
  %34 = icmp eq i16 %33, 0
  br i1 %34, label %bb18, label %bb40

bb40:                                             ; preds = %bb23
  %_3.i40 = ptrtoint i8* %24 to i64
  %_5.i41 = ptrtoint [0 x i8]* %haystack.0 to i64
  %35 = sub i64 %_3.i40, %_5.i41
  %36 = bitcast <16 x i1> %29 to i16
  %37 = icmp eq i16 %36, 0
  br i1 %37, label %bb46, label %bb44

bb46:                                             ; preds = %bb40
  %38 = bitcast <16 x i1> %28 to i16
  %39 = icmp eq i16 %38, 0
  br i1 %39, label %bb50, label %bb48

bb44:                                             ; preds = %bb40
  %40 = tail call i16 @llvm.ctlz.i16(i16 %36, i1 true) #21, !range !44
  %41 = xor i16 %40, 15
  %42 = zext i16 %41 to i64
  %_107 = add i64 %35, %42
  br label %bb75

bb50:                                             ; preds = %bb46
  %43 = bitcast <16 x i1> %27 to i16
  %44 = icmp eq i16 %43, 0
  br i1 %44, label %bb54, label %bb52

bb48:                                             ; preds = %bb46
  %45 = add i64 %35, -16
  %46 = tail call i16 @llvm.ctlz.i16(i16 %38, i1 true) #21, !range !44
  %47 = xor i16 %46, 15
  %48 = zext i16 %47 to i64
  %_114 = add i64 %45, %48
  br label %bb75

bb54:                                             ; preds = %bb50
  %49 = bitcast <16 x i1> %26 to i16
  %50 = tail call i16 @llvm.ctlz.i16(i16 %49, i1 false) #21, !range !44
  %_3.i48 = zext i16 %50 to i64
  %51 = add i64 %35, -33
  %_127 = sub i64 %51, %_3.i48
  br label %bb75

bb52:                                             ; preds = %bb50
  %52 = add i64 %35, -32
  %53 = tail call i16 @llvm.ctlz.i16(i16 %43, i1 true) #21, !range !44
  %54 = xor i16 %53, 15
  %55 = zext i16 %54 to i64
  %_121 = add i64 %52, %55
  br label %bb75

bb59:                                             ; preds = %bb59.preheader, %bb61
  %ptr.2 = phi i8* [ %56, %bb61 ], [ %.us-phi, %bb59.preheader ]
  %_131.not = icmp ult i8* %ptr.2, %17
  br i1 %_131.not, label %bb66, label %bb61

bb66:                                             ; preds = %bb59
  %_145 = icmp ugt i8* %ptr.2, %1
  br i1 %_145, label %bb67, label %bb75

bb61:                                             ; preds = %bb59
  %56 = getelementptr inbounds i8, i8* %ptr.2, i64 -16
  %57 = bitcast i8* %56 to <16 x i8>*
  %.0.copyload9.i50 = load <16 x i8>, <16 x i8>* %57, align 1
  %58 = icmp eq <16 x i8> %.0.copyload9.i50, %.15.vec.insert.i.i
  %59 = bitcast <16 x i1> %58 to i16
  %60 = icmp eq i16 %59, 0
  br i1 %60, label %bb59, label %bb64

bb64:                                             ; preds = %bb61
  %_3.i.i51 = ptrtoint i8* %56 to i64
  %_5.i1.i52 = ptrtoint [0 x i8]* %haystack.0 to i64
  %61 = sub i64 %_3.i.i51, %_5.i1.i52
  %62 = tail call i16 @llvm.ctlz.i16(i16 %59, i1 true) #21, !range !44
  %63 = xor i16 %62, 15
  %64 = zext i16 %63 to i64
  %_13.i53 = add i64 %61, %64
  br label %bb75

bb67:                                             ; preds = %bb66
  %65 = bitcast [0 x i8]* %haystack.0 to <16 x i8>*
  %.0.copyload9.i58 = load <16 x i8>, <16 x i8>* %65, align 1
  %66 = icmp eq <16 x i8> %.0.copyload9.i58, %.15.vec.insert.i.i
  %67 = bitcast <16 x i1> %66 to i16
  %68 = icmp eq i16 %67, 0
  br i1 %68, label %bb75, label %bb4.i61

bb4.i61:                                          ; preds = %bb67
  %69 = tail call i16 @llvm.ctlz.i16(i16 %67, i1 true) #21, !range !44
  %70 = xor i16 %69, 15
  %71 = zext i16 %70 to i64
  br label %bb75

bb75:                                             ; preds = %bb6, %bb4.i61, %bb67, %bb66, %bb44, %bb48, %bb54, %bb52, %bb64, %bb16, %bb9
  %.sroa.11.2 = phi i64 [ %9, %bb9 ], [ %_13.i, %bb16 ], [ %_13.i53, %bb64 ], [ %_127, %bb54 ], [ %_121, %bb52 ], [ %_114, %bb48 ], [ %_107, %bb44 ], [ undef, %bb66 ], [ %71, %bb4.i61 ], [ undef, %bb67 ], [ undef, %bb6 ]
  %.sroa.0.2 = phi i64 [ 1, %bb9 ], [ 1, %bb16 ], [ 1, %bb64 ], [ 1, %bb54 ], [ 1, %bb52 ], [ 1, %bb48 ], [ 1, %bb44 ], [ 0, %bb66 ], [ 1, %bb4.i61 ], [ 0, %bb67 ], [ 0, %bb6 ]
  %72 = insertvalue { i64, i64 } undef, i64 %.sroa.0.2, 0
  %73 = insertvalue { i64, i64 } %72, i64 %.sroa.11.2, 1
  ret { i64, i64 } %73
}

; memchr::memchr::x86::sse2::memrchr2
; Function Attrs: nofree nosync nounwind nonlazybind uwtable
define { i64, i64 } @_ZN6memchr6memchr3x864sse28memrchr217h69765c7d233ef91bE(i8 %n1, i8 %n2, [0 x i8]* noalias nonnull readonly align 1 %haystack.0, i64 %haystack.1) unnamed_addr #2 personality i32 (...)* @rust_eh_personality {
start:
  %.0.vec.insert.i.i = insertelement <16 x i8> undef, i8 %n1, i32 0
  %.15.vec.insert.i.i = shufflevector <16 x i8> %.0.vec.insert.i.i, <16 x i8> poison, <16 x i32> zeroinitializer
  %.0.vec.insert.i.i33 = insertelement <16 x i8> undef, i8 %n2, i32 0
  %.15.vec.insert.i.i34 = shufflevector <16 x i8> %.0.vec.insert.i.i33, <16 x i8> poison, <16 x i32> zeroinitializer
  %0 = icmp ult i64 %haystack.1, 32
  %.0.sroa.speculated.i.i.i = select i1 %0, i64 %haystack.1, i64 32
  %1 = getelementptr [0 x i8], [0 x i8]* %haystack.0, i64 0, i64 0
  %2 = getelementptr inbounds [0 x i8], [0 x i8]* %haystack.0, i64 0, i64 %haystack.1
  %_21 = icmp ult i64 %haystack.1, 16
  br i1 %_21, label %bb7, label %bb17

bb17:                                             ; preds = %start
  %3 = getelementptr inbounds i8, i8* %2, i64 -16
  %4 = bitcast i8* %3 to <16 x i8>*
  %.0.copyload22.i = load <16 x i8>, <16 x i8>* %4, align 1
  %5 = icmp eq <16 x i8> %.0.copyload22.i, %.15.vec.insert.i.i
  %6 = icmp eq <16 x i8> %.0.copyload22.i, %.15.vec.insert.i.i34
  %7 = or <16 x i1> %6, %5
  %8 = bitcast <16 x i1> %7 to i16
  %9 = icmp eq i16 %8, 0
  br i1 %9, label %bb21, label %bb20

bb7:                                              ; preds = %start, %bb8
  %ptr.0 = phi i8* [ %10, %bb8 ], [ %2, %start ]
  %_24 = icmp ugt i8* %ptr.0, %1
  br i1 %_24, label %bb8, label %bb70

bb8:                                              ; preds = %bb7
  %10 = getelementptr inbounds i8, i8* %ptr.0, i64 -1
  %_31 = load i8, i8* %10, align 1
  %_30 = icmp eq i8 %_31, %n1
  %_33 = icmp eq i8 %_31, %n2
  %_29.0 = select i1 %_30, i1 true, i1 %_33
  br i1 %_29.0, label %bb13, label %bb7

bb13:                                             ; preds = %bb8
  %_3.i = ptrtoint i8* %10 to i64
  %_5.i = ptrtoint [0 x i8]* %haystack.0 to i64
  %11 = sub i64 %_3.i, %_5.i
  br label %bb70

bb20:                                             ; preds = %bb17
  %_3.i.i = ptrtoint i8* %3 to i64
  %_5.i6.i = ptrtoint [0 x i8]* %haystack.0 to i64
  %12 = tail call i16 @llvm.ctlz.i16(i16 %8, i1 true) #21, !range !44
  %_3.i.i.i = zext i16 %12 to i64
  %13 = add i64 %_3.i.i, 15
  %14 = add i64 %_5.i6.i, %_3.i.i.i
  %_23.i = sub i64 %13, %14
  br label %bb70

bb21:                                             ; preds = %bb17
  %_51 = ptrtoint i8* %2 to i64
  %_50 = and i64 %_51, -16
  %15 = inttoptr i64 %_50 to i8*
  %_55 = icmp ugt i64 %haystack.1, 31
  %16 = getelementptr inbounds [0 x i8], [0 x i8]* %haystack.0, i64 0, i64 32
  %17 = sub nsw i64 0, %.0.sroa.speculated.i.i.i
  br i1 %_55, label %bb22, label %bb56.preheader

bb22:                                             ; preds = %bb21, %bb27
  %ptr.1 = phi i8* [ %19, %bb27 ], [ %15, %bb21 ]
  %_57.not = icmp ult i8* %ptr.1, %16
  br i1 %_57.not, label %bb56.preheader, label %bb27

bb56.preheader:                                   ; preds = %bb22, %bb21
  %.us-phi = phi i8* [ %15, %bb21 ], [ %ptr.1, %bb22 ]
  %18 = getelementptr inbounds [0 x i8], [0 x i8]* %haystack.0, i64 0, i64 16
  br label %bb56

bb27:                                             ; preds = %bb22
  %19 = getelementptr inbounds i8, i8* %ptr.1, i64 %17
  %20 = bitcast i8* %19 to <16 x i8>*
  %_69.val141 = load <16 x i8>, <16 x i8>* %20, align 16
  %21 = getelementptr inbounds i8, i8* %19, i64 16
  %22 = bitcast i8* %21 to <16 x i8>*
  %_72.val142 = load <16 x i8>, <16 x i8>* %22, align 16
  %23 = icmp eq <16 x i8> %.15.vec.insert.i.i, %_69.val141
  %24 = icmp eq <16 x i8> %.15.vec.insert.i.i, %_72.val142
  %25 = icmp eq <16 x i8> %.15.vec.insert.i.i34, %_69.val141
  %26 = icmp eq <16 x i8> %.15.vec.insert.i.i34, %_72.val142
  %27 = or <16 x i1> %23, %25
  %28 = or <16 x i1> %27, %26
  %29 = or <16 x i1> %28, %24
  %30 = bitcast <16 x i1> %29 to i16
  %31 = icmp eq i16 %30, 0
  br i1 %31, label %bb22, label %bb40

bb40:                                             ; preds = %bb27
  %_3.i41 = ptrtoint i8* %21 to i64
  %_5.i42 = ptrtoint [0 x i8]* %haystack.0 to i64
  %32 = sub i64 %_3.i41, %_5.i42
  %33 = bitcast <16 x i1> %24 to i16
  %34 = bitcast <16 x i1> %26 to i16
  %35 = icmp ne i16 %33, 0
  %_108 = icmp ne i16 %34, 0
  %_106.0 = select i1 %35, i1 true, i1 %_108
  br i1 %_106.0, label %bb48, label %bb50

bb50:                                             ; preds = %bb40
  %_3.i47 = bitcast <16 x i1> %27 to i16
  %36 = tail call i16 @llvm.ctlz.i16(i16 %_3.i47, i1 false) #21, !range !44
  %_3.i.i48 = zext i16 %36 to i64
  %37 = xor i64 %_3.i.i48, -1
  %_119 = add i64 %32, %37
  br label %bb70

bb48:                                             ; preds = %bb40
  %_3.i49144 = or <16 x i1> %26, %24
  %_3.i49 = bitcast <16 x i1> %_3.i49144 to i16
  %38 = tail call i16 @llvm.ctlz.i16(i16 %_3.i49, i1 false) #21, !range !44
  %_3.i.i51 = zext i16 %38 to i64
  %39 = add i64 %32, 15
  %_110 = sub i64 %39, %_3.i.i51
  br label %bb70

bb56:                                             ; preds = %bb56.preheader, %bb58
  %ptr.2 = phi i8* [ %40, %bb58 ], [ %.us-phi, %bb56.preheader ]
  %_124.not = icmp ult i8* %ptr.2, %18
  br i1 %_124.not, label %bb63, label %bb58

bb63:                                             ; preds = %bb56
  %_139 = icmp ugt i8* %ptr.2, %1
  br i1 %_139, label %bb64, label %bb70

bb58:                                             ; preds = %bb56
  %40 = getelementptr inbounds i8, i8* %ptr.2, i64 -16
  %41 = bitcast i8* %40 to <16 x i8>*
  %.0.copyload22.i52 = load <16 x i8>, <16 x i8>* %41, align 1
  %42 = icmp eq <16 x i8> %.0.copyload22.i52, %.15.vec.insert.i.i
  %43 = icmp eq <16 x i8> %.0.copyload22.i52, %.15.vec.insert.i.i34
  %44 = or <16 x i1> %43, %42
  %45 = bitcast <16 x i1> %44 to i16
  %46 = icmp eq i16 %45, 0
  br i1 %46, label %bb56, label %bb61

bb61:                                             ; preds = %bb58
  %_3.i.i53 = ptrtoint i8* %40 to i64
  %_5.i6.i54 = ptrtoint [0 x i8]* %haystack.0 to i64
  %47 = tail call i16 @llvm.ctlz.i16(i16 %45, i1 true) #21, !range !44
  %_3.i.i.i55 = zext i16 %47 to i64
  %48 = add i64 %_3.i.i53, 15
  %49 = add i64 %_5.i6.i54, %_3.i.i.i55
  %_23.i56 = sub i64 %48, %49
  br label %bb70

bb64:                                             ; preds = %bb63
  %50 = bitcast [0 x i8]* %haystack.0 to <16 x i8>*
  %.0.copyload22.i61 = load <16 x i8>, <16 x i8>* %50, align 1
  %51 = icmp eq <16 x i8> %.0.copyload22.i61, %.15.vec.insert.i.i
  %52 = icmp eq <16 x i8> %.0.copyload22.i61, %.15.vec.insert.i.i34
  %53 = or <16 x i1> %52, %51
  %54 = bitcast <16 x i1> %53 to i16
  %55 = icmp eq i16 %54, 0
  br i1 %55, label %bb70, label %bb6.i66

bb6.i66:                                          ; preds = %bb64
  %56 = tail call i16 @llvm.ctlz.i16(i16 %54, i1 true) #21, !range !44
  %57 = xor i16 %56, 15
  %_23.i65 = zext i16 %57 to i64
  br label %bb70

bb70:                                             ; preds = %bb7, %bb6.i66, %bb64, %bb63, %bb48, %bb50, %bb61, %bb20, %bb13
  %.sroa.9.2 = phi i64 [ %11, %bb13 ], [ %_23.i, %bb20 ], [ %_23.i56, %bb61 ], [ %_110, %bb48 ], [ %_119, %bb50 ], [ undef, %bb63 ], [ %_23.i65, %bb6.i66 ], [ undef, %bb64 ], [ undef, %bb7 ]
  %.sroa.0.2 = phi i64 [ 1, %bb13 ], [ 1, %bb20 ], [ 1, %bb61 ], [ 1, %bb48 ], [ 1, %bb50 ], [ 0, %bb63 ], [ 1, %bb6.i66 ], [ 0, %bb64 ], [ 0, %bb7 ]
  %58 = insertvalue { i64, i64 } undef, i64 %.sroa.0.2, 0
  %59 = insertvalue { i64, i64 } %58, i64 %.sroa.9.2, 1
  ret { i64, i64 } %59
}

; memchr::memchr::x86::sse2::memrchr3
; Function Attrs: nofree nosync nounwind nonlazybind uwtable
define { i64, i64 } @_ZN6memchr6memchr3x864sse28memrchr317h81e93cc04a7b04b5E(i8 %n1, i8 %n2, i8 %n3, [0 x i8]* noalias nonnull readonly align 1 %haystack.0, i64 %haystack.1) unnamed_addr #2 personality i32 (...)* @rust_eh_personality {
start:
  %.0.vec.insert.i.i = insertelement <16 x i8> undef, i8 %n1, i32 0
  %.15.vec.insert.i.i = shufflevector <16 x i8> %.0.vec.insert.i.i, <16 x i8> poison, <16 x i32> zeroinitializer
  %.0.vec.insert.i.i42 = insertelement <16 x i8> undef, i8 %n2, i32 0
  %.15.vec.insert.i.i43 = shufflevector <16 x i8> %.0.vec.insert.i.i42, <16 x i8> poison, <16 x i32> zeroinitializer
  %.0.vec.insert.i.i44 = insertelement <16 x i8> undef, i8 %n3, i32 0
  %.15.vec.insert.i.i45 = shufflevector <16 x i8> %.0.vec.insert.i.i44, <16 x i8> poison, <16 x i32> zeroinitializer
  %0 = icmp ult i64 %haystack.1, 32
  %.0.sroa.speculated.i.i.i = select i1 %0, i64 %haystack.1, i64 32
  %1 = getelementptr [0 x i8], [0 x i8]* %haystack.0, i64 0, i64 0
  %2 = getelementptr inbounds [0 x i8], [0 x i8]* %haystack.0, i64 0, i64 %haystack.1
  %_25 = icmp ult i64 %haystack.1, 16
  br i1 %_25, label %bb8, label %bb21

bb21:                                             ; preds = %start
  %3 = getelementptr inbounds i8, i8* %2, i64 -16
  %4 = bitcast i8* %3 to <16 x i8>*
  %.0.copyload34.i = load <16 x i8>, <16 x i8>* %4, align 1
  %5 = icmp eq <16 x i8> %.0.copyload34.i, %.15.vec.insert.i.i
  %6 = icmp eq <16 x i8> %.0.copyload34.i, %.15.vec.insert.i.i43
  %7 = icmp eq <16 x i8> %.0.copyload34.i, %.15.vec.insert.i.i45
  %8 = or <16 x i1> %5, %7
  %9 = or <16 x i1> %8, %6
  %10 = bitcast <16 x i1> %9 to i16
  %11 = icmp eq i16 %10, 0
  br i1 %11, label %bb25, label %bb24

bb8:                                              ; preds = %start, %bb9
  %ptr.0 = phi i8* [ %12, %bb9 ], [ %2, %start ]
  %_28 = icmp ugt i8* %ptr.0, %1
  br i1 %_28, label %bb9, label %bb83

bb9:                                              ; preds = %bb8
  %12 = getelementptr inbounds i8, i8* %ptr.0, i64 -1
  %_36 = load i8, i8* %12, align 1
  %_35 = icmp eq i8 %_36, %n1
  %_38 = icmp eq i8 %_36, %n2
  %_34.0 = select i1 %_35, i1 true, i1 %_38
  %_41 = icmp eq i8 %_36, %n3
  %or.cond193 = select i1 %_34.0, i1 true, i1 %_41
  br i1 %or.cond193, label %bb17, label %bb8

bb17:                                             ; preds = %bb9
  %_3.i = ptrtoint i8* %12 to i64
  %_5.i = ptrtoint [0 x i8]* %haystack.0 to i64
  %13 = sub i64 %_3.i, %_5.i
  br label %bb83

bb24:                                             ; preds = %bb21
  %_3.i.i = ptrtoint i8* %3 to i64
  %_5.i11.i = ptrtoint [0 x i8]* %haystack.0 to i64
  %14 = tail call i16 @llvm.ctlz.i16(i16 %10, i1 true) #21, !range !44
  %_3.i.i.i = zext i16 %14 to i64
  %15 = add i64 %_3.i.i, 15
  %16 = add i64 %_5.i11.i, %_3.i.i.i
  %_32.i = sub i64 %15, %16
  br label %bb83

bb25:                                             ; preds = %bb21
  %_60 = ptrtoint i8* %2 to i64
  %_59 = and i64 %_60, -16
  %17 = inttoptr i64 %_59 to i8*
  %_64 = icmp ugt i64 %haystack.1, 31
  %18 = getelementptr inbounds [0 x i8], [0 x i8]* %haystack.0, i64 0, i64 32
  %19 = sub nsw i64 0, %.0.sroa.speculated.i.i.i
  br i1 %_64, label %bb26, label %bb69.preheader

bb26:                                             ; preds = %bb25, %bb31
  %ptr.1 = phi i8* [ %21, %bb31 ], [ %17, %bb25 ]
  %_66.not = icmp ult i8* %ptr.1, %18
  br i1 %_66.not, label %bb69.preheader, label %bb31

bb69.preheader:                                   ; preds = %bb26, %bb25
  %.us-phi = phi i8* [ %17, %bb25 ], [ %ptr.1, %bb26 ]
  %20 = getelementptr inbounds [0 x i8], [0 x i8]* %haystack.0, i64 0, i64 16
  br label %bb69

bb31:                                             ; preds = %bb26
  %21 = getelementptr inbounds i8, i8* %ptr.1, i64 %19
  %22 = bitcast i8* %21 to <16 x i8>*
  %_78.val195 = load <16 x i8>, <16 x i8>* %22, align 16
  %23 = getelementptr inbounds i8, i8* %21, i64 16
  %24 = bitcast i8* %23 to <16 x i8>*
  %_81.val196 = load <16 x i8>, <16 x i8>* %24, align 16
  %25 = icmp eq <16 x i8> %.15.vec.insert.i.i, %_78.val195
  %26 = icmp eq <16 x i8> %.15.vec.insert.i.i, %_81.val196
  %27 = icmp eq <16 x i8> %.15.vec.insert.i.i43, %_78.val195
  %28 = icmp eq <16 x i8> %.15.vec.insert.i.i43, %_81.val196
  %29 = icmp eq <16 x i8> %.15.vec.insert.i.i45, %_78.val195
  %30 = icmp eq <16 x i8> %.15.vec.insert.i.i45, %_81.val196
  %31 = or <16 x i1> %27, %29
  %32 = or <16 x i1> %31, %25
  %33 = or <16 x i1> %32, %30
  %34 = or <16 x i1> %33, %28
  %35 = or <16 x i1> %34, %26
  %36 = bitcast <16 x i1> %35 to i16
  %37 = icmp eq i16 %36, 0
  br i1 %37, label %bb26, label %bb48

bb48:                                             ; preds = %bb31
  %_3.i57 = ptrtoint i8* %23 to i64
  %_5.i58 = ptrtoint [0 x i8]* %haystack.0 to i64
  %38 = sub i64 %_3.i57, %_5.i58
  %39 = bitcast <16 x i1> %26 to i16
  %40 = bitcast <16 x i1> %28 to i16
  %41 = bitcast <16 x i1> %30 to i16
  %42 = icmp ne i16 %39, 0
  %_132 = icmp ne i16 %40, 0
  %_130.0 = select i1 %42, i1 true, i1 %_132
  %_134 = icmp ne i16 %41, 0
  %or.cond = select i1 %_130.0, i1 true, i1 %_134
  br i1 %or.cond, label %bb60, label %bb62

bb62:                                             ; preds = %bb48
  %_5.i65197 = or <16 x i1> %25, %29
  %_4.i198 = or <16 x i1> %_5.i65197, %27
  %_4.i = bitcast <16 x i1> %_4.i198 to i16
  %43 = tail call i16 @llvm.ctlz.i16(i16 %_4.i, i1 false) #21, !range !44
  %_3.i.i66 = zext i16 %43 to i64
  %44 = xor i64 %_3.i.i66, -1
  %_148 = add i64 %38, %44
  br label %bb83

bb60:                                             ; preds = %bb48
  %_5.i67199 = or <16 x i1> %26, %30
  %_4.i68200 = or <16 x i1> %_5.i67199, %28
  %_4.i68 = bitcast <16 x i1> %_4.i68200 to i16
  %45 = tail call i16 @llvm.ctlz.i16(i16 %_4.i68, i1 false) #21, !range !44
  %_3.i.i70 = zext i16 %45 to i64
  %46 = add i64 %38, 15
  %_136 = sub i64 %46, %_3.i.i70
  br label %bb83

bb69:                                             ; preds = %bb69.preheader, %bb71
  %ptr.2 = phi i8* [ %47, %bb71 ], [ %.us-phi, %bb69.preheader ]
  %_154.not = icmp ult i8* %ptr.2, %20
  br i1 %_154.not, label %bb76, label %bb71

bb76:                                             ; preds = %bb69
  %_170 = icmp ugt i8* %ptr.2, %1
  br i1 %_170, label %bb77, label %bb83

bb71:                                             ; preds = %bb69
  %47 = getelementptr inbounds i8, i8* %ptr.2, i64 -16
  %48 = bitcast i8* %47 to <16 x i8>*
  %.0.copyload34.i71 = load <16 x i8>, <16 x i8>* %48, align 1
  %49 = icmp eq <16 x i8> %.0.copyload34.i71, %.15.vec.insert.i.i
  %50 = icmp eq <16 x i8> %.0.copyload34.i71, %.15.vec.insert.i.i43
  %51 = icmp eq <16 x i8> %.0.copyload34.i71, %.15.vec.insert.i.i45
  %52 = or <16 x i1> %49, %51
  %53 = or <16 x i1> %52, %50
  %54 = bitcast <16 x i1> %53 to i16
  %55 = icmp eq i16 %54, 0
  br i1 %55, label %bb69, label %bb74

bb74:                                             ; preds = %bb71
  %_3.i.i72 = ptrtoint i8* %47 to i64
  %_5.i11.i73 = ptrtoint [0 x i8]* %haystack.0 to i64
  %56 = tail call i16 @llvm.ctlz.i16(i16 %54, i1 true) #21, !range !44
  %_3.i.i.i74 = zext i16 %56 to i64
  %57 = add i64 %_3.i.i72, 15
  %58 = add i64 %_5.i11.i73, %_3.i.i.i74
  %_32.i75 = sub i64 %57, %58
  br label %bb83

bb77:                                             ; preds = %bb76
  %59 = bitcast [0 x i8]* %haystack.0 to <16 x i8>*
  %.0.copyload34.i80 = load <16 x i8>, <16 x i8>* %59, align 1
  %60 = icmp eq <16 x i8> %.0.copyload34.i80, %.15.vec.insert.i.i
  %61 = icmp eq <16 x i8> %.0.copyload34.i80, %.15.vec.insert.i.i43
  %62 = icmp eq <16 x i8> %.0.copyload34.i80, %.15.vec.insert.i.i45
  %63 = or <16 x i1> %60, %62
  %64 = or <16 x i1> %63, %61
  %65 = bitcast <16 x i1> %64 to i16
  %66 = icmp eq i16 %65, 0
  br i1 %66, label %bb83, label %bb8.i85

bb8.i85:                                          ; preds = %bb77
  %67 = tail call i16 @llvm.ctlz.i16(i16 %65, i1 true) #21, !range !44
  %68 = xor i16 %67, 15
  %_32.i84 = zext i16 %68 to i64
  br label %bb83

bb83:                                             ; preds = %bb8, %bb8.i85, %bb77, %bb76, %bb60, %bb62, %bb74, %bb24, %bb17
  %.sroa.9.2 = phi i64 [ %13, %bb17 ], [ %_32.i, %bb24 ], [ %_32.i75, %bb74 ], [ %_136, %bb60 ], [ %_148, %bb62 ], [ undef, %bb76 ], [ %_32.i84, %bb8.i85 ], [ undef, %bb77 ], [ undef, %bb8 ]
  %.sroa.0.2 = phi i64 [ 1, %bb17 ], [ 1, %bb24 ], [ 1, %bb74 ], [ 1, %bb60 ], [ 1, %bb62 ], [ 0, %bb76 ], [ 1, %bb8.i85 ], [ 0, %bb77 ], [ 0, %bb8 ]
  %69 = insertvalue { i64, i64 } undef, i64 %.sroa.0.2, 0
  %70 = insertvalue { i64, i64 } %69, i64 %.sroa.9.2, 1
  ret { i64, i64 } %70
}

; memchr::memmem::genericsimd::matched
; Function Attrs: cold mustprogress nofree noinline norecurse nosync nounwind nonlazybind readnone uwtable willreturn
define internal fastcc i64 @_ZN6memchr6memmem11genericsimd7matched17hf7507d2589d36674E(i8* %start_ptr, i8* %ptr, i64 %chunki) unnamed_addr #3 {
start:
  %_3.i = ptrtoint i8* %ptr to i64
  %_5.i = ptrtoint i8* %start_ptr to i64
  %0 = sub i64 %_3.i, %_5.i
  %1 = add i64 %0, %chunki
  ret i64 %1
}

; memchr::memmem::prefilter::genericsimd::matched
; Function Attrs: cold mustprogress nofree noinline nosync nounwind nonlazybind uwtable willreturn
define internal fastcc i64 @_ZN6memchr6memmem9prefilter11genericsimd7matched17h7145dd3b02952477E({ i32, i32 }* noalias nocapture align 4 dereferenceable(8) %prestate, i8* %start_ptr, i8* %ptr, i64 %chunki) unnamed_addr #4 {
start:
  %_3.i = ptrtoint i8* %ptr to i64
  %_5.i = ptrtoint i8* %start_ptr to i64
  %0 = sub i64 %_3.i, %_5.i
  %found = add i64 %0, %chunki
  %1 = getelementptr inbounds { i32, i32 }, { i32, i32 }* %prestate, i64 0, i32 0
  %_4.i = load i32, i32* %1, align 4, !alias.scope !46
  %2 = tail call i32 @llvm.uadd.sat.i32(i32 %_4.i, i32 1) #21
  store i32 %2, i32* %1, align 4, !alias.scope !46
  %_5.i1 = icmp ugt i64 %found, 4294967295
  %3 = getelementptr inbounds { i32, i32 }, { i32, i32 }* %prestate, i64 0, i32 1
  %_9.i = load i32, i32* %3, align 4, !alias.scope !46
  %_10.i = trunc i64 %found to i32
  %4 = tail call i32 @llvm.uadd.sat.i32(i32 %_9.i, i32 %_10.i) #21
  %.sink.i = select i1 %_5.i1, i32 -1, i32 %4
  store i32 %.sink.i, i32* %3, align 4, !alias.scope !46
  ret i64 %found
}

; memchr::memmem::prefilter::x86::sse::find
; Function Attrs: nonlazybind uwtable
define internal { i64, i64 } @_ZN6memchr6memmem9prefilter3x863sse4find17ha2a5ffc317089b73E({ i32, i32 }* noalias nocapture align 4 dereferenceable(8) %prestate, %"memmem::NeedleInfo"* noalias nocapture readonly align 4 dereferenceable(12) %ninfo, [0 x i8]* noalias nonnull readonly align 1 %haystack.0, i64 %haystack.1, [0 x i8]* noalias nocapture nonnull readonly align 1 %needle.0, i64 %needle.1) unnamed_addr #5 personality i32 (...)* @rust_eh_personality {
start:
  tail call void @llvm.experimental.noalias.scope.decl(metadata !49)
  tail call void @llvm.experimental.noalias.scope.decl(metadata !52)
  tail call void @llvm.experimental.noalias.scope.decl(metadata !54)
  tail call void @llvm.experimental.noalias.scope.decl(metadata !56)
  %_7.i = icmp ult i64 %needle.1, 2
  br i1 %_7.i, label %bb1.i, label %bb2.i

bb2.i:                                            ; preds = %start
  %_13.idx.i = getelementptr inbounds %"memmem::NeedleInfo", %"memmem::NeedleInfo"* %ninfo, i64 0, i32 1, i32 0
  %_13.idx.val.i = load i8, i8* %_13.idx.i, align 4, !alias.scope !52, !noalias !58
  %_13.idx1.i = getelementptr %"memmem::NeedleInfo", %"memmem::NeedleInfo"* %ninfo, i64 0, i32 1, i32 1
  %_13.idx1.val.i = load i8, i8* %_13.idx1.i, align 1, !alias.scope !52, !noalias !58
  %_2.not.i.i.i = icmp ugt i8 %_13.idx.val.i, %_13.idx1.val.i
  %_3._4.i.i.i = select i1 %_2.not.i.i.i, i8 %_13.idx.val.i, i8 %_13.idx1.val.i
  %_4._3.i.i.i = select i1 %_2.not.i.i.i, i8 %_13.idx1.val.i, i8 %_13.idx.val.i
  %_6.i.i = zext i8 %_4._3.i.i.i to i64
  %_8.i.i = zext i8 %_3._4.i.i.i to i64
  %min_haystack_len.i = add nuw nsw i64 %_8.i.i, 16
  %_17.i = icmp ugt i64 %min_haystack_len.i, %haystack.1
  br i1 %_17.i, label %bb5.i, label %bb7.i

bb1.i:                                            ; preds = %start
; call core::panicking::panic
  tail call void @_ZN4core9panicking5panic17he84354dce55c9beeE([0 x i8]* noalias nonnull readonly align 1 bitcast (<{ [31 x i8] }>* @alloc1054 to [0 x i8]*), i64 31, %"core::panic::location::Location"* noalias readonly align 8 dereferenceable(24) bitcast (<{ i8*, [16 x i8] }>* @alloc1056 to %"core::panic::location::Location"*)) #22, !noalias !59
  unreachable

bb7.i:                                            ; preds = %bb2.i
  %0 = getelementptr [0 x i8], [0 x i8]* %haystack.0, i64 0, i64 0
  %1 = getelementptr inbounds [0 x i8], [0 x i8]* %haystack.0, i64 0, i64 %haystack.1
  %2 = sub nuw nsw i64 -16, %_8.i.i
  %3 = getelementptr inbounds i8, i8* %1, i64 %2
  %_40.i = icmp ult i64 %_6.i.i, %needle.1
  br i1 %_40.i, label %bb11.i, label %panic.i, !prof !60

bb5.i:                                            ; preds = %bb2.i
  tail call void @llvm.experimental.noalias.scope.decl(metadata !61)
  tail call void @llvm.experimental.noalias.scope.decl(metadata !64)
  %_12.i.i = icmp ult i64 %_6.i.i, %needle.1
  br i1 %_12.i.i, label %bb2.i.i, label %panic.i.i, !prof !60

bb2.i.i:                                          ; preds = %bb5.i
  %4 = getelementptr inbounds [0 x i8], [0 x i8]* %needle.0, i64 0, i64 %_6.i.i
  %_9.i.i = load i8, i8* %4, align 1, !alias.scope !66, !noalias !67
  %5 = icmp eq i64 %haystack.1, 0
  br i1 %5, label %_ZN6memchr6memmem9prefilter11genericsimd4find17h9f1e59497e0be3dcE.exit, label %bb3.i.i.i

bb3.i.i.i:                                        ; preds = %bb2.i.i
  %.0.vec.insert.i.i.i.i.i.i.i.i = insertelement <16 x i8> undef, i8 %_9.i.i, i32 0
  %.15.vec.insert.i.i.i.i.i.i.i.i = shufflevector <16 x i8> %.0.vec.insert.i.i.i.i.i.i.i.i, <16 x i8> poison, <16 x i32> zeroinitializer
  %6 = icmp ult i64 %haystack.1, 64
  %.0.sroa.speculated.i.i.i.i.i.i.i.i.i = select i1 %6, i64 %haystack.1, i64 64
  %7 = getelementptr inbounds [0 x i8], [0 x i8]* %haystack.0, i64 0, i64 %haystack.1
  %_17.i.i.i.i.i.i = icmp ult i64 %haystack.1, 16
  br i1 %_17.i.i.i.i.i.i, label %bb7.preheader.i.i.i.i.i.i, label %bb13.i.i.i.i.i.i

bb7.preheader.i.i.i.i.i.i:                        ; preds = %bb3.i.i.i
  %8 = getelementptr [0 x i8], [0 x i8]* %haystack.0, i64 0, i64 0
  br label %bb7.i.i.i.i.i.i

bb13.i.i.i.i.i.i:                                 ; preds = %bb3.i.i.i
  %9 = bitcast [0 x i8]* %haystack.0 to <16 x i8>*
  %.0.copyload9.i.i.i.i.i.i.i = load <16 x i8>, <16 x i8>* %9, align 1, !alias.scope !69, !noalias !78
  %10 = icmp eq <16 x i8> %.0.copyload9.i.i.i.i.i.i.i, %.15.vec.insert.i.i.i.i.i.i.i.i
  %11 = bitcast <16 x i1> %10 to i16
  %12 = icmp eq i16 %11, 0
  br i1 %12, label %bb16.i.i.i.i.i.i, label %bb15.i.i.i.i.i.i

bb7.i.i.i.i.i.i:                                  ; preds = %bb10.i.i.i.i.i.i, %bb7.preheader.i.i.i.i.i.i
  %ptr.0156.i.i.i.i.i.i = phi i8* [ %13, %bb10.i.i.i.i.i.i ], [ %8, %bb7.preheader.i.i.i.i.i.i ]
  %_24.i.i.i.i.i.i = load i8, i8* %ptr.0156.i.i.i.i.i.i, align 1, !alias.scope !69, !noalias !78
  %_23.i.i.i.i.i.i = icmp eq i8 %_24.i.i.i.i.i.i, %_9.i.i
  br i1 %_23.i.i.i.i.i.i, label %bb8.i.i.i.i.i.i, label %bb10.i.i.i.i.i.i

bb10.i.i.i.i.i.i:                                 ; preds = %bb7.i.i.i.i.i.i
  %13 = getelementptr inbounds i8, i8* %ptr.0156.i.i.i.i.i.i, i64 1
  %_20.i.i.i.i.i.i = icmp ult i8* %13, %7
  br i1 %_20.i.i.i.i.i.i, label %bb7.i.i.i.i.i.i, label %_ZN6memchr6memmem9prefilter11genericsimd4find17h9f1e59497e0be3dcE.exit

bb8.i.i.i.i.i.i:                                  ; preds = %bb7.i.i.i.i.i.i
  %_3.i.i.i.i.i.i.i = ptrtoint i8* %ptr.0156.i.i.i.i.i.i to i64
  %_5.i.i.i.i.i.i.i = ptrtoint [0 x i8]* %haystack.0 to i64
  %14 = sub i64 %_3.i.i.i.i.i.i.i, %_5.i.i.i.i.i.i.i
  br label %_ZN6memchr6memchr6memchr17hb5cbb5940758b1ddE.exit.thread.i.i

bb15.i.i.i.i.i.i:                                 ; preds = %bb13.i.i.i.i.i.i
  %15 = tail call i16 @llvm.cttz.i16(i16 %11, i1 true) #21, !range !44
  %16 = zext i16 %15 to i64
  br label %_ZN6memchr6memchr6memchr17hb5cbb5940758b1ddE.exit.thread.i.i

bb16.i.i.i.i.i.i:                                 ; preds = %bb13.i.i.i.i.i.i
  %_43.i.i.i.i.i.i = ptrtoint [0 x i8]* %haystack.0 to i64
  %_42.i.i.i.i.i.i = and i64 %_43.i.i.i.i.i.i, 15
  %_41.i.i.i.i.i.i = sub nuw nsw i64 16, %_42.i.i.i.i.i.i
  %17 = getelementptr inbounds [0 x i8], [0 x i8]* %haystack.0, i64 0, i64 %_41.i.i.i.i.i.i
  %_46.i.i.i.i.i.i = icmp ugt i64 %haystack.1, 63
  %18 = getelementptr inbounds i8, i8* %7, i64 -64
  %_48144.i.i.i.i.i.i = icmp ule i8* %17, %18
  %or.cond145.i.i.i.i.i.i = select i1 %_46.i.i.i.i.i.i, i1 %_48144.i.i.i.i.i.i, i1 false
  br i1 %or.cond145.i.i.i.i.i.i, label %bb23.i.i.i.i.i.i, label %bb58.preheader.i.i.i.i.i.i

bb58.preheader.i.i.i.i.i.i:                       ; preds = %bb55.i.i.i.i.i.i, %bb16.i.i.i.i.i.i
  %ptr.1.lcssa.i.i.i.i.i.i = phi i8* [ %17, %bb16.i.i.i.i.i.i ], [ %36, %bb55.i.i.i.i.i.i ]
  %19 = getelementptr inbounds i8, i8* %7, i64 -16
  %_129.not152.i.i.i.i.i.i = icmp ugt i8* %ptr.1.lcssa.i.i.i.i.i.i, %19
  br i1 %_129.not152.i.i.i.i.i.i, label %bb65.i.i.i.i.i.i, label %bb60.i.i.i.i.i.i

bb23.i.i.i.i.i.i:                                 ; preds = %bb16.i.i.i.i.i.i, %bb55.i.i.i.i.i.i
  %ptr.1146.i.i.i.i.i.i = phi i8* [ %36, %bb55.i.i.i.i.i.i ], [ %17, %bb16.i.i.i.i.i.i ]
  %20 = bitcast i8* %ptr.1146.i.i.i.i.i.i to <16 x i8>*
  %_57.val133.i.i.i.i.i.i = load <16 x i8>, <16 x i8>* %20, align 16, !alias.scope !69, !noalias !78
  %21 = getelementptr inbounds i8, i8* %ptr.1146.i.i.i.i.i.i, i64 16
  %22 = bitcast i8* %21 to <16 x i8>*
  %_60.val134.i.i.i.i.i.i = load <16 x i8>, <16 x i8>* %22, align 16, !alias.scope !69, !noalias !78
  %23 = getelementptr inbounds i8, i8* %ptr.1146.i.i.i.i.i.i, i64 32
  %24 = bitcast i8* %23 to <16 x i8>*
  %_64.val135.i.i.i.i.i.i = load <16 x i8>, <16 x i8>* %24, align 16, !alias.scope !69, !noalias !78
  %25 = getelementptr inbounds i8, i8* %ptr.1146.i.i.i.i.i.i, i64 48
  %26 = bitcast i8* %25 to <16 x i8>*
  %_69.val136.i.i.i.i.i.i = load <16 x i8>, <16 x i8>* %26, align 16, !alias.scope !69, !noalias !78
  %27 = icmp eq <16 x i8> %.15.vec.insert.i.i.i.i.i.i.i.i, %_57.val133.i.i.i.i.i.i
  %28 = icmp eq <16 x i8> %.15.vec.insert.i.i.i.i.i.i.i.i, %_60.val134.i.i.i.i.i.i
  %29 = icmp eq <16 x i8> %.15.vec.insert.i.i.i.i.i.i.i.i, %_64.val135.i.i.i.i.i.i
  %30 = icmp eq <16 x i8> %.15.vec.insert.i.i.i.i.i.i.i.i, %_69.val136.i.i.i.i.i.i
  %31 = or <16 x i1> %28, %27
  %32 = or <16 x i1> %31, %29
  %33 = or <16 x i1> %32, %30
  %34 = bitcast <16 x i1> %33 to i16
  %35 = icmp eq i16 %34, 0
  br i1 %35, label %bb55.i.i.i.i.i.i, label %bb39.i.i.i.i.i.i

bb55.i.i.i.i.i.i:                                 ; preds = %bb23.i.i.i.i.i.i
  %36 = getelementptr inbounds i8, i8* %ptr.1146.i.i.i.i.i.i, i64 %.0.sroa.speculated.i.i.i.i.i.i.i.i.i
  %_48.not.i.i.i.i.i.i = icmp ugt i8* %36, %18
  br i1 %_48.not.i.i.i.i.i.i, label %bb58.preheader.i.i.i.i.i.i, label %bb23.i.i.i.i.i.i

bb39.i.i.i.i.i.i:                                 ; preds = %bb23.i.i.i.i.i.i
  %_3.i40.i.i.i.i.i.i = ptrtoint i8* %ptr.1146.i.i.i.i.i.i to i64
  %37 = sub i64 %_3.i40.i.i.i.i.i.i, %_43.i.i.i.i.i.i
  %38 = bitcast <16 x i1> %27 to i16
  %39 = icmp eq i16 %38, 0
  br i1 %39, label %bb44.i.i.i.i.i.i, label %bb42.i.i.i.i.i.i

bb44.i.i.i.i.i.i:                                 ; preds = %bb39.i.i.i.i.i.i
  %40 = bitcast <16 x i1> %28 to i16
  %41 = icmp eq i16 %40, 0
  br i1 %41, label %bb48.i.i.i.i.i.i, label %bb46.i.i.i.i.i.i

bb42.i.i.i.i.i.i:                                 ; preds = %bb39.i.i.i.i.i.i
  %42 = tail call i16 @llvm.cttz.i16(i16 %38, i1 true) #21, !range !44
  %43 = zext i16 %42 to i64
  %_102.i.i.i.i.i.i = add i64 %37, %43
  br label %_ZN6memchr6memchr6memchr17hb5cbb5940758b1ddE.exit.thread.i.i

bb48.i.i.i.i.i.i:                                 ; preds = %bb44.i.i.i.i.i.i
  %44 = bitcast <16 x i1> %29 to i16
  %45 = icmp eq i16 %44, 0
  br i1 %45, label %bb52.i.i.i.i.i.i, label %bb50.i.i.i.i.i.i

bb46.i.i.i.i.i.i:                                 ; preds = %bb44.i.i.i.i.i.i
  %46 = add i64 %37, 16
  %47 = tail call i16 @llvm.cttz.i16(i16 %40, i1 true) #21, !range !44
  %48 = zext i16 %47 to i64
  %_109.i.i.i.i.i.i = add i64 %46, %48
  br label %_ZN6memchr6memchr6memchr17hb5cbb5940758b1ddE.exit.thread.i.i

bb52.i.i.i.i.i.i:                                 ; preds = %bb48.i.i.i.i.i.i
  %49 = add i64 %37, 48
  %50 = bitcast <16 x i1> %30 to i16
  %51 = zext i16 %50 to i32
  %52 = tail call i32 @llvm.cttz.i32(i32 %51, i1 false) #21, !range !45
  %53 = zext i32 %52 to i64
  %_122.i.i.i.i.i.i = add i64 %49, %53
  br label %_ZN6memchr6memchr6memchr17hb5cbb5940758b1ddE.exit.thread.i.i

bb50.i.i.i.i.i.i:                                 ; preds = %bb48.i.i.i.i.i.i
  %54 = add i64 %37, 32
  %55 = tail call i16 @llvm.cttz.i16(i16 %44, i1 true) #21, !range !44
  %56 = zext i16 %55 to i64
  %_116.i.i.i.i.i.i = add i64 %54, %56
  br label %_ZN6memchr6memchr6memchr17hb5cbb5940758b1ddE.exit.thread.i.i

bb65.i.i.i.i.i.i:                                 ; preds = %bb63.i.i.i.i.i.i, %bb58.preheader.i.i.i.i.i.i
  %ptr.2.lcssa.i.i.i.i.i.i = phi i8* [ %ptr.1.lcssa.i.i.i.i.i.i, %bb58.preheader.i.i.i.i.i.i ], [ %64, %bb63.i.i.i.i.i.i ]
  %_143.i.i.i.i.i.i = icmp ult i8* %ptr.2.lcssa.i.i.i.i.i.i, %7
  br i1 %_143.i.i.i.i.i.i, label %bb66.i.i.i.i.i.i, label %_ZN6memchr6memmem9prefilter11genericsimd4find17h9f1e59497e0be3dcE.exit

bb60.i.i.i.i.i.i:                                 ; preds = %bb58.preheader.i.i.i.i.i.i, %bb63.i.i.i.i.i.i
  %ptr.2153.i.i.i.i.i.i = phi i8* [ %64, %bb63.i.i.i.i.i.i ], [ %ptr.1.lcssa.i.i.i.i.i.i, %bb58.preheader.i.i.i.i.i.i ]
  %57 = bitcast i8* %ptr.2153.i.i.i.i.i.i to <16 x i8>*
  %.0.copyload9.i46.i.i.i.i.i.i = load <16 x i8>, <16 x i8>* %57, align 1, !alias.scope !69, !noalias !78
  %58 = icmp eq <16 x i8> %.0.copyload9.i46.i.i.i.i.i.i, %.15.vec.insert.i.i.i.i.i.i.i.i
  %59 = bitcast <16 x i1> %58 to i16
  %60 = icmp eq i16 %59, 0
  br i1 %60, label %bb63.i.i.i.i.i.i, label %bb62.i.i.i.i.i.i

bb62.i.i.i.i.i.i:                                 ; preds = %bb60.i.i.i.i.i.i
  %_3.i.i47.i.i.i.i.i.i = ptrtoint i8* %ptr.2153.i.i.i.i.i.i to i64
  %61 = sub i64 %_3.i.i47.i.i.i.i.i.i, %_43.i.i.i.i.i.i
  %62 = tail call i16 @llvm.cttz.i16(i16 %59, i1 true) #21, !range !44
  %63 = zext i16 %62 to i64
  %_13.i.i.i.i.i.i.i = add i64 %61, %63
  br label %_ZN6memchr6memchr6memchr17hb5cbb5940758b1ddE.exit.thread.i.i

bb63.i.i.i.i.i.i:                                 ; preds = %bb60.i.i.i.i.i.i
  %64 = getelementptr inbounds i8, i8* %ptr.2153.i.i.i.i.i.i, i64 16
  %_129.not.i.i.i.i.i.i = icmp ugt i8* %64, %19
  br i1 %_129.not.i.i.i.i.i.i, label %bb65.i.i.i.i.i.i, label %bb60.i.i.i.i.i.i

bb66.i.i.i.i.i.i:                                 ; preds = %bb65.i.i.i.i.i.i
  %_3.i53.i.i.i.i.i.i = ptrtoint i8* %7 to i64
  %_5.i54.i.i.i.i.i.i = ptrtoint i8* %ptr.2.lcssa.i.i.i.i.i.i to i64
  %.neg.neg.i.i.i.i.i.i = add i64 %_3.i53.i.i.i.i.i.i, -16
  %65 = sub i64 %.neg.neg.i.i.i.i.i.i, %_5.i54.i.i.i.i.i.i
  %66 = getelementptr inbounds i8, i8* %ptr.2.lcssa.i.i.i.i.i.i, i64 %65
  %67 = bitcast i8* %66 to <16 x i8>*
  %.0.copyload9.i55.i.i.i.i.i.i = load <16 x i8>, <16 x i8>* %67, align 1, !alias.scope !69, !noalias !78
  %68 = icmp eq <16 x i8> %.0.copyload9.i55.i.i.i.i.i.i, %.15.vec.insert.i.i.i.i.i.i.i.i
  %69 = bitcast <16 x i1> %68 to i16
  %70 = icmp eq i16 %69, 0
  br i1 %70, label %_ZN6memchr6memmem9prefilter11genericsimd4find17h9f1e59497e0be3dcE.exit, label %bb4.i59.i.i.i.i.i.i

bb4.i59.i.i.i.i.i.i:                              ; preds = %bb66.i.i.i.i.i.i
  %_3.i.i56.i.i.i.i.i.i = ptrtoint i8* %66 to i64
  %71 = sub i64 %_3.i.i56.i.i.i.i.i.i, %_43.i.i.i.i.i.i
  %72 = tail call i16 @llvm.cttz.i16(i16 %69, i1 true) #21, !range !44
  %73 = zext i16 %72 to i64
  %_13.i58.i.i.i.i.i.i = add i64 %71, %73
  br label %_ZN6memchr6memchr6memchr17hb5cbb5940758b1ddE.exit.thread.i.i

_ZN6memchr6memchr6memchr17hb5cbb5940758b1ddE.exit.thread.i.i: ; preds = %bb4.i59.i.i.i.i.i.i, %bb62.i.i.i.i.i.i, %bb50.i.i.i.i.i.i, %bb52.i.i.i.i.i.i, %bb46.i.i.i.i.i.i, %bb42.i.i.i.i.i.i, %bb15.i.i.i.i.i.i, %bb8.i.i.i.i.i.i
  %.sroa.3.0.i.ph.i.i = phi i64 [ %_13.i58.i.i.i.i.i.i, %bb4.i59.i.i.i.i.i.i ], [ %_102.i.i.i.i.i.i, %bb42.i.i.i.i.i.i ], [ %_109.i.i.i.i.i.i, %bb46.i.i.i.i.i.i ], [ %_116.i.i.i.i.i.i, %bb50.i.i.i.i.i.i ], [ %_122.i.i.i.i.i.i, %bb52.i.i.i.i.i.i ], [ %_13.i.i.i.i.i.i.i, %bb62.i.i.i.i.i.i ], [ %16, %bb15.i.i.i.i.i.i ], [ %14, %bb8.i.i.i.i.i.i ]
  %74 = tail call i64 @llvm.usub.sat.i64(i64 %.sroa.3.0.i.ph.i.i, i64 %_6.i.i) #21
  br label %_ZN6memchr6memmem9prefilter11genericsimd4find17h9f1e59497e0be3dcE.exit

panic.i.i:                                        ; preds = %bb5.i
; call core::panicking::panic_bounds_check
  tail call void @_ZN4core9panicking18panic_bounds_check17h12b597476ba48ffaE(i64 %_6.i.i, i64 %needle.1, %"core::panic::location::Location"* noalias readonly align 8 dereferenceable(24) bitcast (<{ i8*, [16 x i8] }>* @alloc1062 to %"core::panic::location::Location"*)) #22, !noalias !79
  unreachable

bb11.i:                                           ; preds = %bb7.i
  %75 = getelementptr inbounds [0 x i8], [0 x i8]* %needle.0, i64 0, i64 %_6.i.i
  %_37.i = load i8, i8* %75, align 1, !alias.scope !56, !noalias !80
  %.0.vec.insert.i.i.i.i = insertelement <16 x i8> undef, i8 %_37.i, i32 0
  %.15.vec.insert.i.i.i.i = shufflevector <16 x i8> %.0.vec.insert.i.i.i.i, <16 x i8> poison, <16 x i32> zeroinitializer
  %_45.i = icmp ult i64 %_8.i.i, %needle.1
  br i1 %_45.i, label %bb13.i, label %panic2.i, !prof !60

panic.i:                                          ; preds = %bb7.i
; call core::panicking::panic_bounds_check
  tail call void @_ZN4core9panicking18panic_bounds_check17h12b597476ba48ffaE(i64 %_6.i.i, i64 %needle.1, %"core::panic::location::Location"* noalias readonly align 8 dereferenceable(24) bitcast (<{ i8*, [16 x i8] }>* @alloc1058 to %"core::panic::location::Location"*)) #22, !noalias !59
  unreachable

bb13.i:                                           ; preds = %bb11.i
  %76 = getelementptr inbounds [0 x i8], [0 x i8]* %needle.0, i64 0, i64 %_8.i.i
  %_42.i = load i8, i8* %76, align 1, !alias.scope !56, !noalias !80
  %.0.vec.insert.i.i.i5.i = insertelement <16 x i8> undef, i8 %_42.i, i32 0
  %.15.vec.insert.i.i.i6.i = shufflevector <16 x i8> %.0.vec.insert.i.i.i5.i, <16 x i8> poison, <16 x i32> zeroinitializer
  %_46.not41.i = icmp ugt i8* %0, %3
  br i1 %_46.not41.i, label %bb23.i, label %bb16.i

panic2.i:                                         ; preds = %bb11.i
; call core::panicking::panic_bounds_check
  tail call void @_ZN4core9panicking18panic_bounds_check17h12b597476ba48ffaE(i64 %_8.i.i, i64 %needle.1, %"core::panic::location::Location"* noalias readonly align 8 dereferenceable(24) bitcast (<{ i8*, [16 x i8] }>* @alloc1060 to %"core::panic::location::Location"*)) #22, !noalias !59
  unreachable

bb23.i:                                           ; preds = %bb20.i, %bb13.i
  %ptr.0.lcssa.i = phi i8* [ %0, %bb13.i ], [ %86, %bb20.i ]
  %_65.i = icmp ult i8* %ptr.0.lcssa.i, %1
  br i1 %_65.i, label %bb24.i, label %bb29.i

bb16.i:                                           ; preds = %bb13.i, %bb20.i
  %ptr.042.i = phi i8* [ %86, %bb20.i ], [ %0, %bb13.i ]
  %77 = getelementptr inbounds i8, i8* %ptr.042.i, i64 %_6.i.i
  %78 = bitcast i8* %77 to <16 x i8>*
  %.0.copyload25.i.i = load <16 x i8>, <16 x i8>* %78, align 1, !alias.scope !54, !noalias !81
  %79 = getelementptr inbounds i8, i8* %ptr.042.i, i64 %_8.i.i
  %80 = bitcast i8* %79 to <16 x i8>*
  %.0.copyload626.i.i = load <16 x i8>, <16 x i8>* %80, align 1, !alias.scope !54, !noalias !81
  %81 = icmp eq <16 x i8> %.0.copyload25.i.i, %.15.vec.insert.i.i.i.i
  %82 = icmp eq <16 x i8> %.0.copyload626.i.i, %.15.vec.insert.i.i.i6.i
  %83 = and <16 x i1> %82, %81
  %84 = bitcast <16 x i1> %83 to i16
  %.not.i = icmp eq i16 %84, 0
  br i1 %.not.i, label %bb20.i, label %bb18.i

bb18.i:                                           ; preds = %bb16.i
  %85 = tail call i16 @llvm.cttz.i16(i16 %84, i1 true), !range !44
  %_25.i.i = zext i16 %85 to i64
; call memchr::memmem::prefilter::genericsimd::matched
  %_57.i = tail call fastcc i64 @_ZN6memchr6memmem9prefilter11genericsimd7matched17h7145dd3b02952477E({ i32, i32 }* noalias nonnull align 4 dereferenceable(8) %prestate, i8* nonnull %0, i8* nonnull %ptr.042.i, i64 %_25.i.i), !noalias !82
  br label %_ZN6memchr6memmem9prefilter11genericsimd4find17h9f1e59497e0be3dcE.exit

bb20.i:                                           ; preds = %bb16.i
  %86 = getelementptr inbounds i8, i8* %ptr.042.i, i64 16
  %_46.not.i = icmp ugt i8* %86, %3
  br i1 %_46.not.i, label %bb23.i, label %bb16.i

bb29.i:                                           ; preds = %bb24.i, %bb23.i
  %87 = getelementptr inbounds { i32, i32 }, { i32, i32 }* %prestate, i64 0, i32 0
  %_4.i.i = load i32, i32* %87, align 4, !alias.scope !83, !noalias !86
  %88 = tail call i32 @llvm.uadd.sat.i32(i32 %_4.i.i, i32 1) #21
  store i32 %88, i32* %87, align 4, !alias.scope !83, !noalias !86
  %_5.i.i = icmp ugt i64 %haystack.1, 4294967295
  %89 = getelementptr inbounds { i32, i32 }, { i32, i32 }* %prestate, i64 0, i32 1
  %_9.i13.i = load i32, i32* %89, align 4, !alias.scope !83, !noalias !86
  %_10.i.i = trunc i64 %haystack.1 to i32
  %90 = tail call i32 @llvm.uadd.sat.i32(i32 %_9.i13.i, i32 %_10.i.i) #21
  %.sink.i.i = select i1 %_5.i.i, i32 -1, i32 %90
  store i32 %.sink.i.i, i32* %89, align 4, !alias.scope !83, !noalias !86
  br label %_ZN6memchr6memmem9prefilter11genericsimd4find17h9f1e59497e0be3dcE.exit

bb24.i:                                           ; preds = %bb23.i
  %91 = getelementptr inbounds i8, i8* %3, i64 %_6.i.i
  %92 = bitcast i8* %91 to <16 x i8>*
  %.0.copyload25.i7.i = load <16 x i8>, <16 x i8>* %92, align 1, !alias.scope !54, !noalias !81
  %93 = getelementptr inbounds i8, i8* %1, i64 -16
  %94 = bitcast i8* %93 to <16 x i8>*
  %.0.copyload626.i8.i = load <16 x i8>, <16 x i8>* %94, align 1, !alias.scope !54, !noalias !81
  %95 = icmp eq <16 x i8> %.0.copyload25.i7.i, %.15.vec.insert.i.i.i.i
  %96 = icmp eq <16 x i8> %.0.copyload626.i8.i, %.15.vec.insert.i.i.i6.i
  %97 = and <16 x i1> %96, %95
  %98 = bitcast <16 x i1> %97 to i16
  %.not24.i = icmp eq i16 %98, 0
  br i1 %.not24.i, label %bb29.i, label %bb26.i

bb26.i:                                           ; preds = %bb24.i
  %99 = tail call i16 @llvm.cttz.i16(i16 %98, i1 true), !range !44
  %_25.i9.i = zext i16 %99 to i64
; call memchr::memmem::prefilter::genericsimd::matched
  %_77.i = tail call fastcc i64 @_ZN6memchr6memmem9prefilter11genericsimd7matched17h7145dd3b02952477E({ i32, i32 }* noalias nonnull align 4 dereferenceable(8) %prestate, i8* nonnull %0, i8* nonnull %3, i64 %_25.i9.i), !noalias !82
  br label %_ZN6memchr6memmem9prefilter11genericsimd4find17h9f1e59497e0be3dcE.exit

_ZN6memchr6memmem9prefilter11genericsimd4find17h9f1e59497e0be3dcE.exit: ; preds = %bb10.i.i.i.i.i.i, %bb2.i.i, %bb65.i.i.i.i.i.i, %bb66.i.i.i.i.i.i, %_ZN6memchr6memchr6memchr17hb5cbb5940758b1ddE.exit.thread.i.i, %bb18.i, %bb29.i, %bb26.i
  %.sroa.5.1.i = phi i64 [ undef, %bb29.i ], [ %_57.i, %bb18.i ], [ %_77.i, %bb26.i ], [ %74, %_ZN6memchr6memchr6memchr17hb5cbb5940758b1ddE.exit.thread.i.i ], [ undef, %bb66.i.i.i.i.i.i ], [ undef, %bb65.i.i.i.i.i.i ], [ undef, %bb2.i.i ], [ undef, %bb10.i.i.i.i.i.i ]
  %.sroa.0.1.i = phi i64 [ 0, %bb29.i ], [ 1, %bb18.i ], [ 1, %bb26.i ], [ 1, %_ZN6memchr6memchr6memchr17hb5cbb5940758b1ddE.exit.thread.i.i ], [ 0, %bb66.i.i.i.i.i.i ], [ 0, %bb65.i.i.i.i.i.i ], [ 0, %bb2.i.i ], [ 0, %bb10.i.i.i.i.i.i ]
  %100 = insertvalue { i64, i64 } undef, i64 %.sroa.0.1.i, 0
  %101 = insertvalue { i64, i64 } %100, i64 %.sroa.5.1.i, 1
  ret { i64, i64 } %101
}

; <memchr::memmem::prefilter::PrefilterFn as core::fmt::Debug>::fmt
; Function Attrs: nonlazybind uwtable
define zeroext i1 @"_ZN75_$LT$memchr..memmem..prefilter..PrefilterFn$u20$as$u20$core..fmt..Debug$GT$3fmt17hc9e20ef8b425891cE"(i64** noalias nocapture readonly align 8 %self, %"core::fmt::Formatter"* noalias align 8 dereferenceable(64) %f) unnamed_addr #6 {
start:
; call <str as core::fmt::Debug>::fmt
  %0 = tail call zeroext i1 @"_ZN40_$LT$str$u20$as$u20$core..fmt..Debug$GT$3fmt17h2fc61a29b5ba73d9E"([0 x i8]* noalias nonnull readonly align 1 bitcast (<{ [19 x i8] }>* @alloc1063 to [0 x i8]*), i64 19, %"core::fmt::Formatter"* noalias nonnull align 8 dereferenceable(64) %f)
  ret i1 %0
}

; memchr::memmem::rabinkarp::is_fast
; Function Attrs: mustprogress nofree norecurse nosync nounwind nonlazybind readnone uwtable willreturn
define zeroext i1 @_ZN6memchr6memmem9rabinkarp7is_fast17h8d008e17f396bd9bE([0 x i8]* noalias nocapture nonnull readonly align 1 %haystack.0, i64 %haystack.1, [0 x i8]* noalias nocapture nonnull readonly align 1 %_needle.0, i64 %_needle.1) unnamed_addr #7 {
start:
  %0 = icmp ult i64 %haystack.1, 16
  ret i1 %0
}

; memchr::memmem::rabinkarp::find
; Function Attrs: nofree nosync nounwind nonlazybind uwtable
define { i64, i64 } @_ZN6memchr6memmem9rabinkarp4find17h32441d53ee75e290E([0 x i8]* noalias nonnull readonly align 1 %haystack.0, i64 %haystack.1, [0 x i8]* noalias nonnull readonly align 1 %needle.0, i64 %needle.1) unnamed_addr #1 personality i32 (...)* @rust_eh_personality {
start:
  %0 = icmp eq i64 %needle.1, 0
  br i1 %0, label %_ZN6memchr6memmem9rabinkarp10NeedleHash7forward17h79c39d2e8dce590bE.exit.thread, label %bb5.i

bb5.i:                                            ; preds = %start
  %1 = getelementptr [0 x i8], [0 x i8]* %needle.0, i64 0, i64 0
  %_8.i = load i8, i8* %1, align 1, !alias.scope !87
  %_6.i.i = zext i8 %_8.i to i32
  %2 = getelementptr inbounds [0 x i8], [0 x i8]* %needle.0, i64 0, i64 %needle.1
  %_18.i.i.i = ptrtoint i8* %2 to i64
  br label %bb10.i

bb10.i:                                           ; preds = %bb12.i, %bb5.i
  %iter.sroa.0.0.i = phi i8* [ %1, %bb5.i ], [ %5, %bb12.i ]
  %_3.not.i.i = phi i1 [ false, %bb5.i ], [ true, %bb12.i ]
  %iter.sroa.10.0.i = phi i64 [ 1, %bb5.i ], [ 0, %bb12.i ]
  %nh.sroa.10.0.i = phi i32 [ 1, %bb5.i ], [ %8, %bb12.i ]
  %nh.sroa.0.0.i = phi i32 [ %_6.i.i, %bb5.i ], [ %7, %bb12.i ]
  br i1 %_3.not.i.i, label %bb6.i.i, label %bb2.i.i

bb6.i.i:                                          ; preds = %bb18.i.i.i, %bb10.i
  %_15.i.i.i = phi i8* [ %iter.sroa.0.0.i, %bb10.i ], [ %4, %bb18.i.i.i ]
  %_12.i.i.i = icmp eq i8* %_15.i.i.i, %2
  br i1 %_12.i.i.i, label %_ZN6memchr6memmem9rabinkarp10NeedleHash7forward17h79c39d2e8dce590bE.exit, label %bb12.i

bb2.i.i:                                          ; preds = %bb10.i
  %_7.i.i = add nsw i64 %iter.sroa.10.0.i, -1
  %_20.i.i.i = ptrtoint i8* %iter.sroa.0.0.i to i64
  %3 = sub nuw i64 %_18.i.i.i, %_20.i.i.i
  %_3.not.i.i.i = icmp ugt i64 %3, %_7.i.i
  br i1 %_3.not.i.i.i, label %bb18.i.i.i, label %_ZN6memchr6memmem9rabinkarp10NeedleHash7forward17h79c39d2e8dce590bE.exit

bb18.i.i.i:                                       ; preds = %bb2.i.i
  %4 = getelementptr inbounds i8, i8* %iter.sroa.0.0.i, i64 %iter.sroa.10.0.i
  br label %bb6.i.i

bb12.i:                                           ; preds = %bb6.i.i
  %5 = getelementptr inbounds i8, i8* %_15.i.i.i, i64 1
  %b.i = load i8, i8* %_15.i.i.i, align 1, !alias.scope !87
  %6 = shl i32 %nh.sroa.0.0.i, 1
  %_6.i5.i = zext i8 %b.i to i32
  %7 = add i32 %6, %_6.i5.i
  %8 = shl i32 %nh.sroa.10.0.i, 1
  br label %bb10.i

_ZN6memchr6memmem9rabinkarp10NeedleHash7forward17h79c39d2e8dce590bE.exit: ; preds = %bb6.i.i, %bb2.i.i
  %_4.i = icmp ult i64 %haystack.1, %needle.1
  br i1 %_4.i, label %_ZN6memchr6memmem9rabinkarp9find_with17hef1e79e3bbe26ad8E.exit, label %"_ZN4core5slice5index74_$LT$impl$u20$core..ops..index..Index$LT$I$GT$$u20$for$u20$$u5b$T$u5d$$GT$5index17h7a33252506d3c20cE.exit.i"

_ZN6memchr6memmem9rabinkarp10NeedleHash7forward17h79c39d2e8dce590bE.exit.thread: ; preds = %start
  %_4.i11 = icmp ult i64 %haystack.1, %needle.1
  br i1 %_4.i11, label %_ZN6memchr6memmem9rabinkarp9find_with17hef1e79e3bbe26ad8E.exit, label %_ZN6memchr6memmem9rabinkarp4Hash14from_bytes_fwd17hfb8b31b5e4d5cd45E.exit.i

"_ZN4core5slice5index74_$LT$impl$u20$core..ops..index..Index$LT$I$GT$$u20$for$u20$$u5b$T$u5d$$GT$5index17h7a33252506d3c20cE.exit.i": ; preds = %_ZN6memchr6memmem9rabinkarp10NeedleHash7forward17h79c39d2e8dce590bE.exit
  br i1 %0, label %_ZN6memchr6memmem9rabinkarp4Hash14from_bytes_fwd17hfb8b31b5e4d5cd45E.exit.i, label %bb5.i.preheader.i

bb5.i.preheader.i:                                ; preds = %"_ZN4core5slice5index74_$LT$impl$u20$core..ops..index..Index$LT$I$GT$$u20$for$u20$$u5b$T$u5d$$GT$5index17h7a33252506d3c20cE.exit.i"
  %9 = getelementptr [0 x i8], [0 x i8]* %haystack.0, i64 0, i64 0
  %10 = add i64 %needle.1, -1
  %xtraiter = and i64 %needle.1, 7
  %11 = icmp ult i64 %10, 7
  br i1 %11, label %_ZN6memchr6memmem9rabinkarp4Hash14from_bytes_fwd17hfb8b31b5e4d5cd45E.exit.i.loopexit.unr-lcssa, label %bb5.i.preheader.i.new

bb5.i.preheader.i.new:                            ; preds = %bb5.i.preheader.i
  %unroll_iter = and i64 %needle.1, -8
  br label %bb5.i.i

bb5.i.i:                                          ; preds = %bb5.i.i, %bb5.i.preheader.i.new
  %hash.011.i.i = phi i32 [ 0, %bb5.i.preheader.i.new ], [ %35, %bb5.i.i ]
  %iter.sroa.0.010.i.i = phi i8* [ %9, %bb5.i.preheader.i.new ], [ %33, %bb5.i.i ]
  %niter = phi i64 [ %unroll_iter, %bb5.i.preheader.i.new ], [ %niter.nsub.7, %bb5.i.i ]
  %12 = getelementptr inbounds i8, i8* %iter.sroa.0.010.i.i, i64 1
  %b.i.i = load i8, i8* %iter.sroa.0.010.i.i, align 1, !alias.scope !90, !noalias !95
  %13 = shl i32 %hash.011.i.i, 1
  %_6.i.i.i = zext i8 %b.i.i to i32
  %14 = add i32 %13, %_6.i.i.i
  %15 = getelementptr inbounds i8, i8* %iter.sroa.0.010.i.i, i64 2
  %b.i.i.1 = load i8, i8* %12, align 1, !alias.scope !90, !noalias !95
  %16 = shl i32 %14, 1
  %_6.i.i.i.1 = zext i8 %b.i.i.1 to i32
  %17 = add i32 %16, %_6.i.i.i.1
  %18 = getelementptr inbounds i8, i8* %iter.sroa.0.010.i.i, i64 3
  %b.i.i.2 = load i8, i8* %15, align 1, !alias.scope !90, !noalias !95
  %19 = shl i32 %17, 1
  %_6.i.i.i.2 = zext i8 %b.i.i.2 to i32
  %20 = add i32 %19, %_6.i.i.i.2
  %21 = getelementptr inbounds i8, i8* %iter.sroa.0.010.i.i, i64 4
  %b.i.i.3 = load i8, i8* %18, align 1, !alias.scope !90, !noalias !95
  %22 = shl i32 %20, 1
  %_6.i.i.i.3 = zext i8 %b.i.i.3 to i32
  %23 = add i32 %22, %_6.i.i.i.3
  %24 = getelementptr inbounds i8, i8* %iter.sroa.0.010.i.i, i64 5
  %b.i.i.4 = load i8, i8* %21, align 1, !alias.scope !90, !noalias !95
  %25 = shl i32 %23, 1
  %_6.i.i.i.4 = zext i8 %b.i.i.4 to i32
  %26 = add i32 %25, %_6.i.i.i.4
  %27 = getelementptr inbounds i8, i8* %iter.sroa.0.010.i.i, i64 6
  %b.i.i.5 = load i8, i8* %24, align 1, !alias.scope !90, !noalias !95
  %28 = shl i32 %26, 1
  %_6.i.i.i.5 = zext i8 %b.i.i.5 to i32
  %29 = add i32 %28, %_6.i.i.i.5
  %30 = getelementptr inbounds i8, i8* %iter.sroa.0.010.i.i, i64 7
  %b.i.i.6 = load i8, i8* %27, align 1, !alias.scope !90, !noalias !95
  %31 = shl i32 %29, 1
  %_6.i.i.i.6 = zext i8 %b.i.i.6 to i32
  %32 = add i32 %31, %_6.i.i.i.6
  %33 = getelementptr inbounds i8, i8* %iter.sroa.0.010.i.i, i64 8
  %b.i.i.7 = load i8, i8* %30, align 1, !alias.scope !90, !noalias !95
  %34 = shl i32 %32, 1
  %_6.i.i.i.7 = zext i8 %b.i.i.7 to i32
  %35 = add i32 %34, %_6.i.i.i.7
  %niter.nsub.7 = add i64 %niter, -8
  %niter.ncmp.7 = icmp eq i64 %niter.nsub.7, 0
  br i1 %niter.ncmp.7, label %_ZN6memchr6memmem9rabinkarp4Hash14from_bytes_fwd17hfb8b31b5e4d5cd45E.exit.i.loopexit.unr-lcssa, label %bb5.i.i

_ZN6memchr6memmem9rabinkarp4Hash14from_bytes_fwd17hfb8b31b5e4d5cd45E.exit.i.loopexit.unr-lcssa: ; preds = %bb5.i.i, %bb5.i.preheader.i
  %.lcssa.ph = phi i32 [ undef, %bb5.i.preheader.i ], [ %35, %bb5.i.i ]
  %hash.011.i.i.unr = phi i32 [ 0, %bb5.i.preheader.i ], [ %35, %bb5.i.i ]
  %iter.sroa.0.010.i.i.unr = phi i8* [ %9, %bb5.i.preheader.i ], [ %33, %bb5.i.i ]
  %lcmp.mod.not = icmp eq i64 %xtraiter, 0
  br i1 %lcmp.mod.not, label %_ZN6memchr6memmem9rabinkarp4Hash14from_bytes_fwd17hfb8b31b5e4d5cd45E.exit.i, label %bb5.i.i.epil

bb5.i.i.epil:                                     ; preds = %_ZN6memchr6memmem9rabinkarp4Hash14from_bytes_fwd17hfb8b31b5e4d5cd45E.exit.i.loopexit.unr-lcssa, %bb5.i.i.epil
  %hash.011.i.i.epil = phi i32 [ %38, %bb5.i.i.epil ], [ %hash.011.i.i.unr, %_ZN6memchr6memmem9rabinkarp4Hash14from_bytes_fwd17hfb8b31b5e4d5cd45E.exit.i.loopexit.unr-lcssa ]
  %iter.sroa.0.010.i.i.epil = phi i8* [ %36, %bb5.i.i.epil ], [ %iter.sroa.0.010.i.i.unr, %_ZN6memchr6memmem9rabinkarp4Hash14from_bytes_fwd17hfb8b31b5e4d5cd45E.exit.i.loopexit.unr-lcssa ]
  %epil.iter = phi i64 [ %epil.iter.sub, %bb5.i.i.epil ], [ %xtraiter, %_ZN6memchr6memmem9rabinkarp4Hash14from_bytes_fwd17hfb8b31b5e4d5cd45E.exit.i.loopexit.unr-lcssa ]
  %36 = getelementptr inbounds i8, i8* %iter.sroa.0.010.i.i.epil, i64 1
  %b.i.i.epil = load i8, i8* %iter.sroa.0.010.i.i.epil, align 1, !alias.scope !90, !noalias !95
  %37 = shl i32 %hash.011.i.i.epil, 1
  %_6.i.i.i.epil = zext i8 %b.i.i.epil to i32
  %38 = add i32 %37, %_6.i.i.i.epil
  %epil.iter.sub = add i64 %epil.iter, -1
  %epil.iter.cmp.not = icmp eq i64 %epil.iter.sub, 0
  br i1 %epil.iter.cmp.not, label %_ZN6memchr6memmem9rabinkarp4Hash14from_bytes_fwd17hfb8b31b5e4d5cd45E.exit.i, label %bb5.i.i.epil, !llvm.loop !97

_ZN6memchr6memmem9rabinkarp4Hash14from_bytes_fwd17hfb8b31b5e4d5cd45E.exit.i: ; preds = %_ZN6memchr6memmem9rabinkarp4Hash14from_bytes_fwd17hfb8b31b5e4d5cd45E.exit.i.loopexit.unr-lcssa, %bb5.i.i.epil, %_ZN6memchr6memmem9rabinkarp10NeedleHash7forward17h79c39d2e8dce590bE.exit.thread, %"_ZN4core5slice5index74_$LT$impl$u20$core..ops..index..Index$LT$I$GT$$u20$for$u20$$u5b$T$u5d$$GT$5index17h7a33252506d3c20cE.exit.i"
  %.sroa.3.0.i1218 = phi i32 [ %nh.sroa.10.0.i, %"_ZN4core5slice5index74_$LT$impl$u20$core..ops..index..Index$LT$I$GT$$u20$for$u20$$u5b$T$u5d$$GT$5index17h7a33252506d3c20cE.exit.i" ], [ 1, %_ZN6memchr6memmem9rabinkarp10NeedleHash7forward17h79c39d2e8dce590bE.exit.thread ], [ %nh.sroa.10.0.i, %bb5.i.i.epil ], [ %nh.sroa.10.0.i, %_ZN6memchr6memmem9rabinkarp4Hash14from_bytes_fwd17hfb8b31b5e4d5cd45E.exit.i.loopexit.unr-lcssa ]
  %.sroa.0.0.i1317 = phi i32 [ %nh.sroa.0.0.i, %"_ZN4core5slice5index74_$LT$impl$u20$core..ops..index..Index$LT$I$GT$$u20$for$u20$$u5b$T$u5d$$GT$5index17h7a33252506d3c20cE.exit.i" ], [ 0, %_ZN6memchr6memmem9rabinkarp10NeedleHash7forward17h79c39d2e8dce590bE.exit.thread ], [ %nh.sroa.0.0.i, %bb5.i.i.epil ], [ %nh.sroa.0.0.i, %_ZN6memchr6memmem9rabinkarp4Hash14from_bytes_fwd17hfb8b31b5e4d5cd45E.exit.i.loopexit.unr-lcssa ]
  %hash.0.lcssa.i.i = phi i32 [ 0, %"_ZN4core5slice5index74_$LT$impl$u20$core..ops..index..Index$LT$I$GT$$u20$for$u20$$u5b$T$u5d$$GT$5index17h7a33252506d3c20cE.exit.i" ], [ 0, %_ZN6memchr6memmem9rabinkarp10NeedleHash7forward17h79c39d2e8dce590bE.exit.thread ], [ %.lcssa.ph, %_ZN6memchr6memmem9rabinkarp4Hash14from_bytes_fwd17hfb8b31b5e4d5cd45E.exit.i.loopexit.unr-lcssa ], [ %38, %bb5.i.i.epil ]
  %start1.i19 = ptrtoint [0 x i8]* %haystack.0 to i64
  br label %bb6.i

bb6.i:                                            ; preds = %"_ZN4core5slice5index74_$LT$impl$u20$core..ops..index..Index$LT$I$GT$$u20$for$u20$$u5b$T$u5d$$GT$5index17h0e07b64f0105e7faE.exit.i", %_ZN6memchr6memmem9rabinkarp4Hash14from_bytes_fwd17hfb8b31b5e4d5cd45E.exit.i
  %hash.0.i = phi i32 [ %hash.0.lcssa.i.i, %_ZN6memchr6memmem9rabinkarp4Hash14from_bytes_fwd17hfb8b31b5e4d5cd45E.exit.i ], [ %45, %"_ZN4core5slice5index74_$LT$impl$u20$core..ops..index..Index$LT$I$GT$$u20$for$u20$$u5b$T$u5d$$GT$5index17h0e07b64f0105e7faE.exit.i" ]
  %haystack.sroa.13.0.i = phi i64 [ %haystack.1, %_ZN6memchr6memmem9rabinkarp4Hash14from_bytes_fwd17hfb8b31b5e4d5cd45E.exit.i ], [ %_7.i.i.i.i.i, %"_ZN4core5slice5index74_$LT$impl$u20$core..ops..index..Index$LT$I$GT$$u20$for$u20$$u5b$T$u5d$$GT$5index17h0e07b64f0105e7faE.exit.i" ]
  %haystack.sroa.0.0.i = phi [0 x i8]* [ %haystack.0, %_ZN6memchr6memmem9rabinkarp4Hash14from_bytes_fwd17hfb8b31b5e4d5cd45E.exit.i ], [ %47, %"_ZN4core5slice5index74_$LT$impl$u20$core..ops..index..Index$LT$I$GT$$u20$for$u20$$u5b$T$u5d$$GT$5index17h0e07b64f0105e7faE.exit.i" ]
  %39 = icmp eq i32 %hash.0.i, %.sroa.0.0.i1317
  br i1 %39, label %bb8.i, label %bb14.i

bb8.i:                                            ; preds = %bb6.i
; call memchr::memmem::rabinkarp::is_prefix
  %_24.i = tail call fastcc zeroext i1 @_ZN6memchr6memmem9rabinkarp9is_prefix17h9e377cf0e3b7406bE([0 x i8]* noalias nonnull readonly align 1 %haystack.sroa.0.0.i, i64 %haystack.sroa.13.0.i, [0 x i8]* noalias nonnull readonly align 1 %needle.0, i64 %needle.1)
  br i1 %_24.i, label %bb12.i4, label %bb14.i

bb14.i:                                           ; preds = %bb8.i, %bb6.i
  %_32.not.i = icmp ugt i64 %haystack.sroa.13.0.i, %needle.1
  br i1 %_32.not.i, label %"_ZN4core5slice5index74_$LT$impl$u20$core..ops..index..Index$LT$I$GT$$u20$for$u20$$u5b$T$u5d$$GT$5index17h0e07b64f0105e7faE.exit.i", label %_ZN6memchr6memmem9rabinkarp9find_with17hef1e79e3bbe26ad8E.exit

bb12.i4:                                          ; preds = %bb8.i
  %_28.i = ptrtoint [0 x i8]* %haystack.sroa.0.0.i to i64
  %_27.i = sub i64 %_28.i, %start1.i19
  br label %_ZN6memchr6memmem9rabinkarp9find_with17hef1e79e3bbe26ad8E.exit

"_ZN4core5slice5index74_$LT$impl$u20$core..ops..index..Index$LT$I$GT$$u20$for$u20$$u5b$T$u5d$$GT$5index17h0e07b64f0105e7faE.exit.i": ; preds = %bb14.i
  %40 = getelementptr inbounds [0 x i8], [0 x i8]* %haystack.sroa.0.0.i, i64 0, i64 0
  %_41.i = load i8, i8* %40, align 1, !alias.scope !99, !noalias !95
  %41 = getelementptr inbounds [0 x i8], [0 x i8]* %haystack.sroa.0.0.i, i64 0, i64 %needle.1
  %_45.i = load i8, i8* %41, align 1, !alias.scope !99, !noalias !95
  %_8.i.i.i = zext i8 %_41.i to i32
  %42 = mul i32 %.sroa.3.0.i1218, %_8.i.i.i
  %43 = sub i32 %hash.0.i, %42
  %44 = shl i32 %43, 1
  %_6.i1.i.i = zext i8 %_45.i to i32
  %45 = add i32 %44, %_6.i1.i.i
  %46 = getelementptr inbounds [0 x i8], [0 x i8]* %haystack.sroa.0.0.i, i64 0, i64 1
  %_7.i.i.i.i.i = add i64 %haystack.sroa.13.0.i, -1
  %47 = bitcast i8* %46 to [0 x i8]*
  br label %bb6.i

_ZN6memchr6memmem9rabinkarp9find_with17hef1e79e3bbe26ad8E.exit: ; preds = %bb14.i, %_ZN6memchr6memmem9rabinkarp10NeedleHash7forward17h79c39d2e8dce590bE.exit.thread, %_ZN6memchr6memmem9rabinkarp10NeedleHash7forward17h79c39d2e8dce590bE.exit, %bb12.i4
  %.sroa.4.0.i = phi i64 [ undef, %_ZN6memchr6memmem9rabinkarp10NeedleHash7forward17h79c39d2e8dce590bE.exit ], [ %_27.i, %bb12.i4 ], [ undef, %_ZN6memchr6memmem9rabinkarp10NeedleHash7forward17h79c39d2e8dce590bE.exit.thread ], [ undef, %bb14.i ]
  %.sroa.0.0.i3 = phi i64 [ 0, %_ZN6memchr6memmem9rabinkarp10NeedleHash7forward17h79c39d2e8dce590bE.exit ], [ 1, %bb12.i4 ], [ 0, %_ZN6memchr6memmem9rabinkarp10NeedleHash7forward17h79c39d2e8dce590bE.exit.thread ], [ 0, %bb14.i ]
  %48 = insertvalue { i64, i64 } undef, i64 %.sroa.0.0.i3, 0
  %49 = insertvalue { i64, i64 } %48, i64 %.sroa.4.0.i, 1
  ret { i64, i64 } %49
}

; memchr::memmem::rabinkarp::rfind
; Function Attrs: nonlazybind uwtable
define { i64, i64 } @_ZN6memchr6memmem9rabinkarp5rfind17hf6cec5ba7dcd1e70E([0 x i8]* noalias nonnull readonly align 1 %haystack.0, i64 %haystack.1, [0 x i8]* noalias nonnull readonly align 1 %needle.0, i64 %needle.1) unnamed_addr #6 personality i32 (...)* @rust_eh_personality {
start:
  %0 = icmp eq i64 %needle.1, 0
  br i1 %0, label %_ZN6memchr6memmem9rabinkarp10NeedleHash7reverse17h674d934cae15d5c5E.exit.thread, label %bb5.i

bb5.i:                                            ; preds = %start
  %_9.i = add i64 %needle.1, -1
  %1 = getelementptr inbounds [0 x i8], [0 x i8]* %needle.0, i64 0, i64 %_9.i
  %_8.i = load i8, i8* %1, align 1, !alias.scope !100
  %_6.i.i = zext i8 %_8.i to i32
  %2 = getelementptr [0 x i8], [0 x i8]* %needle.0, i64 0, i64 0
  %3 = getelementptr inbounds [0 x i8], [0 x i8]* %needle.0, i64 0, i64 %needle.1
  %_20.i.i.i.i = ptrtoint [0 x i8]* %needle.0 to i64
  br label %bb11.i

bb11.i:                                           ; preds = %bb13.i, %bb5.i
  %iter.sroa.5.0.i = phi i8* [ %3, %bb5.i ], [ %6, %bb13.i ]
  %_3.not.i.i = phi i1 [ false, %bb5.i ], [ true, %bb13.i ]
  %iter.sroa.10.0.i = phi i64 [ 1, %bb5.i ], [ 0, %bb13.i ]
  %nh.sroa.10.0.i = phi i32 [ 1, %bb5.i ], [ %9, %bb13.i ]
  %nh.sroa.0.0.i = phi i32 [ %_6.i.i, %bb5.i ], [ %8, %bb13.i ]
  br i1 %_3.not.i.i, label %bb6.i.i, label %bb2.i.i

bb6.i.i:                                          ; preds = %bb2.i.i, %bb11.i
  %_11.i.i.i.i = phi i8* [ %storemerge.i.i.i.i, %bb2.i.i ], [ %iter.sroa.5.0.i, %bb11.i ]
  %_12.i.i.i.i = icmp eq i8* %2, %_11.i.i.i.i
  br i1 %_12.i.i.i.i, label %_ZN6memchr6memmem9rabinkarp10NeedleHash7reverse17h674d934cae15d5c5E.exit, label %bb13.i

bb2.i.i:                                          ; preds = %bb11.i
  %_7.i.i = add nsw i64 %iter.sroa.10.0.i, -1
  %_18.i.i.i.i = ptrtoint i8* %iter.sroa.5.0.i to i64
  %4 = sub nuw i64 %_18.i.i.i.i, %_20.i.i.i.i
  %_3.not.i.i.i.i = icmp ugt i64 %4, %_7.i.i
  %.idx.i.i.i.i = sub nsw i64 0, %iter.sroa.10.0.i
  %5 = getelementptr inbounds i8, i8* %iter.sroa.5.0.i, i64 %.idx.i.i.i.i
  %storemerge.i.i.i.i = select i1 %_3.not.i.i.i.i, i8* %5, i8* %2
  br label %bb6.i.i

bb13.i:                                           ; preds = %bb6.i.i
  %6 = getelementptr inbounds i8, i8* %_11.i.i.i.i, i64 -1
  %b.i = load i8, i8* %6, align 1, !alias.scope !100
  %7 = shl i32 %nh.sroa.0.0.i, 1
  %_6.i5.i = zext i8 %b.i to i32
  %8 = add i32 %7, %_6.i5.i
  %9 = shl i32 %nh.sroa.10.0.i, 1
  br label %bb11.i

_ZN6memchr6memmem9rabinkarp10NeedleHash7reverse17h674d934cae15d5c5E.exit: ; preds = %bb6.i.i
  %_4.i = icmp ult i64 %haystack.1, %needle.1
  br i1 %_4.i, label %_ZN6memchr6memmem9rabinkarp10rfind_with17h942bd5e0d52fd60dE.exit, label %"_ZN4core5slice5index74_$LT$impl$u20$core..ops..index..Index$LT$I$GT$$u20$for$u20$$u5b$T$u5d$$GT$5index17h0e07b64f0105e7faE.exit.i"

_ZN6memchr6memmem9rabinkarp10NeedleHash7reverse17h674d934cae15d5c5E.exit.thread: ; preds = %start
  %_4.i13 = icmp ult i64 %haystack.1, %needle.1
  br i1 %_4.i13, label %_ZN6memchr6memmem9rabinkarp10rfind_with17h942bd5e0d52fd60dE.exit, label %_ZN6memchr6memmem9rabinkarp4Hash14from_bytes_rev17h6b054ec2652e250bE.exit.i

"_ZN4core5slice5index74_$LT$impl$u20$core..ops..index..Index$LT$I$GT$$u20$for$u20$$u5b$T$u5d$$GT$5index17h0e07b64f0105e7faE.exit.i": ; preds = %_ZN6memchr6memmem9rabinkarp10NeedleHash7reverse17h674d934cae15d5c5E.exit
  br i1 %0, label %_ZN6memchr6memmem9rabinkarp4Hash14from_bytes_rev17h6b054ec2652e250bE.exit.i, label %bb7.preheader.i.i

bb7.preheader.i.i:                                ; preds = %"_ZN4core5slice5index74_$LT$impl$u20$core..ops..index..Index$LT$I$GT$$u20$for$u20$$u5b$T$u5d$$GT$5index17h0e07b64f0105e7faE.exit.i"
  %10 = getelementptr inbounds [0 x i8], [0 x i8]* %haystack.0, i64 0, i64 %haystack.1
  %11 = add i64 %needle.1, -1
  %xtraiter = and i64 %needle.1, 7
  %12 = icmp ult i64 %11, 7
  br i1 %12, label %_ZN6memchr6memmem9rabinkarp4Hash14from_bytes_rev17h6b054ec2652e250bE.exit.i.loopexit.unr-lcssa, label %bb7.preheader.i.i.new

bb7.preheader.i.i.new:                            ; preds = %bb7.preheader.i.i
  %unroll_iter = and i64 %needle.1, -8
  br label %bb7.i.i

bb7.i.i:                                          ; preds = %bb7.i.i, %bb7.preheader.i.i.new
  %hash.011.i.i = phi i32 [ 0, %bb7.preheader.i.i.new ], [ %36, %bb7.i.i ]
  %iter.sroa.4.010.i.i = phi i8* [ %10, %bb7.preheader.i.i.new ], [ %34, %bb7.i.i ]
  %niter = phi i64 [ %unroll_iter, %bb7.preheader.i.i.new ], [ %niter.nsub.7, %bb7.i.i ]
  %13 = getelementptr inbounds i8, i8* %iter.sroa.4.010.i.i, i64 -1
  %b.i.i = load i8, i8* %13, align 1, !alias.scope !103, !noalias !108
  %14 = shl i32 %hash.011.i.i, 1
  %_6.i.i.i = zext i8 %b.i.i to i32
  %15 = add i32 %14, %_6.i.i.i
  %16 = getelementptr inbounds i8, i8* %iter.sroa.4.010.i.i, i64 -2
  %b.i.i.1 = load i8, i8* %16, align 1, !alias.scope !103, !noalias !108
  %17 = shl i32 %15, 1
  %_6.i.i.i.1 = zext i8 %b.i.i.1 to i32
  %18 = add i32 %17, %_6.i.i.i.1
  %19 = getelementptr inbounds i8, i8* %iter.sroa.4.010.i.i, i64 -3
  %b.i.i.2 = load i8, i8* %19, align 1, !alias.scope !103, !noalias !108
  %20 = shl i32 %18, 1
  %_6.i.i.i.2 = zext i8 %b.i.i.2 to i32
  %21 = add i32 %20, %_6.i.i.i.2
  %22 = getelementptr inbounds i8, i8* %iter.sroa.4.010.i.i, i64 -4
  %b.i.i.3 = load i8, i8* %22, align 1, !alias.scope !103, !noalias !108
  %23 = shl i32 %21, 1
  %_6.i.i.i.3 = zext i8 %b.i.i.3 to i32
  %24 = add i32 %23, %_6.i.i.i.3
  %25 = getelementptr inbounds i8, i8* %iter.sroa.4.010.i.i, i64 -5
  %b.i.i.4 = load i8, i8* %25, align 1, !alias.scope !103, !noalias !108
  %26 = shl i32 %24, 1
  %_6.i.i.i.4 = zext i8 %b.i.i.4 to i32
  %27 = add i32 %26, %_6.i.i.i.4
  %28 = getelementptr inbounds i8, i8* %iter.sroa.4.010.i.i, i64 -6
  %b.i.i.5 = load i8, i8* %28, align 1, !alias.scope !103, !noalias !108
  %29 = shl i32 %27, 1
  %_6.i.i.i.5 = zext i8 %b.i.i.5 to i32
  %30 = add i32 %29, %_6.i.i.i.5
  %31 = getelementptr inbounds i8, i8* %iter.sroa.4.010.i.i, i64 -7
  %b.i.i.6 = load i8, i8* %31, align 1, !alias.scope !103, !noalias !108
  %32 = shl i32 %30, 1
  %_6.i.i.i.6 = zext i8 %b.i.i.6 to i32
  %33 = add i32 %32, %_6.i.i.i.6
  %34 = getelementptr inbounds i8, i8* %iter.sroa.4.010.i.i, i64 -8
  %b.i.i.7 = load i8, i8* %34, align 1, !alias.scope !103, !noalias !108
  %35 = shl i32 %33, 1
  %_6.i.i.i.7 = zext i8 %b.i.i.7 to i32
  %36 = add i32 %35, %_6.i.i.i.7
  %niter.nsub.7 = add i64 %niter, -8
  %niter.ncmp.7 = icmp eq i64 %niter.nsub.7, 0
  br i1 %niter.ncmp.7, label %_ZN6memchr6memmem9rabinkarp4Hash14from_bytes_rev17h6b054ec2652e250bE.exit.i.loopexit.unr-lcssa, label %bb7.i.i

_ZN6memchr6memmem9rabinkarp4Hash14from_bytes_rev17h6b054ec2652e250bE.exit.i.loopexit.unr-lcssa: ; preds = %bb7.i.i, %bb7.preheader.i.i
  %.lcssa.ph = phi i32 [ undef, %bb7.preheader.i.i ], [ %36, %bb7.i.i ]
  %hash.011.i.i.unr = phi i32 [ 0, %bb7.preheader.i.i ], [ %36, %bb7.i.i ]
  %iter.sroa.4.010.i.i.unr = phi i8* [ %10, %bb7.preheader.i.i ], [ %34, %bb7.i.i ]
  %lcmp.mod.not = icmp eq i64 %xtraiter, 0
  br i1 %lcmp.mod.not, label %_ZN6memchr6memmem9rabinkarp4Hash14from_bytes_rev17h6b054ec2652e250bE.exit.i, label %bb7.i.i.epil

bb7.i.i.epil:                                     ; preds = %_ZN6memchr6memmem9rabinkarp4Hash14from_bytes_rev17h6b054ec2652e250bE.exit.i.loopexit.unr-lcssa, %bb7.i.i.epil
  %hash.011.i.i.epil = phi i32 [ %39, %bb7.i.i.epil ], [ %hash.011.i.i.unr, %_ZN6memchr6memmem9rabinkarp4Hash14from_bytes_rev17h6b054ec2652e250bE.exit.i.loopexit.unr-lcssa ]
  %iter.sroa.4.010.i.i.epil = phi i8* [ %37, %bb7.i.i.epil ], [ %iter.sroa.4.010.i.i.unr, %_ZN6memchr6memmem9rabinkarp4Hash14from_bytes_rev17h6b054ec2652e250bE.exit.i.loopexit.unr-lcssa ]
  %epil.iter = phi i64 [ %epil.iter.sub, %bb7.i.i.epil ], [ %xtraiter, %_ZN6memchr6memmem9rabinkarp4Hash14from_bytes_rev17h6b054ec2652e250bE.exit.i.loopexit.unr-lcssa ]
  %37 = getelementptr inbounds i8, i8* %iter.sroa.4.010.i.i.epil, i64 -1
  %b.i.i.epil = load i8, i8* %37, align 1, !alias.scope !103, !noalias !108
  %38 = shl i32 %hash.011.i.i.epil, 1
  %_6.i.i.i.epil = zext i8 %b.i.i.epil to i32
  %39 = add i32 %38, %_6.i.i.i.epil
  %epil.iter.sub = add i64 %epil.iter, -1
  %epil.iter.cmp.not = icmp eq i64 %epil.iter.sub, 0
  br i1 %epil.iter.cmp.not, label %_ZN6memchr6memmem9rabinkarp4Hash14from_bytes_rev17h6b054ec2652e250bE.exit.i, label %bb7.i.i.epil, !llvm.loop !111

_ZN6memchr6memmem9rabinkarp4Hash14from_bytes_rev17h6b054ec2652e250bE.exit.i: ; preds = %_ZN6memchr6memmem9rabinkarp4Hash14from_bytes_rev17h6b054ec2652e250bE.exit.i.loopexit.unr-lcssa, %bb7.i.i.epil, %_ZN6memchr6memmem9rabinkarp10NeedleHash7reverse17h674d934cae15d5c5E.exit.thread, %"_ZN4core5slice5index74_$LT$impl$u20$core..ops..index..Index$LT$I$GT$$u20$for$u20$$u5b$T$u5d$$GT$5index17h0e07b64f0105e7faE.exit.i"
  %.sroa.3.0.i1420 = phi i32 [ %nh.sroa.10.0.i, %"_ZN4core5slice5index74_$LT$impl$u20$core..ops..index..Index$LT$I$GT$$u20$for$u20$$u5b$T$u5d$$GT$5index17h0e07b64f0105e7faE.exit.i" ], [ 1, %_ZN6memchr6memmem9rabinkarp10NeedleHash7reverse17h674d934cae15d5c5E.exit.thread ], [ %nh.sroa.10.0.i, %bb7.i.i.epil ], [ %nh.sroa.10.0.i, %_ZN6memchr6memmem9rabinkarp4Hash14from_bytes_rev17h6b054ec2652e250bE.exit.i.loopexit.unr-lcssa ]
  %.sroa.0.0.i1519 = phi i32 [ %nh.sroa.0.0.i, %"_ZN4core5slice5index74_$LT$impl$u20$core..ops..index..Index$LT$I$GT$$u20$for$u20$$u5b$T$u5d$$GT$5index17h0e07b64f0105e7faE.exit.i" ], [ 0, %_ZN6memchr6memmem9rabinkarp10NeedleHash7reverse17h674d934cae15d5c5E.exit.thread ], [ %nh.sroa.0.0.i, %bb7.i.i.epil ], [ %nh.sroa.0.0.i, %_ZN6memchr6memmem9rabinkarp4Hash14from_bytes_rev17h6b054ec2652e250bE.exit.i.loopexit.unr-lcssa ]
  %hash.0.lcssa.i.i = phi i32 [ 0, %"_ZN4core5slice5index74_$LT$impl$u20$core..ops..index..Index$LT$I$GT$$u20$for$u20$$u5b$T$u5d$$GT$5index17h0e07b64f0105e7faE.exit.i" ], [ 0, %_ZN6memchr6memmem9rabinkarp10NeedleHash7reverse17h674d934cae15d5c5E.exit.thread ], [ %.lcssa.ph, %_ZN6memchr6memmem9rabinkarp4Hash14from_bytes_rev17h6b054ec2652e250bE.exit.i.loopexit.unr-lcssa ], [ %39, %bb7.i.i.epil ]
  %40 = xor i64 %needle.1, -1
  br label %bb5.i3

bb5.i3:                                           ; preds = %"_ZN4core5slice5index74_$LT$impl$u20$core..ops..index..Index$LT$I$GT$$u20$for$u20$$u5b$T$u5d$$GT$5index17h7a33252506d3c20cE.exit.i", %_ZN6memchr6memmem9rabinkarp4Hash14from_bytes_rev17h6b054ec2652e250bE.exit.i
  %hash.0.i = phi i32 [ %hash.0.lcssa.i.i, %_ZN6memchr6memmem9rabinkarp4Hash14from_bytes_rev17h6b054ec2652e250bE.exit.i ], [ %47, %"_ZN4core5slice5index74_$LT$impl$u20$core..ops..index..Index$LT$I$GT$$u20$for$u20$$u5b$T$u5d$$GT$5index17h7a33252506d3c20cE.exit.i" ]
  %haystack.sroa.16.0.i = phi i64 [ %haystack.1, %_ZN6memchr6memmem9rabinkarp4Hash14from_bytes_rev17h6b054ec2652e250bE.exit.i ], [ %_42.i, %"_ZN4core5slice5index74_$LT$impl$u20$core..ops..index..Index$LT$I$GT$$u20$for$u20$$u5b$T$u5d$$GT$5index17h7a33252506d3c20cE.exit.i" ]
  %41 = icmp eq i32 %.sroa.0.0.i1519, %hash.0.i
  br i1 %41, label %bb7.i, label %bb12.i

bb7.i:                                            ; preds = %bb5.i3
; call memchr::memmem::rabinkarp::is_suffix
  %_24.i = tail call fastcc zeroext i1 @_ZN6memchr6memmem9rabinkarp9is_suffix17hf2646f43626eea64E([0 x i8]* noalias nonnull readonly align 1 %haystack.0, i64 %haystack.sroa.16.0.i, [0 x i8]* noalias nonnull readonly align 1 %needle.0, i64 %needle.1), !noalias !112
  br i1 %_24.i, label %bb11.i4, label %bb12.i

bb12.i:                                           ; preds = %bb7.i, %bb5.i3
  %_32.not.i = icmp ugt i64 %haystack.sroa.16.0.i, %needle.1
  br i1 %_32.not.i, label %bb14.i, label %_ZN6memchr6memmem9rabinkarp10rfind_with17h942bd5e0d52fd60dE.exit

bb11.i4:                                          ; preds = %bb7.i
  %_27.i = sub i64 %haystack.sroa.16.0.i, %needle.1
  br label %_ZN6memchr6memmem9rabinkarp10rfind_with17h942bd5e0d52fd60dE.exit

bb14.i:                                           ; preds = %bb12.i
  %_42.i = add i64 %haystack.sroa.16.0.i, -1
  %_48.i = add i64 %haystack.sroa.16.0.i, %40
  %_55.i = icmp ult i64 %_48.i, %haystack.sroa.16.0.i
  br i1 %_55.i, label %"_ZN4core5slice5index74_$LT$impl$u20$core..ops..index..Index$LT$I$GT$$u20$for$u20$$u5b$T$u5d$$GT$5index17h7a33252506d3c20cE.exit.i", label %panic1.i, !prof !60

"_ZN4core5slice5index74_$LT$impl$u20$core..ops..index..Index$LT$I$GT$$u20$for$u20$$u5b$T$u5d$$GT$5index17h7a33252506d3c20cE.exit.i": ; preds = %bb14.i
  %42 = getelementptr inbounds [0 x i8], [0 x i8]* %haystack.0, i64 0, i64 %_42.i
  %_41.i = load i8, i8* %42, align 1, !alias.scope !113, !noalias !108
  %_8.i.i.i = zext i8 %_41.i to i32
  %43 = mul i32 %.sroa.3.0.i1420, %_8.i.i.i
  %44 = sub i32 %hash.0.i, %43
  %45 = shl i32 %44, 1
  %46 = getelementptr inbounds [0 x i8], [0 x i8]* %haystack.0, i64 0, i64 %_48.i
  %_47.i = load i8, i8* %46, align 1, !alias.scope !113, !noalias !108
  %_6.i1.i.i = zext i8 %_47.i to i32
  %47 = add i32 %45, %_6.i1.i.i
  br label %bb5.i3

panic1.i:                                         ; preds = %bb14.i
; call core::panicking::panic_bounds_check
  tail call void @_ZN4core9panicking18panic_bounds_check17h12b597476ba48ffaE(i64 %_48.i, i64 %haystack.sroa.16.0.i, %"core::panic::location::Location"* noalias readonly align 8 dereferenceable(24) bitcast (<{ i8*, [16 x i8] }>* @alloc1077 to %"core::panic::location::Location"*)) #22, !noalias !108
  unreachable

_ZN6memchr6memmem9rabinkarp10rfind_with17h942bd5e0d52fd60dE.exit: ; preds = %bb12.i, %_ZN6memchr6memmem9rabinkarp10NeedleHash7reverse17h674d934cae15d5c5E.exit.thread, %_ZN6memchr6memmem9rabinkarp10NeedleHash7reverse17h674d934cae15d5c5E.exit, %bb11.i4
  %.sroa.4.0.i = phi i64 [ undef, %_ZN6memchr6memmem9rabinkarp10NeedleHash7reverse17h674d934cae15d5c5E.exit ], [ %_27.i, %bb11.i4 ], [ undef, %_ZN6memchr6memmem9rabinkarp10NeedleHash7reverse17h674d934cae15d5c5E.exit.thread ], [ undef, %bb12.i ]
  %.sroa.0.0.i2 = phi i64 [ 0, %_ZN6memchr6memmem9rabinkarp10NeedleHash7reverse17h674d934cae15d5c5E.exit ], [ 1, %bb11.i4 ], [ 0, %_ZN6memchr6memmem9rabinkarp10NeedleHash7reverse17h674d934cae15d5c5E.exit.thread ], [ 0, %bb12.i ]
  %48 = insertvalue { i64, i64 } undef, i64 %.sroa.0.0.i2, 0
  %49 = insertvalue { i64, i64 } %48, i64 %.sroa.4.0.i, 1
  ret { i64, i64 } %49
}

; memchr::memmem::rabinkarp::rfind_with
; Function Attrs: nonlazybind uwtable
define { i64, i64 } @_ZN6memchr6memmem9rabinkarp10rfind_with17h942bd5e0d52fd60dE({ i32, i32 }* noalias nocapture readonly align 4 dereferenceable(8) %0, [0 x i8]* noalias nonnull readonly align 1 %1, i64 %2, [0 x i8]* noalias nocapture nonnull readonly align 1 %needle.0, i64 %needle.1) unnamed_addr #6 {
start:
  %_4 = icmp ult i64 %2, %needle.1
  br i1 %_4, label %bb20, label %"_ZN4core5slice5index74_$LT$impl$u20$core..ops..index..Index$LT$I$GT$$u20$for$u20$$u5b$T$u5d$$GT$5index17h0e07b64f0105e7faE.exit"

"_ZN4core5slice5index74_$LT$impl$u20$core..ops..index..Index$LT$I$GT$$u20$for$u20$$u5b$T$u5d$$GT$5index17h0e07b64f0105e7faE.exit": ; preds = %start
  %_12.i.i9.i = icmp eq i64 %needle.1, 0
  br i1 %_12.i.i9.i, label %_ZN6memchr6memmem9rabinkarp4Hash14from_bytes_rev17h6b054ec2652e250bE.exit, label %bb7.preheader.i

bb7.preheader.i:                                  ; preds = %"_ZN4core5slice5index74_$LT$impl$u20$core..ops..index..Index$LT$I$GT$$u20$for$u20$$u5b$T$u5d$$GT$5index17h0e07b64f0105e7faE.exit"
  %3 = getelementptr inbounds [0 x i8], [0 x i8]* %1, i64 0, i64 %2
  %4 = add i64 %needle.1, -1
  %xtraiter = and i64 %needle.1, 7
  %5 = icmp ult i64 %4, 7
  br i1 %5, label %_ZN6memchr6memmem9rabinkarp4Hash14from_bytes_rev17h6b054ec2652e250bE.exit.loopexit.unr-lcssa, label %bb7.preheader.i.new

bb7.preheader.i.new:                              ; preds = %bb7.preheader.i
  %unroll_iter = and i64 %needle.1, -8
  br label %bb7.i

bb7.i:                                            ; preds = %bb7.i, %bb7.preheader.i.new
  %hash.011.i = phi i32 [ 0, %bb7.preheader.i.new ], [ %29, %bb7.i ]
  %iter.sroa.4.010.i = phi i8* [ %3, %bb7.preheader.i.new ], [ %27, %bb7.i ]
  %niter = phi i64 [ %unroll_iter, %bb7.preheader.i.new ], [ %niter.nsub.7, %bb7.i ]
  %6 = getelementptr inbounds i8, i8* %iter.sroa.4.010.i, i64 -1
  %b.i = load i8, i8* %6, align 1, !alias.scope !114
  %7 = shl i32 %hash.011.i, 1
  %_6.i.i = zext i8 %b.i to i32
  %8 = add i32 %7, %_6.i.i
  %9 = getelementptr inbounds i8, i8* %iter.sroa.4.010.i, i64 -2
  %b.i.1 = load i8, i8* %9, align 1, !alias.scope !114
  %10 = shl i32 %8, 1
  %_6.i.i.1 = zext i8 %b.i.1 to i32
  %11 = add i32 %10, %_6.i.i.1
  %12 = getelementptr inbounds i8, i8* %iter.sroa.4.010.i, i64 -3
  %b.i.2 = load i8, i8* %12, align 1, !alias.scope !114
  %13 = shl i32 %11, 1
  %_6.i.i.2 = zext i8 %b.i.2 to i32
  %14 = add i32 %13, %_6.i.i.2
  %15 = getelementptr inbounds i8, i8* %iter.sroa.4.010.i, i64 -4
  %b.i.3 = load i8, i8* %15, align 1, !alias.scope !114
  %16 = shl i32 %14, 1
  %_6.i.i.3 = zext i8 %b.i.3 to i32
  %17 = add i32 %16, %_6.i.i.3
  %18 = getelementptr inbounds i8, i8* %iter.sroa.4.010.i, i64 -5
  %b.i.4 = load i8, i8* %18, align 1, !alias.scope !114
  %19 = shl i32 %17, 1
  %_6.i.i.4 = zext i8 %b.i.4 to i32
  %20 = add i32 %19, %_6.i.i.4
  %21 = getelementptr inbounds i8, i8* %iter.sroa.4.010.i, i64 -6
  %b.i.5 = load i8, i8* %21, align 1, !alias.scope !114
  %22 = shl i32 %20, 1
  %_6.i.i.5 = zext i8 %b.i.5 to i32
  %23 = add i32 %22, %_6.i.i.5
  %24 = getelementptr inbounds i8, i8* %iter.sroa.4.010.i, i64 -7
  %b.i.6 = load i8, i8* %24, align 1, !alias.scope !114
  %25 = shl i32 %23, 1
  %_6.i.i.6 = zext i8 %b.i.6 to i32
  %26 = add i32 %25, %_6.i.i.6
  %27 = getelementptr inbounds i8, i8* %iter.sroa.4.010.i, i64 -8
  %b.i.7 = load i8, i8* %27, align 1, !alias.scope !114
  %28 = shl i32 %26, 1
  %_6.i.i.7 = zext i8 %b.i.7 to i32
  %29 = add i32 %28, %_6.i.i.7
  %niter.nsub.7 = add i64 %niter, -8
  %niter.ncmp.7 = icmp eq i64 %niter.nsub.7, 0
  br i1 %niter.ncmp.7, label %_ZN6memchr6memmem9rabinkarp4Hash14from_bytes_rev17h6b054ec2652e250bE.exit.loopexit.unr-lcssa, label %bb7.i

_ZN6memchr6memmem9rabinkarp4Hash14from_bytes_rev17h6b054ec2652e250bE.exit.loopexit.unr-lcssa: ; preds = %bb7.i, %bb7.preheader.i
  %.lcssa.ph = phi i32 [ undef, %bb7.preheader.i ], [ %29, %bb7.i ]
  %hash.011.i.unr = phi i32 [ 0, %bb7.preheader.i ], [ %29, %bb7.i ]
  %iter.sroa.4.010.i.unr = phi i8* [ %3, %bb7.preheader.i ], [ %27, %bb7.i ]
  %lcmp.mod.not = icmp eq i64 %xtraiter, 0
  br i1 %lcmp.mod.not, label %_ZN6memchr6memmem9rabinkarp4Hash14from_bytes_rev17h6b054ec2652e250bE.exit, label %bb7.i.epil

bb7.i.epil:                                       ; preds = %_ZN6memchr6memmem9rabinkarp4Hash14from_bytes_rev17h6b054ec2652e250bE.exit.loopexit.unr-lcssa, %bb7.i.epil
  %hash.011.i.epil = phi i32 [ %32, %bb7.i.epil ], [ %hash.011.i.unr, %_ZN6memchr6memmem9rabinkarp4Hash14from_bytes_rev17h6b054ec2652e250bE.exit.loopexit.unr-lcssa ]
  %iter.sroa.4.010.i.epil = phi i8* [ %30, %bb7.i.epil ], [ %iter.sroa.4.010.i.unr, %_ZN6memchr6memmem9rabinkarp4Hash14from_bytes_rev17h6b054ec2652e250bE.exit.loopexit.unr-lcssa ]
  %epil.iter = phi i64 [ %epil.iter.sub, %bb7.i.epil ], [ %xtraiter, %_ZN6memchr6memmem9rabinkarp4Hash14from_bytes_rev17h6b054ec2652e250bE.exit.loopexit.unr-lcssa ]
  %30 = getelementptr inbounds i8, i8* %iter.sroa.4.010.i.epil, i64 -1
  %b.i.epil = load i8, i8* %30, align 1, !alias.scope !114
  %31 = shl i32 %hash.011.i.epil, 1
  %_6.i.i.epil = zext i8 %b.i.epil to i32
  %32 = add i32 %31, %_6.i.i.epil
  %epil.iter.sub = add i64 %epil.iter, -1
  %epil.iter.cmp.not = icmp eq i64 %epil.iter.sub, 0
  br i1 %epil.iter.cmp.not, label %_ZN6memchr6memmem9rabinkarp4Hash14from_bytes_rev17h6b054ec2652e250bE.exit, label %bb7.i.epil, !llvm.loop !117

_ZN6memchr6memmem9rabinkarp4Hash14from_bytes_rev17h6b054ec2652e250bE.exit: ; preds = %_ZN6memchr6memmem9rabinkarp4Hash14from_bytes_rev17h6b054ec2652e250bE.exit.loopexit.unr-lcssa, %bb7.i.epil, %"_ZN4core5slice5index74_$LT$impl$u20$core..ops..index..Index$LT$I$GT$$u20$for$u20$$u5b$T$u5d$$GT$5index17h0e07b64f0105e7faE.exit"
  %hash.0.lcssa.i = phi i32 [ 0, %"_ZN4core5slice5index74_$LT$impl$u20$core..ops..index..Index$LT$I$GT$$u20$for$u20$$u5b$T$u5d$$GT$5index17h0e07b64f0105e7faE.exit" ], [ %.lcssa.ph, %_ZN6memchr6memmem9rabinkarp4Hash14from_bytes_rev17h6b054ec2652e250bE.exit.loopexit.unr-lcssa ], [ %32, %bb7.i.epil ]
  %.idx = getelementptr { i32, i32 }, { i32, i32 }* %0, i64 0, i32 0
  %.idx.val = load i32, i32* %.idx, align 4
  %33 = xor i64 %needle.1, -1
  %.idx20 = getelementptr { i32, i32 }, { i32, i32 }* %0, i64 0, i32 1
  %.idx20.val = load i32, i32* %.idx20, align 4
  br label %bb5

bb20:                                             ; preds = %bb12, %bb11, %start
  %.sroa.4.0 = phi i64 [ undef, %start ], [ %_27, %bb11 ], [ undef, %bb12 ]
  %.sroa.0.0 = phi i64 [ 0, %start ], [ 1, %bb11 ], [ 0, %bb12 ]
  %34 = insertvalue { i64, i64 } undef, i64 %.sroa.0.0, 0
  %35 = insertvalue { i64, i64 } %34, i64 %.sroa.4.0, 1
  ret { i64, i64 } %35

bb5:                                              ; preds = %"_ZN4core5slice5index74_$LT$impl$u20$core..ops..index..Index$LT$I$GT$$u20$for$u20$$u5b$T$u5d$$GT$5index17h7a33252506d3c20cE.exit", %_ZN6memchr6memmem9rabinkarp4Hash14from_bytes_rev17h6b054ec2652e250bE.exit
  %hash.0 = phi i32 [ %hash.0.lcssa.i, %_ZN6memchr6memmem9rabinkarp4Hash14from_bytes_rev17h6b054ec2652e250bE.exit ], [ %42, %"_ZN4core5slice5index74_$LT$impl$u20$core..ops..index..Index$LT$I$GT$$u20$for$u20$$u5b$T$u5d$$GT$5index17h7a33252506d3c20cE.exit" ]
  %haystack.sroa.16.0 = phi i64 [ %2, %_ZN6memchr6memmem9rabinkarp4Hash14from_bytes_rev17h6b054ec2652e250bE.exit ], [ %_42, %"_ZN4core5slice5index74_$LT$impl$u20$core..ops..index..Index$LT$I$GT$$u20$for$u20$$u5b$T$u5d$$GT$5index17h7a33252506d3c20cE.exit" ]
  %36 = icmp eq i32 %.idx.val, %hash.0
  br i1 %36, label %bb7, label %bb12

bb7:                                              ; preds = %bb5
; call memchr::memmem::rabinkarp::is_suffix
  %_24 = tail call fastcc zeroext i1 @_ZN6memchr6memmem9rabinkarp9is_suffix17hf2646f43626eea64E([0 x i8]* noalias nonnull readonly align 1 %1, i64 %haystack.sroa.16.0, [0 x i8]* noalias nonnull readonly align 1 %needle.0, i64 %needle.1)
  br i1 %_24, label %bb11, label %bb12

bb12:                                             ; preds = %bb5, %bb7
  %_32.not = icmp ugt i64 %haystack.sroa.16.0, %needle.1
  br i1 %_32.not, label %bb14, label %bb20

bb11:                                             ; preds = %bb7
  %_27 = sub i64 %haystack.sroa.16.0, %needle.1
  br label %bb20

bb14:                                             ; preds = %bb12
  %_42 = add i64 %haystack.sroa.16.0, -1
  %_48 = add i64 %haystack.sroa.16.0, %33
  %_55 = icmp ult i64 %_48, %haystack.sroa.16.0
  br i1 %_55, label %"_ZN4core5slice5index74_$LT$impl$u20$core..ops..index..Index$LT$I$GT$$u20$for$u20$$u5b$T$u5d$$GT$5index17h7a33252506d3c20cE.exit", label %panic1, !prof !60

"_ZN4core5slice5index74_$LT$impl$u20$core..ops..index..Index$LT$I$GT$$u20$for$u20$$u5b$T$u5d$$GT$5index17h7a33252506d3c20cE.exit": ; preds = %bb14
  %37 = getelementptr inbounds [0 x i8], [0 x i8]* %1, i64 0, i64 %_42
  %_41 = load i8, i8* %37, align 1
  %_8.i.i = zext i8 %_41 to i32
  %38 = mul i32 %.idx20.val, %_8.i.i
  %39 = sub i32 %hash.0, %38
  %40 = shl i32 %39, 1
  %41 = getelementptr inbounds [0 x i8], [0 x i8]* %1, i64 0, i64 %_48
  %_47 = load i8, i8* %41, align 1
  %_6.i1.i = zext i8 %_47 to i32
  %42 = add i32 %40, %_6.i1.i
  br label %bb5

panic1:                                           ; preds = %bb14
; call core::panicking::panic_bounds_check
  tail call void @_ZN4core9panicking18panic_bounds_check17h12b597476ba48ffaE(i64 %_48, i64 %haystack.sroa.16.0, %"core::panic::location::Location"* noalias readonly align 8 dereferenceable(24) bitcast (<{ i8*, [16 x i8] }>* @alloc1077 to %"core::panic::location::Location"*)) #22
  unreachable
}

; memchr::memmem::rabinkarp::is_prefix
; Function Attrs: cold nofree noinline nosync nounwind nonlazybind uwtable
define internal fastcc zeroext i1 @_ZN6memchr6memmem9rabinkarp9is_prefix17h9e377cf0e3b7406bE([0 x i8]* noalias nonnull readonly align 1 %haystack.0, i64 %haystack.1, [0 x i8]* noalias nocapture nonnull readonly align 1 %needle.0, i64 %needle.1) unnamed_addr #8 personality i32 (...)* @rust_eh_personality {
start:
  tail call void @llvm.experimental.noalias.scope.decl(metadata !118)
  tail call void @llvm.experimental.noalias.scope.decl(metadata !121)
  %_3.not.i = icmp ugt i64 %needle.1, %haystack.1
  br i1 %_3.not.i, label %_ZN6memchr6memmem4util9is_prefix17h828bde7971b5188eE.exit, label %bb2.i.i

bb2.i.i:                                          ; preds = %start
  tail call void @llvm.experimental.noalias.scope.decl(metadata !123)
  tail call void @llvm.experimental.noalias.scope.decl(metadata !126)
  %_8.i.i = icmp ult i64 %needle.1, 4
  br i1 %_8.i.i, label %bb7.i.i, label %bb14.i.i

bb14.i.i:                                         ; preds = %bb2.i.i
  %_38.i.i = add i64 %needle.1, -4
  %0 = getelementptr inbounds [0 x i8], [0 x i8]* %haystack.0, i64 0, i64 %_38.i.i
  %1 = getelementptr inbounds [0 x i8], [0 x i8]* %needle.0, i64 0, i64 %_38.i.i
  %_4671.i.i = icmp sgt i64 %_38.i.i, 0
  br i1 %_4671.i.i, label %bb20.preheader.i.i, label %bb27.i.i

bb20.preheader.i.i:                               ; preds = %bb14.i.i
  %2 = getelementptr [0 x i8], [0 x i8]* %needle.0, i64 0, i64 0
  %3 = getelementptr [0 x i8], [0 x i8]* %haystack.0, i64 0, i64 0
  br label %bb20.i.i

bb7.i.i:                                          ; preds = %bb2.i.i
  %exitcond.not.i.i = icmp eq i64 %needle.1, 0
  br i1 %exitcond.not.i.i, label %_ZN6memchr6memmem4util9is_prefix17h828bde7971b5188eE.exit, label %bb9.i.i

bb9.i.i:                                          ; preds = %bb7.i.i
  %4 = getelementptr inbounds [0 x i8], [0 x i8]* %needle.0, i64 0, i64 0
  %5 = getelementptr inbounds [0 x i8], [0 x i8]* %haystack.0, i64 0, i64 0
  %b1.i.i = load i8, i8* %5, align 1, !alias.scope !128, !noalias !129
  %b2.i.i = load i8, i8* %4, align 1, !alias.scope !129, !noalias !128
  %_23.not.i.i = icmp eq i8 %b1.i.i, %b2.i.i
  br i1 %_23.not.i.i, label %bb7.i.i.1, label %_ZN6memchr6memmem4util9is_prefix17h828bde7971b5188eE.exit

bb27.i.i:                                         ; preds = %bb24.i.i, %bb14.i.i
  %_63.i.i = bitcast i8* %0 to i32*
  %_63.val.i.i = load i32, i32* %_63.i.i, align 1, !alias.scope !128, !noalias !129
  %_66.i.i = bitcast i8* %1 to i32*
  %_66.val.i.i = load i32, i32* %_66.i.i, align 1, !alias.scope !129, !noalias !128
  %6 = icmp eq i32 %_63.val.i.i, %_66.val.i.i
  br label %_ZN6memchr6memmem4util9is_prefix17h828bde7971b5188eE.exit

bb20.i.i:                                         ; preds = %bb24.i.i, %bb20.preheader.i.i
  %py.073.i.i = phi i8* [ %8, %bb24.i.i ], [ %2, %bb20.preheader.i.i ]
  %px.072.i.i = phi i8* [ %7, %bb24.i.i ], [ %3, %bb20.preheader.i.i ]
  %_50.i.i = bitcast i8* %px.072.i.i to i32*
  %_50.val.i.i = load i32, i32* %_50.i.i, align 1, !alias.scope !128, !noalias !129
  %_53.i.i = bitcast i8* %py.073.i.i to i32*
  %_53.val.i.i = load i32, i32* %_53.i.i, align 1, !alias.scope !129, !noalias !128
  %_55.not.i.i = icmp eq i32 %_50.val.i.i, %_53.val.i.i
  br i1 %_55.not.i.i, label %bb24.i.i, label %_ZN6memchr6memmem4util9is_prefix17h828bde7971b5188eE.exit

bb24.i.i:                                         ; preds = %bb20.i.i
  %7 = getelementptr inbounds i8, i8* %px.072.i.i, i64 4
  %8 = getelementptr inbounds i8, i8* %py.073.i.i, i64 4
  %_46.i.i = icmp ult i8* %7, %0
  br i1 %_46.i.i, label %bb20.i.i, label %bb27.i.i

_ZN6memchr6memmem4util9is_prefix17h828bde7971b5188eE.exit: ; preds = %bb9.i.i.2, %bb20.i.i, %bb7.i.i, %bb9.i.i, %bb7.i.i.1, %bb9.i.i.1, %bb7.i.i.2, %start, %bb27.i.i
  %.0.i = phi i1 [ false, %start ], [ %6, %bb27.i.i ], [ %exitcond.not.i.i, %bb9.i.i ], [ %exitcond.not.i.i, %bb7.i.i ], [ %exitcond.not.i.i.1, %bb7.i.i.1 ], [ %exitcond.not.i.i.1, %bb9.i.i.1 ], [ %exitcond.not.i.i.2, %bb7.i.i.2 ], [ false, %bb20.i.i ], [ %spec.select, %bb9.i.i.2 ]
  ret i1 %.0.i

bb7.i.i.1:                                        ; preds = %bb9.i.i
  %exitcond.not.i.i.1 = icmp eq i64 %needle.1, 1
  br i1 %exitcond.not.i.i.1, label %_ZN6memchr6memmem4util9is_prefix17h828bde7971b5188eE.exit, label %bb9.i.i.1

bb9.i.i.1:                                        ; preds = %bb7.i.i.1
  %9 = getelementptr inbounds [0 x i8], [0 x i8]* %needle.0, i64 0, i64 1
  %10 = getelementptr inbounds [0 x i8], [0 x i8]* %haystack.0, i64 0, i64 1
  %b1.i.i.1 = load i8, i8* %10, align 1, !alias.scope !128, !noalias !129
  %b2.i.i.1 = load i8, i8* %9, align 1, !alias.scope !129, !noalias !128
  %_23.not.i.i.1 = icmp eq i8 %b1.i.i.1, %b2.i.i.1
  br i1 %_23.not.i.i.1, label %bb7.i.i.2, label %_ZN6memchr6memmem4util9is_prefix17h828bde7971b5188eE.exit

bb7.i.i.2:                                        ; preds = %bb9.i.i.1
  %exitcond.not.i.i.2 = icmp eq i64 %needle.1, 2
  br i1 %exitcond.not.i.i.2, label %_ZN6memchr6memmem4util9is_prefix17h828bde7971b5188eE.exit, label %bb9.i.i.2

bb9.i.i.2:                                        ; preds = %bb7.i.i.2
  %11 = getelementptr inbounds [0 x i8], [0 x i8]* %needle.0, i64 0, i64 2
  %12 = getelementptr inbounds [0 x i8], [0 x i8]* %haystack.0, i64 0, i64 2
  %b1.i.i.2 = load i8, i8* %12, align 1, !alias.scope !128, !noalias !129
  %b2.i.i.2 = load i8, i8* %11, align 1, !alias.scope !129, !noalias !128
  %_23.not.i.i.2 = icmp eq i8 %b1.i.i.2, %b2.i.i.2
  %exitcond.not.i.i.3 = icmp eq i64 %needle.1, 3
  %spec.select = select i1 %_23.not.i.i.2, i1 %exitcond.not.i.i.3, i1 %exitcond.not.i.i.2
  br label %_ZN6memchr6memmem4util9is_prefix17h828bde7971b5188eE.exit
}

; memchr::memmem::rabinkarp::is_suffix
; Function Attrs: cold nofree noinline nosync nounwind nonlazybind uwtable
define internal fastcc zeroext i1 @_ZN6memchr6memmem9rabinkarp9is_suffix17hf2646f43626eea64E([0 x i8]* noalias nonnull readonly align 1 %haystack.0, i64 %haystack.1, [0 x i8]* noalias nocapture nonnull readonly align 1 %needle.0, i64 %needle.1) unnamed_addr #8 personality i32 (...)* @rust_eh_personality {
start:
  tail call void @llvm.experimental.noalias.scope.decl(metadata !130)
  tail call void @llvm.experimental.noalias.scope.decl(metadata !133)
  %_3.not.i = icmp ult i64 %haystack.1, %needle.1
  br i1 %_3.not.i, label %_ZN6memchr6memmem4util9is_suffix17h4029e7e038422ce0E.exit, label %bb2.i.i

bb2.i.i:                                          ; preds = %start
  %_14.i = sub i64 %haystack.1, %needle.1
  %0 = getelementptr inbounds [0 x i8], [0 x i8]* %haystack.0, i64 0, i64 %_14.i
  tail call void @llvm.experimental.noalias.scope.decl(metadata !135)
  tail call void @llvm.experimental.noalias.scope.decl(metadata !138)
  %_8.i.i = icmp ult i64 %needle.1, 4
  br i1 %_8.i.i, label %bb7.i.i, label %bb14.i.i

bb14.i.i:                                         ; preds = %bb2.i.i
  %_38.i.i = add i64 %needle.1, -4
  %1 = getelementptr inbounds i8, i8* %0, i64 %_38.i.i
  %2 = getelementptr inbounds [0 x i8], [0 x i8]* %needle.0, i64 0, i64 %_38.i.i
  %_4671.i.i = icmp sgt i64 %_38.i.i, 0
  br i1 %_4671.i.i, label %bb20.preheader.i.i, label %bb27.i.i

bb20.preheader.i.i:                               ; preds = %bb14.i.i
  %3 = getelementptr [0 x i8], [0 x i8]* %needle.0, i64 0, i64 0
  br label %bb20.i.i

bb7.i.i:                                          ; preds = %bb2.i.i
  %exitcond.not.i.i = icmp eq i64 %needle.1, 0
  br i1 %exitcond.not.i.i, label %_ZN6memchr6memmem4util9is_suffix17h4029e7e038422ce0E.exit, label %bb9.i.i

bb9.i.i:                                          ; preds = %bb7.i.i
  %4 = getelementptr inbounds [0 x i8], [0 x i8]* %needle.0, i64 0, i64 0
  %b1.i.i = load i8, i8* %0, align 1, !alias.scope !140, !noalias !141
  %b2.i.i = load i8, i8* %4, align 1, !alias.scope !141, !noalias !140
  %_23.not.i.i = icmp eq i8 %b1.i.i, %b2.i.i
  br i1 %_23.not.i.i, label %bb7.i.i.1, label %_ZN6memchr6memmem4util9is_suffix17h4029e7e038422ce0E.exit

bb27.i.i:                                         ; preds = %bb24.i.i, %bb14.i.i
  %_63.i.i = bitcast i8* %1 to i32*
  %_63.val.i.i = load i32, i32* %_63.i.i, align 1, !alias.scope !140, !noalias !141
  %_66.i.i = bitcast i8* %2 to i32*
  %_66.val.i.i = load i32, i32* %_66.i.i, align 1, !alias.scope !141, !noalias !140
  %5 = icmp eq i32 %_63.val.i.i, %_66.val.i.i
  br label %_ZN6memchr6memmem4util9is_suffix17h4029e7e038422ce0E.exit

bb20.i.i:                                         ; preds = %bb24.i.i, %bb20.preheader.i.i
  %py.073.i.i = phi i8* [ %7, %bb24.i.i ], [ %3, %bb20.preheader.i.i ]
  %px.072.i.i = phi i8* [ %6, %bb24.i.i ], [ %0, %bb20.preheader.i.i ]
  %_50.i.i = bitcast i8* %px.072.i.i to i32*
  %_50.val.i.i = load i32, i32* %_50.i.i, align 1, !alias.scope !140, !noalias !141
  %_53.i.i = bitcast i8* %py.073.i.i to i32*
  %_53.val.i.i = load i32, i32* %_53.i.i, align 1, !alias.scope !141, !noalias !140
  %_55.not.i.i = icmp eq i32 %_50.val.i.i, %_53.val.i.i
  br i1 %_55.not.i.i, label %bb24.i.i, label %_ZN6memchr6memmem4util9is_suffix17h4029e7e038422ce0E.exit

bb24.i.i:                                         ; preds = %bb20.i.i
  %6 = getelementptr inbounds i8, i8* %px.072.i.i, i64 4
  %7 = getelementptr inbounds i8, i8* %py.073.i.i, i64 4
  %_46.i.i = icmp ult i8* %6, %1
  br i1 %_46.i.i, label %bb20.i.i, label %bb27.i.i

_ZN6memchr6memmem4util9is_suffix17h4029e7e038422ce0E.exit: ; preds = %bb9.i.i.2, %bb20.i.i, %bb7.i.i, %bb9.i.i, %bb7.i.i.1, %bb9.i.i.1, %bb7.i.i.2, %start, %bb27.i.i
  %.0.i = phi i1 [ false, %start ], [ %5, %bb27.i.i ], [ %exitcond.not.i.i, %bb9.i.i ], [ %exitcond.not.i.i, %bb7.i.i ], [ %exitcond.not.i.i.1, %bb7.i.i.1 ], [ %exitcond.not.i.i.1, %bb9.i.i.1 ], [ %exitcond.not.i.i.2, %bb7.i.i.2 ], [ false, %bb20.i.i ], [ %spec.select, %bb9.i.i.2 ]
  ret i1 %.0.i

bb7.i.i.1:                                        ; preds = %bb9.i.i
  %exitcond.not.i.i.1 = icmp eq i64 %needle.1, 1
  br i1 %exitcond.not.i.i.1, label %_ZN6memchr6memmem4util9is_suffix17h4029e7e038422ce0E.exit, label %bb9.i.i.1

bb9.i.i.1:                                        ; preds = %bb7.i.i.1
  %8 = getelementptr inbounds [0 x i8], [0 x i8]* %needle.0, i64 0, i64 1
  %9 = getelementptr inbounds i8, i8* %0, i64 1
  %b1.i.i.1 = load i8, i8* %9, align 1, !alias.scope !140, !noalias !141
  %b2.i.i.1 = load i8, i8* %8, align 1, !alias.scope !141, !noalias !140
  %_23.not.i.i.1 = icmp eq i8 %b1.i.i.1, %b2.i.i.1
  br i1 %_23.not.i.i.1, label %bb7.i.i.2, label %_ZN6memchr6memmem4util9is_suffix17h4029e7e038422ce0E.exit

bb7.i.i.2:                                        ; preds = %bb9.i.i.1
  %exitcond.not.i.i.2 = icmp eq i64 %needle.1, 2
  br i1 %exitcond.not.i.i.2, label %_ZN6memchr6memmem4util9is_suffix17h4029e7e038422ce0E.exit, label %bb9.i.i.2

bb9.i.i.2:                                        ; preds = %bb7.i.i.2
  %10 = getelementptr inbounds [0 x i8], [0 x i8]* %needle.0, i64 0, i64 2
  %11 = getelementptr inbounds i8, i8* %0, i64 2
  %b1.i.i.2 = load i8, i8* %11, align 1, !alias.scope !140, !noalias !141
  %b2.i.i.2 = load i8, i8* %10, align 1, !alias.scope !141, !noalias !140
  %_23.not.i.i.2 = icmp eq i8 %b1.i.i.2, %b2.i.i.2
  %exitcond.not.i.i.3 = icmp eq i64 %needle.1, 3
  %spec.select = select i1 %_23.not.i.i.2, i1 %exitcond.not.i.i.3, i1 %exitcond.not.i.i.2
  br label %_ZN6memchr6memmem4util9is_suffix17h4029e7e038422ce0E.exit
}

; <memchr::memmem::FindIter as core::iter::traits::iterator::Iterator>::next
; Function Attrs: nonlazybind uwtable
define { i64, i64 } @"_ZN83_$LT$memchr..memmem..FindIter$u20$as$u20$core..iter..traits..iterator..Iterator$GT$4next17h8d72297dd2eaf869E"(%"memmem::FindIter"* noalias align 8 dereferenceable(112) %self) unnamed_addr #6 personality i32 (...)* @rust_eh_personality {
start:
  %0 = getelementptr inbounds %"memmem::FindIter", %"memmem::FindIter"* %self, i64 0, i32 2
  %_3 = load i64, i64* %0, align 8
  %1 = getelementptr inbounds %"memmem::FindIter", %"memmem::FindIter"* %self, i64 0, i32 0, i32 1
  %_5.1 = load i64, i64* %1, align 8
  %_2 = icmp ult i64 %_5.1, %_3
  br i1 %_2, label %bb11, label %"_ZN4core5slice5index74_$LT$impl$u20$core..ops..index..Index$LT$I$GT$$u20$for$u20$$u5b$T$u5d$$GT$5index17h0e07b64f0105e7faE.exit"

"_ZN4core5slice5index74_$LT$impl$u20$core..ops..index..Index$LT$I$GT$$u20$for$u20$$u5b$T$u5d$$GT$5index17h0e07b64f0105e7faE.exit": ; preds = %start
  %2 = getelementptr inbounds %"memmem::FindIter", %"memmem::FindIter"* %self, i64 0, i32 0, i32 0
  %3 = getelementptr inbounds %"memmem::FindIter", %"memmem::FindIter"* %self, i64 0, i32 1
  %_7 = getelementptr %"memmem::Finder", %"memmem::Finder"* %3, i64 0, i32 0
  %_9 = getelementptr inbounds %"memmem::FindIter", %"memmem::FindIter"* %self, i64 0, i32 3
  %_13.0 = load [0 x i8]*, [0 x i8]** %2, align 8, !nonnull !142
  %4 = getelementptr inbounds [0 x i8], [0 x i8]* %_13.0, i64 0, i64 %_3
  %_7.i.i.i.i = sub i64 %_5.1, %_3
  %5 = bitcast i8* %4 to [0 x i8]*
  tail call void @llvm.experimental.noalias.scope.decl(metadata !143)
  tail call void @llvm.experimental.noalias.scope.decl(metadata !146)
  %6 = bitcast %"memmem::Finder"* %3 to [0 x i8]**
  %7 = load [0 x i8]*, [0 x i8]** %6, align 8, !alias.scope !148, !noalias !155, !nonnull !142
  %8 = getelementptr inbounds %"memmem::FindIter", %"memmem::FindIter"* %self, i64 0, i32 1, i32 0, i32 0, i32 1
  %9 = load i64, i64* %8, align 8, !alias.scope !148, !noalias !155
  %_6.i = icmp ugt i64 %9, %_7.i.i.i.i
  br i1 %_6.i, label %bb11, label %bb3.i

bb3.i:                                            ; preds = %"_ZN4core5slice5index74_$LT$impl$u20$core..ops..index..Index$LT$I$GT$$u20$for$u20$$u5b$T$u5d$$GT$5index17h0e07b64f0105e7faE.exit"
  %10 = getelementptr inbounds %"memmem::FindIter", %"memmem::FindIter"* %self, i64 0, i32 1, i32 0, i32 2, i32 0
  %11 = load i8, i8* %10, align 8, !range !157, !alias.scope !143, !noalias !155
  %_11.i = zext i8 %11 to i64
  switch i64 %_11.i, label %bb5.i [
    i64 0, label %bb5
    i64 1, label %bb7.i
    i64 2, label %bb9.i
    i64 3, label %bb16.i
    i64 4, label %bb4.i
  ]

bb5.i:                                            ; preds = %bb3.i
  unreachable

bb7.i:                                            ; preds = %bb3.i
  %12 = getelementptr inbounds %"memmem::FindIter", %"memmem::FindIter"* %self, i64 0, i32 1, i32 0, i32 2, i32 1, i64 0
  %b.i = load i8, i8* %12, align 1, !alias.scope !143, !noalias !155
  %13 = icmp eq i64 %_7.i.i.i.i, 0
  br i1 %13, label %bb11, label %bb3.i.i

bb3.i.i:                                          ; preds = %bb7.i
  %.0.vec.insert.i.i.i.i.i.i30.i = insertelement <16 x i8> undef, i8 %b.i, i32 0
  %.15.vec.insert.i.i.i.i.i.i31.i = shufflevector <16 x i8> %.0.vec.insert.i.i.i.i.i.i30.i, <16 x i8> poison, <16 x i32> zeroinitializer
  %14 = icmp ult i64 %_7.i.i.i.i, 64
  %.0.sroa.speculated.i.i.i.i.i.i.i.i = select i1 %14, i64 %_7.i.i.i.i, i64 64
  %15 = getelementptr inbounds [0 x i8], [0 x i8]* %_13.0, i64 0, i64 %_5.1
  %_17.i.i.i.i.i = icmp ult i64 %_7.i.i.i.i, 16
  br i1 %_17.i.i.i.i.i, label %bb7.i.i.i.i.i, label %bb13.i.i.i.i.i

bb13.i.i.i.i.i:                                   ; preds = %bb3.i.i
  %16 = bitcast i8* %4 to <16 x i8>*
  %.0.copyload9.i.i.i.i.i.i = load <16 x i8>, <16 x i8>* %16, align 1, !alias.scope !158, !noalias !167
  %17 = icmp eq <16 x i8> %.0.copyload9.i.i.i.i.i.i, %.15.vec.insert.i.i.i.i.i.i31.i
  %18 = bitcast <16 x i1> %17 to i16
  %19 = icmp eq i16 %18, 0
  br i1 %19, label %bb16.i.i.i.i.i, label %bb15.i.i.i.i.i

bb7.i.i.i.i.i:                                    ; preds = %bb3.i.i, %bb10.i.i.i.i32.i
  %ptr.0156.i.i.i.i.i = phi i8* [ %20, %bb10.i.i.i.i32.i ], [ %4, %bb3.i.i ]
  %_24.i.i.i.i.i = load i8, i8* %ptr.0156.i.i.i.i.i, align 1, !alias.scope !158, !noalias !167
  %_23.i.i.i.i.i = icmp eq i8 %_24.i.i.i.i.i, %b.i
  br i1 %_23.i.i.i.i.i, label %bb8.i.i.i.i.i, label %bb10.i.i.i.i32.i

bb10.i.i.i.i32.i:                                 ; preds = %bb7.i.i.i.i.i
  %20 = getelementptr inbounds i8, i8* %ptr.0156.i.i.i.i.i, i64 1
  %_20.i.i.i.i.i = icmp ult i8* %20, %15
  br i1 %_20.i.i.i.i.i, label %bb7.i.i.i.i.i, label %bb11

bb8.i.i.i.i.i:                                    ; preds = %bb7.i.i.i.i.i
  %_3.i.i.i.i.i.i = ptrtoint i8* %ptr.0156.i.i.i.i.i to i64
  %_5.i.i.i.i.i.i = ptrtoint i8* %4 to i64
  %21 = sub i64 %_3.i.i.i.i.i.i, %_5.i.i.i.i.i.i
  br label %bb5

bb15.i.i.i.i.i:                                   ; preds = %bb13.i.i.i.i.i
  %22 = tail call i16 @llvm.cttz.i16(i16 %18, i1 true) #21, !range !44
  %23 = zext i16 %22 to i64
  br label %bb5

bb16.i.i.i.i.i:                                   ; preds = %bb13.i.i.i.i.i
  %_43.i.i.i.i.i = ptrtoint i8* %4 to i64
  %_42.i.i.i.i.i = and i64 %_43.i.i.i.i.i, 15
  %_41.i.i.i.i.i = sub nuw nsw i64 16, %_42.i.i.i.i.i
  %24 = getelementptr inbounds i8, i8* %4, i64 %_41.i.i.i.i.i
  %_46.i.i.i.i.i = icmp ugt i64 %_7.i.i.i.i, 63
  %25 = getelementptr inbounds i8, i8* %15, i64 -64
  %_48144.i.i.i.i.i = icmp ule i8* %24, %25
  %or.cond145.i.i.i.i.i = select i1 %_46.i.i.i.i.i, i1 %_48144.i.i.i.i.i, i1 false
  br i1 %or.cond145.i.i.i.i.i, label %bb23.i.i.i.i.i, label %bb58.preheader.i.i.i.i.i

bb58.preheader.i.i.i.i.i:                         ; preds = %bb55.i.i.i.i.i, %bb16.i.i.i.i.i
  %ptr.1.lcssa.i.i.i.i.i = phi i8* [ %24, %bb16.i.i.i.i.i ], [ %43, %bb55.i.i.i.i.i ]
  %26 = getelementptr inbounds i8, i8* %15, i64 -16
  %_129.not152.i.i.i.i.i = icmp ugt i8* %ptr.1.lcssa.i.i.i.i.i, %26
  br i1 %_129.not152.i.i.i.i.i, label %bb65.i.i.i.i.i, label %bb60.i.i.i.i.i

bb23.i.i.i.i.i:                                   ; preds = %bb16.i.i.i.i.i, %bb55.i.i.i.i.i
  %ptr.1146.i.i.i.i.i = phi i8* [ %43, %bb55.i.i.i.i.i ], [ %24, %bb16.i.i.i.i.i ]
  %27 = bitcast i8* %ptr.1146.i.i.i.i.i to <16 x i8>*
  %_57.val133.i.i.i.i.i = load <16 x i8>, <16 x i8>* %27, align 16, !alias.scope !158, !noalias !167
  %28 = getelementptr inbounds i8, i8* %ptr.1146.i.i.i.i.i, i64 16
  %29 = bitcast i8* %28 to <16 x i8>*
  %_60.val134.i.i.i.i.i = load <16 x i8>, <16 x i8>* %29, align 16, !alias.scope !158, !noalias !167
  %30 = getelementptr inbounds i8, i8* %ptr.1146.i.i.i.i.i, i64 32
  %31 = bitcast i8* %30 to <16 x i8>*
  %_64.val135.i.i.i.i.i = load <16 x i8>, <16 x i8>* %31, align 16, !alias.scope !158, !noalias !167
  %32 = getelementptr inbounds i8, i8* %ptr.1146.i.i.i.i.i, i64 48
  %33 = bitcast i8* %32 to <16 x i8>*
  %_69.val136.i.i.i.i.i = load <16 x i8>, <16 x i8>* %33, align 16, !alias.scope !158, !noalias !167
  %34 = icmp eq <16 x i8> %.15.vec.insert.i.i.i.i.i.i31.i, %_57.val133.i.i.i.i.i
  %35 = icmp eq <16 x i8> %.15.vec.insert.i.i.i.i.i.i31.i, %_60.val134.i.i.i.i.i
  %36 = icmp eq <16 x i8> %.15.vec.insert.i.i.i.i.i.i31.i, %_64.val135.i.i.i.i.i
  %37 = icmp eq <16 x i8> %.15.vec.insert.i.i.i.i.i.i31.i, %_69.val136.i.i.i.i.i
  %38 = or <16 x i1> %35, %34
  %39 = or <16 x i1> %38, %36
  %40 = or <16 x i1> %39, %37
  %41 = bitcast <16 x i1> %40 to i16
  %42 = icmp eq i16 %41, 0
  br i1 %42, label %bb55.i.i.i.i.i, label %bb39.i.i.i.i.i

bb55.i.i.i.i.i:                                   ; preds = %bb23.i.i.i.i.i
  %43 = getelementptr inbounds i8, i8* %ptr.1146.i.i.i.i.i, i64 %.0.sroa.speculated.i.i.i.i.i.i.i.i
  %_48.not.i.i.i.i.i = icmp ugt i8* %43, %25
  br i1 %_48.not.i.i.i.i.i, label %bb58.preheader.i.i.i.i.i, label %bb23.i.i.i.i.i

bb39.i.i.i.i.i:                                   ; preds = %bb23.i.i.i.i.i
  %_3.i40.i.i.i.i.i = ptrtoint i8* %ptr.1146.i.i.i.i.i to i64
  %44 = sub i64 %_3.i40.i.i.i.i.i, %_43.i.i.i.i.i
  %45 = bitcast <16 x i1> %34 to i16
  %46 = icmp eq i16 %45, 0
  br i1 %46, label %bb44.i.i.i.i.i, label %bb42.i.i.i.i.i

bb44.i.i.i.i.i:                                   ; preds = %bb39.i.i.i.i.i
  %47 = bitcast <16 x i1> %35 to i16
  %48 = icmp eq i16 %47, 0
  br i1 %48, label %bb48.i.i.i.i.i, label %bb46.i.i.i.i.i

bb42.i.i.i.i.i:                                   ; preds = %bb39.i.i.i.i.i
  %49 = tail call i16 @llvm.cttz.i16(i16 %45, i1 true) #21, !range !44
  %50 = zext i16 %49 to i64
  %_102.i.i.i.i.i = add i64 %44, %50
  br label %bb5

bb48.i.i.i.i.i:                                   ; preds = %bb44.i.i.i.i.i
  %51 = bitcast <16 x i1> %36 to i16
  %52 = icmp eq i16 %51, 0
  br i1 %52, label %bb52.i.i.i.i.i, label %bb50.i.i.i.i.i

bb46.i.i.i.i.i:                                   ; preds = %bb44.i.i.i.i.i
  %53 = add i64 %44, 16
  %54 = tail call i16 @llvm.cttz.i16(i16 %47, i1 true) #21, !range !44
  %55 = zext i16 %54 to i64
  %_109.i.i.i.i.i = add i64 %53, %55
  br label %bb5

bb52.i.i.i.i.i:                                   ; preds = %bb48.i.i.i.i.i
  %56 = add i64 %44, 48
  %57 = bitcast <16 x i1> %37 to i16
  %58 = zext i16 %57 to i32
  %59 = tail call i32 @llvm.cttz.i32(i32 %58, i1 false) #21, !range !45
  %60 = zext i32 %59 to i64
  %_122.i.i.i.i.i = add i64 %56, %60
  br label %bb5

bb50.i.i.i.i.i:                                   ; preds = %bb48.i.i.i.i.i
  %61 = add i64 %44, 32
  %62 = tail call i16 @llvm.cttz.i16(i16 %51, i1 true) #21, !range !44
  %63 = zext i16 %62 to i64
  %_116.i.i.i.i.i = add i64 %61, %63
  br label %bb5

bb65.i.i.i.i.i:                                   ; preds = %bb63.i.i.i.i.i, %bb58.preheader.i.i.i.i.i
  %ptr.2.lcssa.i.i.i.i.i = phi i8* [ %ptr.1.lcssa.i.i.i.i.i, %bb58.preheader.i.i.i.i.i ], [ %71, %bb63.i.i.i.i.i ]
  %_143.i.i.i.i.i = icmp ult i8* %ptr.2.lcssa.i.i.i.i.i, %15
  br i1 %_143.i.i.i.i.i, label %bb66.i.i.i.i.i, label %bb11

bb60.i.i.i.i.i:                                   ; preds = %bb58.preheader.i.i.i.i.i, %bb63.i.i.i.i.i
  %ptr.2153.i.i.i.i.i = phi i8* [ %71, %bb63.i.i.i.i.i ], [ %ptr.1.lcssa.i.i.i.i.i, %bb58.preheader.i.i.i.i.i ]
  %64 = bitcast i8* %ptr.2153.i.i.i.i.i to <16 x i8>*
  %.0.copyload9.i46.i.i.i.i.i = load <16 x i8>, <16 x i8>* %64, align 1, !alias.scope !158, !noalias !167
  %65 = icmp eq <16 x i8> %.0.copyload9.i46.i.i.i.i.i, %.15.vec.insert.i.i.i.i.i.i31.i
  %66 = bitcast <16 x i1> %65 to i16
  %67 = icmp eq i16 %66, 0
  br i1 %67, label %bb63.i.i.i.i.i, label %bb62.i.i.i.i.i

bb62.i.i.i.i.i:                                   ; preds = %bb60.i.i.i.i.i
  %_3.i.i47.i.i.i.i.i = ptrtoint i8* %ptr.2153.i.i.i.i.i to i64
  %68 = sub i64 %_3.i.i47.i.i.i.i.i, %_43.i.i.i.i.i
  %69 = tail call i16 @llvm.cttz.i16(i16 %66, i1 true) #21, !range !44
  %70 = zext i16 %69 to i64
  %_13.i.i.i.i.i.i = add i64 %68, %70
  br label %bb5

bb63.i.i.i.i.i:                                   ; preds = %bb60.i.i.i.i.i
  %71 = getelementptr inbounds i8, i8* %ptr.2153.i.i.i.i.i, i64 16
  %_129.not.i.i.i.i.i = icmp ugt i8* %71, %26
  br i1 %_129.not.i.i.i.i.i, label %bb65.i.i.i.i.i, label %bb60.i.i.i.i.i

bb66.i.i.i.i.i:                                   ; preds = %bb65.i.i.i.i.i
  %_3.i53.i.i.i.i.i = ptrtoint i8* %15 to i64
  %_5.i54.i.i.i.i.i = ptrtoint i8* %ptr.2.lcssa.i.i.i.i.i to i64
  %.neg.neg.i.i.i.i.i = add i64 %_3.i53.i.i.i.i.i, -16
  %72 = sub i64 %.neg.neg.i.i.i.i.i, %_5.i54.i.i.i.i.i
  %73 = getelementptr inbounds i8, i8* %ptr.2.lcssa.i.i.i.i.i, i64 %72
  %74 = bitcast i8* %73 to <16 x i8>*
  %.0.copyload9.i55.i.i.i.i.i = load <16 x i8>, <16 x i8>* %74, align 1, !alias.scope !158, !noalias !167
  %75 = icmp eq <16 x i8> %.0.copyload9.i55.i.i.i.i.i, %.15.vec.insert.i.i.i.i.i.i31.i
  %76 = bitcast <16 x i1> %75 to i16
  %77 = icmp eq i16 %76, 0
  br i1 %77, label %bb11, label %bb4.i59.i.i.i.i.i

bb4.i59.i.i.i.i.i:                                ; preds = %bb66.i.i.i.i.i
  %_3.i.i56.i.i.i.i.i = ptrtoint i8* %73 to i64
  %78 = sub i64 %_3.i.i56.i.i.i.i.i, %_43.i.i.i.i.i
  %79 = tail call i16 @llvm.cttz.i16(i16 %76, i1 true) #21, !range !44
  %80 = zext i16 %79 to i64
  %_13.i58.i.i.i.i.i = add i64 %78, %80
  br label %bb5

bb9.i:                                            ; preds = %bb3.i
  %81 = icmp ult i64 %_7.i.i.i.i, 16
  br i1 %81, label %"_ZN4core5slice5index74_$LT$impl$u20$core..ops..index..Index$LT$I$GT$$u20$for$u20$$u5b$T$u5d$$GT$5index17h7a33252506d3c20cE.exit.i37.i", label %_ZN6memchr6memmem8Searcher4find17h092f6099760cb5baE.exit

bb16.i:                                           ; preds = %bb3.i
  %82 = getelementptr %"memmem::FindIter", %"memmem::FindIter"* %self, i64 0, i32 1, i32 0, i32 2, i32 1, i64 1
  %.idx.val.i = load i8, i8* %82, align 2, !alias.scope !143, !noalias !155
  %_2.i.i.i = zext i8 %.idx.val.i to i64
  %83 = add nuw nsw i64 %_2.i.i.i, 16
  %_29.i = icmp ugt i64 %83, %_7.i.i.i.i
  br i1 %_29.i, label %"_ZN4core5slice5index74_$LT$impl$u20$core..ops..index..Index$LT$I$GT$$u20$for$u20$$u5b$T$u5d$$GT$5index17h7a33252506d3c20cE.exit.i.i", label %bb5.i.i.i.i

bb4.i:                                            ; preds = %bb3.i
; call core::panicking::panic
  tail call void @_ZN4core9panicking5panic17he84354dce55c9beeE([0 x i8]* noalias nonnull readonly align 1 bitcast (<{ [40 x i8] }>* @alloc1175 to [0 x i8]*), i64 40, %"core::panic::location::Location"* noalias readonly align 8 dereferenceable(24) bitcast (<{ i8*, [16 x i8] }>* @alloc1174 to %"core::panic::location::Location"*)) #22, !noalias !167
  unreachable

bb34.sink.split.i.i.i.i:                          ; preds = %bb9.i.us.i47.i.i.i.i.2, %bb2.i.i.i.i.i.i, %_ZN6memchr6memmem4util6memcmp17h219f2d59ca832512E.exit.loopexit.us.i.us.i.i.i.i, %bb7.i.us.i.us.i.i.i.i, %bb2.i.i79.i.i.i.i, %_ZN6memchr6memmem4util6memcmp17h219f2d59ca832512E.exit.loopexit.us.i71.i.i.i.i, %bb2.i.us.i40.i.i.i.i, %bb7.i.us.i43.i.i.i.i.1, %bb7.i.us.i43.i.i.i.i.2
  %.lcssa153.sink = phi i32 [ %165, %bb7.i.us.i43.i.i.i.i.2 ], [ %165, %bb7.i.us.i43.i.i.i.i.1 ], [ %165, %bb2.i.us.i40.i.i.i.i ], [ %169, %_ZN6memchr6memmem4util6memcmp17h219f2d59ca832512E.exit.loopexit.us.i71.i.i.i.i ], [ %177, %bb2.i.i79.i.i.i.i ], [ %103, %bb7.i.us.i.us.i.i.i.i ], [ %121, %_ZN6memchr6memmem4util6memcmp17h219f2d59ca832512E.exit.loopexit.us.i.us.i.i.i.i ], [ %140, %bb2.i.i.i.i.i.i ], [ %165, %bb9.i.us.i47.i.i.i.i.2 ]
  %ptr.0130.sink.i.i.i.i = phi i8* [ %88, %bb7.i.us.i43.i.i.i.i.2 ], [ %88, %bb7.i.us.i43.i.i.i.i.1 ], [ %88, %bb2.i.us.i40.i.i.i.i ], [ %88, %_ZN6memchr6memmem4util6memcmp17h219f2d59ca832512E.exit.loopexit.us.i71.i.i.i.i ], [ %88, %bb2.i.i79.i.i.i.i ], [ %ptr.0134.us.i.i.i.i, %bb7.i.us.i.us.i.i.i.i ], [ %ptr.0134.us142.i.i.i.i, %_ZN6memchr6memmem4util6memcmp17h219f2d59ca832512E.exit.loopexit.us.i.us.i.i.i.i ], [ %ptr.0134.i.i.i.i, %bb2.i.i.i.i.i.i ], [ %88, %bb9.i.us.i47.i.i.i.i.2 ]
  %offset.i.i.i.i.i.le = zext i32 %.lcssa153.sink to i64
; call memchr::memmem::genericsimd::matched
  %_58.i.i.i.i = tail call fastcc i64 @_ZN6memchr6memmem11genericsimd7matched17hf7507d2589d36674E(i8* nonnull %4, i8* nonnull %ptr.0130.sink.i.i.i.i, i64 %offset.i.i.i.i.i.le)
  br label %bb5

bb5.i.i.i.i:                                      ; preds = %bb16.i
  %.idx28.i = getelementptr inbounds %"memmem::FindIter", %"memmem::FindIter"* %self, i64 0, i32 1, i32 0, i32 2, i32 1, i64 0
  %.idx28.val.i = load i8, i8* %.idx28.i, align 1, !alias.scope !168, !noalias !173
  tail call void @llvm.experimental.noalias.scope.decl(metadata !178)
  tail call void @llvm.experimental.noalias.scope.decl(metadata !181)
  tail call void @llvm.experimental.noalias.scope.decl(metadata !183)
  tail call void @llvm.experimental.noalias.scope.decl(metadata !186)
  tail call void @llvm.experimental.noalias.scope.decl(metadata !188)
  tail call void @llvm.experimental.noalias.scope.decl(metadata !191)
  %_21.i.i.i.i = zext i8 %.idx28.val.i to i64
  %_29.i.i.i.i = icmp ugt i64 %9, %_21.i.i.i.i
  br i1 %_29.i.i.i.i, label %bb6.i.i.i.i, label %panic.i.i.i.i, !prof !60

bb6.i.i.i.i:                                      ; preds = %bb5.i.i.i.i
  %84 = getelementptr inbounds [0 x i8], [0 x i8]* %7, i64 0, i64 %_21.i.i.i.i
  %_26.i.i.i.i = load i8, i8* %84, align 1, !alias.scope !193, !noalias !194
  %.0.vec.insert.i.i.i.i.i.i.i = insertelement <16 x i8> undef, i8 %_26.i.i.i.i, i32 0
  %.15.vec.insert.i.i.i.i.i.i.i = shufflevector <16 x i8> %.0.vec.insert.i.i.i.i.i.i.i, <16 x i8> poison, <16 x i32> zeroinitializer
  %_34.i.i.i.i = icmp ugt i64 %9, %_2.i.i.i
  br i1 %_34.i.i.i.i, label %bb8.i.i.i.i, label %panic2.i.i.i.i, !prof !60

panic.i.i.i.i:                                    ; preds = %bb5.i.i.i.i
; call core::panicking::panic_bounds_check
  tail call void @_ZN4core9panicking18panic_bounds_check17h12b597476ba48ffaE(i64 %_21.i.i.i.i, i64 %9, %"core::panic::location::Location"* noalias readonly align 8 dereferenceable(24) bitcast (<{ i8*, [16 x i8] }>* @alloc1049 to %"core::panic::location::Location"*)) #22, !noalias !197
  unreachable

bb8.i.i.i.i:                                      ; preds = %bb6.i.i.i.i
  %85 = getelementptr inbounds [0 x i8], [0 x i8]* %7, i64 0, i64 %_2.i.i.i
  %_31.i.i.i.i = load i8, i8* %85, align 1, !alias.scope !193, !noalias !194
  %.0.vec.insert.i.i.i25.i.i.i.i = insertelement <16 x i8> undef, i8 %_31.i.i.i.i, i32 0
  %.15.vec.insert.i.i.i26.i.i.i.i = shufflevector <16 x i8> %.0.vec.insert.i.i.i25.i.i.i.i, <16 x i8> poison, <16 x i32> zeroinitializer
  %86 = getelementptr inbounds [0 x i8], [0 x i8]* %_13.0, i64 0, i64 %_5.1
  %87 = sub nuw nsw i64 -16, %_2.i.i.i
  %88 = getelementptr inbounds i8, i8* %86, i64 %87
  %89 = sub i64 0, %9
  %90 = getelementptr inbounds i8, i8* %86, i64 %89
  %_38.i.i.i.i.i.i = add i64 %9, -4
  %91 = getelementptr inbounds [0 x i8], [0 x i8]* %7, i64 0, i64 %_38.i.i.i.i.i.i
  %_4671.i.i.i.i.i.i = icmp sgt i64 %_38.i.i.i.i.i.i, 0
  %92 = getelementptr [0 x i8], [0 x i8]* %7, i64 0, i64 0
  %_63.i.i.i.i.i.i = bitcast i8* %91 to i32*
  %_45.not133.i.i.i.i = icmp ugt i8* %4, %88
  br i1 %_45.not133.i.i.i.i, label %bb21.i.i.i.i, label %bb14.lr.ph.i.i.i.i

bb14.lr.ph.i.i.i.i:                               ; preds = %bb8.i.i.i.i
  %_8.i.i.i.i.i.i = icmp ult i64 %9, 4
  br i1 %_8.i.i.i.i.i.i, label %bb14.us.i.i.i.i, label %bb14.lr.ph.split.i.i.i.i

bb14.us.i.i.i.i:                                  ; preds = %bb14.lr.ph.i.i.i.i, %bb18.us.i.i.i.i
  %ptr.0134.us.i.i.i.i = phi i8* [ %110, %bb18.us.i.i.i.i ], [ %4, %bb14.lr.ph.i.i.i.i ]
  tail call void @llvm.experimental.noalias.scope.decl(metadata !198)
  %93 = getelementptr inbounds i8, i8* %ptr.0134.us.i.i.i.i, i64 %_21.i.i.i.i
  %94 = bitcast i8* %93 to <16 x i8>*
  %.0.copyload28.i.us.i.i.i.i = load <16 x i8>, <16 x i8>* %94, align 1, !alias.scope !201, !noalias !202
  %95 = getelementptr inbounds i8, i8* %ptr.0134.us.i.i.i.i, i64 %_2.i.i.i
  %96 = bitcast i8* %95 to <16 x i8>*
  %.0.copyload629.i.us.i.i.i.i = load <16 x i8>, <16 x i8>* %96, align 1, !alias.scope !201, !noalias !202
  %97 = icmp eq <16 x i8> %.0.copyload28.i.us.i.i.i.i, %.15.vec.insert.i.i.i.i.i.i.i
  %98 = icmp eq <16 x i8> %.0.copyload629.i.us.i.i.i.i, %.15.vec.insert.i.i.i26.i.i.i.i
  %99 = and <16 x i1> %98, %97
  %100 = bitcast <16 x i1> %99 to i16
  %101 = icmp eq i16 %100, 0
  br i1 %101, label %bb18.us.i.i.i.i, label %bb10.us.i.us.preheader.i.i.i.i

bb10.us.i.us.preheader.i.i.i.i:                   ; preds = %bb14.us.i.i.i.i
  %102 = zext i16 %100 to i32
  br label %bb10.us.i.us.i.i.i.i

bb10.us.i.us.i.i.i.i:                             ; preds = %bb19.loopexit.us.i.us.i.i.i.i, %bb10.us.i.us.preheader.i.i.i.i
  %match_offsets.042.us.i.us.i.i.i.i = phi i32 [ %108, %bb19.loopexit.us.i.us.i.i.i.i ], [ %102, %bb10.us.i.us.preheader.i.i.i.i ]
  %103 = tail call i32 @llvm.cttz.i32(i32 %match_offsets.042.us.i.us.i.i.i.i, i1 true) #21, !range !45
  %offset.us.i.us.i.i.i.i = zext i32 %103 to i64
  %104 = getelementptr inbounds i8, i8* %ptr.0134.us.i.i.i.i, i64 %offset.us.i.us.i.i.i.i
  %_37.us.i.us.i.i.i.i = icmp ult i8* %90, %104
  br i1 %_37.us.i.us.i.i.i.i, label %bb18.us.i.i.i.i, label %bb2.i.us.i.us.i.i.i.i

bb2.i.us.i.us.i.i.i.i:                            ; preds = %bb10.us.i.us.i.i.i.i
  tail call void @llvm.experimental.noalias.scope.decl(metadata !203) #21
  tail call void @llvm.experimental.noalias.scope.decl(metadata !206) #21
  br label %bb7.i.us.i.us.i.i.i.i

bb7.i.us.i.us.i.i.i.i:                            ; preds = %bb9.i.us.i.us.i.i.i.i, %bb2.i.us.i.us.i.i.i.i
  %iter.sroa.9.0.i.us.i.us.i.i.i.i = phi i64 [ %107, %bb9.i.us.i.us.i.i.i.i ], [ 0, %bb2.i.us.i.us.i.i.i.i ]
  %exitcond.not.i.us.i.us.i.i.i.i = icmp eq i64 %iter.sroa.9.0.i.us.i.us.i.i.i.i, %9
  br i1 %exitcond.not.i.us.i.us.i.i.i.i, label %bb34.sink.split.i.i.i.i, label %bb9.i.us.i.us.i.i.i.i

bb9.i.us.i.us.i.i.i.i:                            ; preds = %bb7.i.us.i.us.i.i.i.i
  %105 = getelementptr inbounds i8, i8* %104, i64 %iter.sroa.9.0.i.us.i.us.i.i.i.i
  %106 = getelementptr inbounds [0 x i8], [0 x i8]* %7, i64 0, i64 %iter.sroa.9.0.i.us.i.us.i.i.i.i
  %107 = add nuw nsw i64 %iter.sroa.9.0.i.us.i.us.i.i.i.i, 1
  %b1.i.us.i.us.i.i.i.i = load i8, i8* %106, align 1, !alias.scope !208, !noalias !209
  %b2.i.us.i.us.i.i.i.i = load i8, i8* %105, align 1, !alias.scope !210, !noalias !211
  %_23.not.i.us.i.us.i.i.i.i = icmp eq i8 %b1.i.us.i.us.i.i.i.i, %b2.i.us.i.us.i.i.i.i
  br i1 %_23.not.i.us.i.us.i.i.i.i, label %bb7.i.us.i.us.i.i.i.i, label %bb19.loopexit.us.i.us.i.i.i.i

bb19.loopexit.us.i.us.i.i.i.i:                    ; preds = %bb9.i.us.i.us.i.i.i.i
  %_51.us.i.us.i.i.i.i = add i32 %match_offsets.042.us.i.us.i.i.i.i, -1
  %108 = and i32 %_51.us.i.us.i.i.i.i, %match_offsets.042.us.i.us.i.i.i.i
  %109 = icmp eq i32 %108, 0
  br i1 %109, label %bb18.us.i.i.i.i, label %bb10.us.i.us.i.i.i.i

bb18.us.i.i.i.i:                                  ; preds = %bb19.loopexit.us.i.us.i.i.i.i, %bb10.us.i.us.i.i.i.i, %bb14.us.i.i.i.i
  %110 = getelementptr inbounds i8, i8* %ptr.0134.us.i.i.i.i, i64 16
  %_45.not.us.i.i.i.i = icmp ugt i8* %110, %88
  br i1 %_45.not.us.i.i.i.i, label %bb21.i.i.i.i, label %bb14.us.i.i.i.i

bb14.lr.ph.split.i.i.i.i:                         ; preds = %bb14.lr.ph.i.i.i.i
  br i1 %_4671.i.i.i.i.i.i, label %bb14.us141.i.i.i.i, label %bb14.i.i.i.i

bb14.us141.i.i.i.i:                               ; preds = %bb14.lr.ph.split.i.i.i.i, %bb18.us146.i.i.i.i
  %ptr.0134.us142.i.i.i.i = phi i8* [ %129, %bb18.us146.i.i.i.i ], [ %4, %bb14.lr.ph.split.i.i.i.i ]
  tail call void @llvm.experimental.noalias.scope.decl(metadata !198)
  %111 = getelementptr inbounds i8, i8* %ptr.0134.us142.i.i.i.i, i64 %_21.i.i.i.i
  %112 = bitcast i8* %111 to <16 x i8>*
  %.0.copyload28.i.us143.i.i.i.i = load <16 x i8>, <16 x i8>* %112, align 1, !alias.scope !201, !noalias !202
  %113 = getelementptr inbounds i8, i8* %ptr.0134.us142.i.i.i.i, i64 %_2.i.i.i
  %114 = bitcast i8* %113 to <16 x i8>*
  %.0.copyload629.i.us144.i.i.i.i = load <16 x i8>, <16 x i8>* %114, align 1, !alias.scope !201, !noalias !202
  %115 = icmp eq <16 x i8> %.0.copyload28.i.us143.i.i.i.i, %.15.vec.insert.i.i.i.i.i.i.i
  %116 = icmp eq <16 x i8> %.0.copyload629.i.us144.i.i.i.i, %.15.vec.insert.i.i.i26.i.i.i.i
  %117 = and <16 x i1> %116, %115
  %118 = bitcast <16 x i1> %117 to i16
  %119 = icmp eq i16 %118, 0
  br i1 %119, label %bb18.us146.i.i.i.i, label %bb10.us48.i.us.preheader.i.i.i.i

bb10.us48.i.us.preheader.i.i.i.i:                 ; preds = %bb14.us141.i.i.i.i
  %120 = zext i16 %118 to i32
  br label %bb10.us48.i.us.i.i.i.i

bb10.us48.i.us.i.i.i.i:                           ; preds = %bb19.us53.i.us.i.i.i.i, %bb10.us48.i.us.preheader.i.i.i.i
  %match_offsets.042.us49.i.us.i.i.i.i = phi i32 [ %127, %bb19.us53.i.us.i.i.i.i ], [ %120, %bb10.us48.i.us.preheader.i.i.i.i ]
  %121 = tail call i32 @llvm.cttz.i32(i32 %match_offsets.042.us49.i.us.i.i.i.i, i1 true) #21, !range !45
  %offset.us50.i.us.i.i.i.i = zext i32 %121 to i64
  %122 = getelementptr inbounds i8, i8* %ptr.0134.us142.i.i.i.i, i64 %offset.us50.i.us.i.i.i.i
  %_37.us51.i.us.i.i.i.i = icmp ult i8* %90, %122
  br i1 %_37.us51.i.us.i.i.i.i, label %bb18.us146.i.i.i.i, label %bb2.i.us52.i.us.i.i.i.i

bb2.i.us52.i.us.i.i.i.i:                          ; preds = %bb10.us48.i.us.i.i.i.i
  tail call void @llvm.experimental.noalias.scope.decl(metadata !203) #21
  tail call void @llvm.experimental.noalias.scope.decl(metadata !206) #21
  %123 = getelementptr inbounds i8, i8* %122, i64 %_38.i.i.i.i.i.i
  br label %bb20.i.us.i.us.i.i.i.i

bb20.i.us.i.us.i.i.i.i:                           ; preds = %bb24.i.us.i.us.i.i.i.i, %bb2.i.us52.i.us.i.i.i.i
  %py.073.i.us.i.us.i.i.i.i = phi i8* [ %125, %bb24.i.us.i.us.i.i.i.i ], [ %122, %bb2.i.us52.i.us.i.i.i.i ]
  %px.072.i.us.i.us.i.i.i.i = phi i8* [ %124, %bb24.i.us.i.us.i.i.i.i ], [ %92, %bb2.i.us52.i.us.i.i.i.i ]
  %_50.i.us.i.us.i.i.i.i = bitcast i8* %px.072.i.us.i.us.i.i.i.i to i32*
  %_50.val.i.us.i.us.i.i.i.i = load i32, i32* %_50.i.us.i.us.i.i.i.i, align 1, !alias.scope !208, !noalias !209
  %_53.i.us.i.us.i.i.i.i = bitcast i8* %py.073.i.us.i.us.i.i.i.i to i32*
  %_53.val.i.us.i.us.i.i.i.i = load i32, i32* %_53.i.us.i.us.i.i.i.i, align 1, !alias.scope !210, !noalias !211
  %_55.not.i.us.i.us.i.i.i.i = icmp eq i32 %_50.val.i.us.i.us.i.i.i.i, %_53.val.i.us.i.us.i.i.i.i
  br i1 %_55.not.i.us.i.us.i.i.i.i, label %bb24.i.us.i.us.i.i.i.i, label %bb19.us53.i.us.i.i.i.i

bb24.i.us.i.us.i.i.i.i:                           ; preds = %bb20.i.us.i.us.i.i.i.i
  %124 = getelementptr inbounds i8, i8* %px.072.i.us.i.us.i.i.i.i, i64 4
  %125 = getelementptr inbounds i8, i8* %py.073.i.us.i.us.i.i.i.i, i64 4
  %_46.i.us.i.us.i.i.i.i = icmp ult i8* %124, %91
  br i1 %_46.i.us.i.us.i.i.i.i, label %bb20.i.us.i.us.i.i.i.i, label %_ZN6memchr6memmem4util6memcmp17h219f2d59ca832512E.exit.loopexit.us.i.us.i.i.i.i

_ZN6memchr6memmem4util6memcmp17h219f2d59ca832512E.exit.loopexit.us.i.us.i.i.i.i: ; preds = %bb24.i.us.i.us.i.i.i.i
  %_63.val.i.us.i.us.i.i.i.i = load i32, i32* %_63.i.i.i.i.i.i, align 1, !alias.scope !208, !noalias !209
  %_66.i.us.i.us.i.i.i.i = bitcast i8* %123 to i32*
  %_66.val.i.us.i.us.i.i.i.i = load i32, i32* %_66.i.us.i.us.i.i.i.i, align 1, !alias.scope !210, !noalias !211
  %126 = icmp eq i32 %_63.val.i.us.i.us.i.i.i.i, %_66.val.i.us.i.us.i.i.i.i
  br i1 %126, label %bb34.sink.split.i.i.i.i, label %bb19.us53.i.us.i.i.i.i

bb19.us53.i.us.i.i.i.i:                           ; preds = %bb20.i.us.i.us.i.i.i.i, %_ZN6memchr6memmem4util6memcmp17h219f2d59ca832512E.exit.loopexit.us.i.us.i.i.i.i
  %_51.us54.i.us.i.i.i.i = add i32 %match_offsets.042.us49.i.us.i.i.i.i, -1
  %127 = and i32 %_51.us54.i.us.i.i.i.i, %match_offsets.042.us49.i.us.i.i.i.i
  %128 = icmp eq i32 %127, 0
  br i1 %128, label %bb18.us146.i.i.i.i, label %bb10.us48.i.us.i.i.i.i

bb18.us146.i.i.i.i:                               ; preds = %bb19.us53.i.us.i.i.i.i, %bb10.us48.i.us.i.i.i.i, %bb14.us141.i.i.i.i
  %129 = getelementptr inbounds i8, i8* %ptr.0134.us142.i.i.i.i, i64 16
  %_45.not.us147.i.i.i.i = icmp ugt i8* %129, %88
  br i1 %_45.not.us147.i.i.i.i, label %bb21.i.i.i.i, label %bb14.us141.i.i.i.i

panic2.i.i.i.i:                                   ; preds = %bb6.i.i.i.i
; call core::panicking::panic_bounds_check
  tail call void @_ZN4core9panicking18panic_bounds_check17h12b597476ba48ffaE(i64 %_2.i.i.i, i64 %9, %"core::panic::location::Location"* noalias readonly align 8 dereferenceable(24) bitcast (<{ i8*, [16 x i8] }>* @alloc1051 to %"core::panic::location::Location"*)) #22, !noalias !197
  unreachable

bb21.i.i.i.i:                                     ; preds = %bb18.i.i.i.i, %bb18.us146.i.i.i.i, %bb18.us.i.i.i.i, %bb8.i.i.i.i
  %ptr.0.lcssa.i.i.i.i = phi i8* [ %4, %bb8.i.i.i.i ], [ %110, %bb18.us.i.i.i.i ], [ %129, %bb18.us146.i.i.i.i ], [ %146, %bb18.i.i.i.i ]
  %_65.i.i.i.i = icmp ult i8* %ptr.0.lcssa.i.i.i.i, %86
  br i1 %_65.i.i.i.i, label %bb22.i.i.i.i, label %bb11

bb14.i.i.i.i:                                     ; preds = %bb14.lr.ph.split.i.i.i.i, %bb18.i.i.i.i
  %ptr.0134.i.i.i.i = phi i8* [ %146, %bb18.i.i.i.i ], [ %4, %bb14.lr.ph.split.i.i.i.i ]
  tail call void @llvm.experimental.noalias.scope.decl(metadata !198)
  %130 = getelementptr inbounds i8, i8* %ptr.0134.i.i.i.i, i64 %_21.i.i.i.i
  %131 = bitcast i8* %130 to <16 x i8>*
  %.0.copyload28.i.i.i.i.i = load <16 x i8>, <16 x i8>* %131, align 1, !alias.scope !201, !noalias !202
  %132 = getelementptr inbounds i8, i8* %ptr.0134.i.i.i.i, i64 %_2.i.i.i
  %133 = bitcast i8* %132 to <16 x i8>*
  %.0.copyload629.i.i.i.i.i = load <16 x i8>, <16 x i8>* %133, align 1, !alias.scope !201, !noalias !202
  %134 = icmp eq <16 x i8> %.0.copyload28.i.i.i.i.i, %.15.vec.insert.i.i.i.i.i.i.i
  %135 = icmp eq <16 x i8> %.0.copyload629.i.i.i.i.i, %.15.vec.insert.i.i.i26.i.i.i.i
  %136 = and <16 x i1> %135, %134
  %137 = bitcast <16 x i1> %136 to i16
  %138 = icmp eq i16 %137, 0
  br i1 %138, label %bb18.i.i.i.i, label %bb10.i.preheader.i.i.i.i

bb10.i.preheader.i.i.i.i:                         ; preds = %bb14.i.i.i.i
  %139 = zext i16 %137 to i32
  br label %bb10.i.i.i.i.i

bb10.i.i.i.i.i:                                   ; preds = %bb19.i.i.i.i.i, %bb10.i.preheader.i.i.i.i
  %match_offsets.042.i.i.i.i.i = phi i32 [ %144, %bb19.i.i.i.i.i ], [ %139, %bb10.i.preheader.i.i.i.i ]
  %140 = tail call i32 @llvm.cttz.i32(i32 %match_offsets.042.i.i.i.i.i, i1 true) #21, !range !45
  %offset.i.i.i.i.i = zext i32 %140 to i64
  %141 = getelementptr inbounds i8, i8* %ptr.0134.i.i.i.i, i64 %offset.i.i.i.i.i
  %_37.i.i.i.i.i = icmp ult i8* %90, %141
  br i1 %_37.i.i.i.i.i, label %bb18.i.i.i.i, label %bb2.i.i.i.i.i.i

bb2.i.i.i.i.i.i:                                  ; preds = %bb10.i.i.i.i.i
  tail call void @llvm.experimental.noalias.scope.decl(metadata !203) #21
  tail call void @llvm.experimental.noalias.scope.decl(metadata !206) #21
  %142 = getelementptr inbounds i8, i8* %141, i64 %_38.i.i.i.i.i.i
  %_63.val.i.i.i.i.i.i = load i32, i32* %_63.i.i.i.i.i.i, align 1, !alias.scope !208, !noalias !209
  %_66.i.i.i.i.i.i = bitcast i8* %142 to i32*
  %_66.val.i.i.i.i.i.i = load i32, i32* %_66.i.i.i.i.i.i, align 1, !alias.scope !210, !noalias !211
  %143 = icmp eq i32 %_63.val.i.i.i.i.i.i, %_66.val.i.i.i.i.i.i
  br i1 %143, label %bb34.sink.split.i.i.i.i, label %bb19.i.i.i.i.i

bb19.i.i.i.i.i:                                   ; preds = %bb2.i.i.i.i.i.i
  %_51.i.i.i.i.i = add i32 %match_offsets.042.i.i.i.i.i, -1
  %144 = and i32 %_51.i.i.i.i.i, %match_offsets.042.i.i.i.i.i
  %145 = icmp eq i32 %144, 0
  br i1 %145, label %bb18.i.i.i.i, label %bb10.i.i.i.i.i

bb18.i.i.i.i:                                     ; preds = %bb19.i.i.i.i.i, %bb10.i.i.i.i.i, %bb14.i.i.i.i
  %146 = getelementptr inbounds i8, i8* %ptr.0134.i.i.i.i, i64 16
  %_45.not.i.i.i.i = icmp ugt i8* %146, %88
  br i1 %_45.not.i.i.i.i, label %bb21.i.i.i.i, label %bb14.i.i.i.i

bb22.i.i.i.i:                                     ; preds = %bb21.i.i.i.i
  %_3.i.i.i.i.i = ptrtoint i8* %86 to i64
  %_5.i.i.i.i.i = ptrtoint i8* %ptr.0.lcssa.i.i.i.i to i64
  %147 = sub i64 %_3.i.i.i.i.i, %_5.i.i.i.i.i
  %_72.i.i.i.i = icmp ult i64 %147, %9
  br i1 %_72.i.i.i.i, label %bb11, label %bb25.i.i.i.i

bb25.i.i.i.i:                                     ; preds = %bb22.i.i.i.i
  %_5.i98.i.i.i.i = ptrtoint i8* %88 to i64
  %148 = sub i64 %_5.i.i.i.i.i, %_5.i98.i.i.i.i
  %149 = trunc i64 %148 to i32
  %150 = and i32 %149, 31
  %notmask.i.i.i.i = shl nsw i32 -1, %150
  tail call void @llvm.experimental.noalias.scope.decl(metadata !212)
  %151 = getelementptr inbounds i8, i8* %88, i64 %_21.i.i.i.i
  %152 = bitcast i8* %151 to <16 x i8>*
  %.0.copyload28.i28.i.i.i.i = load <16 x i8>, <16 x i8>* %152, align 1, !alias.scope !201, !noalias !215
  %153 = getelementptr inbounds i8, i8* %86, i64 -16
  %154 = bitcast i8* %153 to <16 x i8>*
  %.0.copyload629.i30.i.i.i.i = load <16 x i8>, <16 x i8>* %154, align 1, !alias.scope !201, !noalias !215
  %155 = icmp eq <16 x i8> %.0.copyload28.i28.i.i.i.i, %.15.vec.insert.i.i.i.i.i.i.i
  %156 = icmp eq <16 x i8> %.0.copyload629.i30.i.i.i.i, %.15.vec.insert.i.i.i26.i.i.i.i
  %157 = and <16 x i1> %156, %155
  %158 = bitcast <16 x i1> %157 to i16
  %159 = zext i16 %158 to i32
  %160 = and i32 %notmask.i.i.i.i, %159
  %161 = icmp eq i32 %160, 0
  br i1 %161, label %bb11, label %bb10.lr.ph.i35.i.i.i.i

bb10.lr.ph.i35.i.i.i.i:                           ; preds = %bb25.i.i.i.i
  %_8.i.i34.i.i.i.i = icmp ult i64 %9, 4
  br i1 %_8.i.i34.i.i.i.i, label %bb10.us.i39.i.i.i.i.preheader, label %bb10.lr.ph.split.i50.i.i.i.i

bb10.us.i39.i.i.i.i.preheader:                    ; preds = %bb10.lr.ph.i35.i.i.i.i
  %exitcond.not.i.us.i42.i.i.i.i = icmp eq i64 %9, 0
  %162 = getelementptr inbounds [0 x i8], [0 x i8]* %7, i64 0, i64 0
  %exitcond.not.i.us.i42.i.i.i.i.1 = icmp eq i64 %9, 1
  %163 = getelementptr inbounds [0 x i8], [0 x i8]* %7, i64 0, i64 1
  %exitcond.not.i.us.i42.i.i.i.i.2 = icmp eq i64 %9, 2
  %164 = getelementptr inbounds [0 x i8], [0 x i8]* %7, i64 0, i64 2
  %exitcond.not.i.us.i42.i.i.i.i.3 = icmp eq i64 %9, 3
  br label %bb10.us.i39.i.i.i.i

bb10.us.i39.i.i.i.i:                              ; preds = %bb10.us.i39.i.i.i.i.preheader, %bb19.loopexit.us.i49.i.i.i.i
  %match_offsets.042.us.i36.i.i.i.i = phi i32 [ %167, %bb19.loopexit.us.i49.i.i.i.i ], [ %160, %bb10.us.i39.i.i.i.i.preheader ]
  %165 = tail call i32 @llvm.cttz.i32(i32 %match_offsets.042.us.i36.i.i.i.i, i1 true) #21, !range !45
  %offset.us.i37.i.i.i.i = zext i32 %165 to i64
  %166 = getelementptr inbounds i8, i8* %88, i64 %offset.us.i37.i.i.i.i
  %_37.us.i38.i.i.i.i = icmp ult i8* %90, %166
  br i1 %_37.us.i38.i.i.i.i, label %bb11, label %bb2.i.us.i40.i.i.i.i

bb2.i.us.i40.i.i.i.i:                             ; preds = %bb10.us.i39.i.i.i.i
  tail call void @llvm.experimental.noalias.scope.decl(metadata !216) #21
  tail call void @llvm.experimental.noalias.scope.decl(metadata !219) #21
  br i1 %exitcond.not.i.us.i42.i.i.i.i, label %bb34.sink.split.i.i.i.i, label %bb9.i.us.i47.i.i.i.i

bb9.i.us.i47.i.i.i.i:                             ; preds = %bb2.i.us.i40.i.i.i.i
  %b1.i.us.i44.i.i.i.i = load i8, i8* %162, align 1, !alias.scope !221, !noalias !222
  %b2.i.us.i45.i.i.i.i = load i8, i8* %166, align 1, !alias.scope !223, !noalias !224
  %_23.not.i.us.i46.i.i.i.i = icmp eq i8 %b1.i.us.i44.i.i.i.i, %b2.i.us.i45.i.i.i.i
  br i1 %_23.not.i.us.i46.i.i.i.i, label %bb7.i.us.i43.i.i.i.i.1, label %bb19.loopexit.us.i49.i.i.i.i

bb19.loopexit.us.i49.i.i.i.i:                     ; preds = %bb9.i.us.i47.i.i.i.i.2, %bb9.i.us.i47.i.i.i.i.1, %bb9.i.us.i47.i.i.i.i
  %_51.us.i48.i.i.i.i = add i32 %match_offsets.042.us.i36.i.i.i.i, -1
  %167 = and i32 %_51.us.i48.i.i.i.i, %match_offsets.042.us.i36.i.i.i.i
  %168 = icmp eq i32 %167, 0
  br i1 %168, label %bb11, label %bb10.us.i39.i.i.i.i

bb10.lr.ph.split.i50.i.i.i.i:                     ; preds = %bb10.lr.ph.i35.i.i.i.i
  br i1 %_4671.i.i.i.i.i.i, label %bb10.us48.i54.i.i.i.i, label %bb10.i75.i.i.i.i

bb10.us48.i54.i.i.i.i:                            ; preds = %bb10.lr.ph.split.i50.i.i.i.i, %bb19.us53.i67.i.i.i.i
  %match_offsets.042.us49.i51.i.i.i.i = phi i32 [ %174, %bb19.us53.i67.i.i.i.i ], [ %160, %bb10.lr.ph.split.i50.i.i.i.i ]
  %169 = tail call i32 @llvm.cttz.i32(i32 %match_offsets.042.us49.i51.i.i.i.i, i1 true) #21, !range !45
  %offset.us50.i52.i.i.i.i = zext i32 %169 to i64
  %170 = getelementptr inbounds i8, i8* %88, i64 %offset.us50.i52.i.i.i.i
  %_37.us51.i53.i.i.i.i = icmp ult i8* %90, %170
  br i1 %_37.us51.i53.i.i.i.i, label %bb11, label %bb2.i.us52.i55.i.i.i.i

bb2.i.us52.i55.i.i.i.i:                           ; preds = %bb10.us48.i54.i.i.i.i
  tail call void @llvm.experimental.noalias.scope.decl(metadata !216) #21
  tail call void @llvm.experimental.noalias.scope.decl(metadata !219) #21
  %171 = getelementptr inbounds i8, i8* %170, i64 %_38.i.i.i.i.i.i
  br label %bb20.i.us.i63.i.i.i.i

bb20.i.us.i63.i.i.i.i:                            ; preds = %bb24.i.us.i65.i.i.i.i, %bb2.i.us52.i55.i.i.i.i
  %py.073.i.us.i56.i.i.i.i = phi i8* [ %173, %bb24.i.us.i65.i.i.i.i ], [ %170, %bb2.i.us52.i55.i.i.i.i ]
  %px.072.i.us.i57.i.i.i.i = phi i8* [ %172, %bb24.i.us.i65.i.i.i.i ], [ %92, %bb2.i.us52.i55.i.i.i.i ]
  %_50.i.us.i58.i.i.i.i = bitcast i8* %px.072.i.us.i57.i.i.i.i to i32*
  %_50.val.i.us.i59.i.i.i.i = load i32, i32* %_50.i.us.i58.i.i.i.i, align 1, !alias.scope !221, !noalias !222
  %_53.i.us.i60.i.i.i.i = bitcast i8* %py.073.i.us.i56.i.i.i.i to i32*
  %_53.val.i.us.i61.i.i.i.i = load i32, i32* %_53.i.us.i60.i.i.i.i, align 1, !alias.scope !223, !noalias !224
  %_55.not.i.us.i62.i.i.i.i = icmp eq i32 %_50.val.i.us.i59.i.i.i.i, %_53.val.i.us.i61.i.i.i.i
  br i1 %_55.not.i.us.i62.i.i.i.i, label %bb24.i.us.i65.i.i.i.i, label %bb19.us53.i67.i.i.i.i

bb24.i.us.i65.i.i.i.i:                            ; preds = %bb20.i.us.i63.i.i.i.i
  %172 = getelementptr inbounds i8, i8* %px.072.i.us.i57.i.i.i.i, i64 4
  %173 = getelementptr inbounds i8, i8* %py.073.i.us.i56.i.i.i.i, i64 4
  %_46.i.us.i64.i.i.i.i = icmp ult i8* %172, %91
  br i1 %_46.i.us.i64.i.i.i.i, label %bb20.i.us.i63.i.i.i.i, label %_ZN6memchr6memmem4util6memcmp17h219f2d59ca832512E.exit.loopexit.us.i71.i.i.i.i

bb19.us53.i67.i.i.i.i:                            ; preds = %bb20.i.us.i63.i.i.i.i, %_ZN6memchr6memmem4util6memcmp17h219f2d59ca832512E.exit.loopexit.us.i71.i.i.i.i
  %_51.us54.i66.i.i.i.i = add i32 %match_offsets.042.us49.i51.i.i.i.i, -1
  %174 = and i32 %_51.us54.i66.i.i.i.i, %match_offsets.042.us49.i51.i.i.i.i
  %175 = icmp eq i32 %174, 0
  br i1 %175, label %bb11, label %bb10.us48.i54.i.i.i.i

_ZN6memchr6memmem4util6memcmp17h219f2d59ca832512E.exit.loopexit.us.i71.i.i.i.i: ; preds = %bb24.i.us.i65.i.i.i.i
  %_63.val.i.us.i68.i.i.i.i = load i32, i32* %_63.i.i.i.i.i.i, align 1, !alias.scope !221, !noalias !222
  %_66.i.us.i69.i.i.i.i = bitcast i8* %171 to i32*
  %_66.val.i.us.i70.i.i.i.i = load i32, i32* %_66.i.us.i69.i.i.i.i, align 1, !alias.scope !223, !noalias !224
  %176 = icmp eq i32 %_63.val.i.us.i68.i.i.i.i, %_66.val.i.us.i70.i.i.i.i
  br i1 %176, label %bb34.sink.split.i.i.i.i, label %bb19.us53.i67.i.i.i.i

bb10.i75.i.i.i.i:                                 ; preds = %bb10.lr.ph.split.i50.i.i.i.i, %bb19.i81.i.i.i.i
  %match_offsets.042.i72.i.i.i.i = phi i32 [ %181, %bb19.i81.i.i.i.i ], [ %160, %bb10.lr.ph.split.i50.i.i.i.i ]
  %177 = tail call i32 @llvm.cttz.i32(i32 %match_offsets.042.i72.i.i.i.i, i1 true) #21, !range !45
  %offset.i73.i.i.i.i = zext i32 %177 to i64
  %178 = getelementptr inbounds i8, i8* %88, i64 %offset.i73.i.i.i.i
  %_37.i74.i.i.i.i = icmp ult i8* %90, %178
  br i1 %_37.i74.i.i.i.i, label %bb11, label %bb2.i.i79.i.i.i.i

bb2.i.i79.i.i.i.i:                                ; preds = %bb10.i75.i.i.i.i
  tail call void @llvm.experimental.noalias.scope.decl(metadata !216) #21
  tail call void @llvm.experimental.noalias.scope.decl(metadata !219) #21
  %179 = getelementptr inbounds i8, i8* %178, i64 %_38.i.i.i.i.i.i
  %_63.val.i.i76.i.i.i.i = load i32, i32* %_63.i.i.i.i.i.i, align 1, !alias.scope !221, !noalias !222
  %_66.i.i77.i.i.i.i = bitcast i8* %179 to i32*
  %_66.val.i.i78.i.i.i.i = load i32, i32* %_66.i.i77.i.i.i.i, align 1, !alias.scope !223, !noalias !224
  %180 = icmp eq i32 %_63.val.i.i76.i.i.i.i, %_66.val.i.i78.i.i.i.i
  br i1 %180, label %bb34.sink.split.i.i.i.i, label %bb19.i81.i.i.i.i

bb19.i81.i.i.i.i:                                 ; preds = %bb2.i.i79.i.i.i.i
  %_51.i80.i.i.i.i = add i32 %match_offsets.042.i72.i.i.i.i, -1
  %181 = and i32 %_51.i80.i.i.i.i, %match_offsets.042.i72.i.i.i.i
  %182 = icmp eq i32 %181, 0
  br i1 %182, label %bb11, label %bb10.i75.i.i.i.i

"_ZN4core5slice5index74_$LT$impl$u20$core..ops..index..Index$LT$I$GT$$u20$for$u20$$u5b$T$u5d$$GT$5index17h7a33252506d3c20cE.exit.i.i": ; preds = %bb16.i
  %_35.idx.i = getelementptr inbounds %"memmem::FindIter", %"memmem::FindIter"* %self, i64 0, i32 1, i32 0, i32 3, i32 0, i32 0
  %_35.idx.val.i = load i32, i32* %_35.idx.i, align 8, !alias.scope !143, !noalias !155
  %_35.idx27.i = getelementptr %"memmem::FindIter", %"memmem::FindIter"* %self, i64 0, i32 1, i32 0, i32 3, i32 0, i32 1
  %_35.idx27.val.i = load i32, i32* %_35.idx27.i, align 4, !alias.scope !143, !noalias !155
  %start1.i.i = ptrtoint i8* %4 to i64
  %_12.i9.i.i.i = icmp eq i64 %9, 0
  br i1 %_12.i9.i.i.i, label %bb6.i.i.preheader, label %bb5.i.i.i.preheader

bb5.i.i.i.preheader:                              ; preds = %"_ZN4core5slice5index74_$LT$impl$u20$core..ops..index..Index$LT$I$GT$$u20$for$u20$$u5b$T$u5d$$GT$5index17h7a33252506d3c20cE.exit.i.i"
  %183 = add i64 %9, -1
  %xtraiter = and i64 %9, 7
  %184 = icmp ult i64 %183, 7
  br i1 %184, label %bb6.i.i.preheader.loopexit.unr-lcssa, label %bb5.i.i.i.preheader.new

bb5.i.i.i.preheader.new:                          ; preds = %bb5.i.i.i.preheader
  %unroll_iter = and i64 %9, -8
  br label %bb5.i.i.i

bb5.i.i.i:                                        ; preds = %bb5.i.i.i, %bb5.i.i.i.preheader.new
  %hash.011.i.i.i = phi i32 [ 0, %bb5.i.i.i.preheader.new ], [ %208, %bb5.i.i.i ]
  %iter.sroa.0.010.i.i.i = phi i8* [ %4, %bb5.i.i.i.preheader.new ], [ %206, %bb5.i.i.i ]
  %niter = phi i64 [ %unroll_iter, %bb5.i.i.i.preheader.new ], [ %niter.nsub.7, %bb5.i.i.i ]
  %185 = getelementptr inbounds i8, i8* %iter.sroa.0.010.i.i.i, i64 1
  %b.i.i.i = load i8, i8* %iter.sroa.0.010.i.i.i, align 1, !alias.scope !225, !noalias !230
  %186 = shl i32 %hash.011.i.i.i, 1
  %_6.i.i.i.i = zext i8 %b.i.i.i to i32
  %187 = add i32 %186, %_6.i.i.i.i
  %188 = getelementptr inbounds i8, i8* %iter.sroa.0.010.i.i.i, i64 2
  %b.i.i.i.1 = load i8, i8* %185, align 1, !alias.scope !225, !noalias !230
  %189 = shl i32 %187, 1
  %_6.i.i.i.i.1 = zext i8 %b.i.i.i.1 to i32
  %190 = add i32 %189, %_6.i.i.i.i.1
  %191 = getelementptr inbounds i8, i8* %iter.sroa.0.010.i.i.i, i64 3
  %b.i.i.i.2 = load i8, i8* %188, align 1, !alias.scope !225, !noalias !230
  %192 = shl i32 %190, 1
  %_6.i.i.i.i.2 = zext i8 %b.i.i.i.2 to i32
