; ModuleID = 'miniz_oxide.c9fb791e-cgu.0'
source_filename = "miniz_oxide.c9fb791e-cgu.0"
target datalayout = "e-m:e-p270:32:32-p271:32:32-p272:64:64-i64:64-f80:128-n8:16:32:64-S128"
target triple = "x86_64-unknown-linux-gnu"

%"deflate::core::CompressorOxide" = type { %"deflate::core::LZOxide", %"deflate::core::ParamsOxide", %"deflate::core::HuffmanOxide"*, %"deflate::core::DictOxide" }
%"deflate::core::LZOxide" = type { i64, i64, i32, i32, [65536 x i8] }
%"deflate::core::ParamsOxide" = type { i64, i64, %"deflate::buffer::LocalBuf"*, i32, i32, i32, i32, i32, i32, i32, i32, i32, i32, i8, i8, i8, i8, [4 x i8] }
%"deflate::buffer::LocalBuf" = type { [85196 x i8] }
%"deflate::core::HuffmanOxide" = type { [3 x [288 x i16]], [3 x [288 x i16]], [3 x [288 x i8]] }
%"deflate::core::DictOxide" = type { %"deflate::buffer::HashBuffers"*, i64, i64, i64, i64, [2 x i32] }
%"deflate::buffer::HashBuffers" = type { [32768 x i16], [32768 x i16], [33026 x i8] }
%"core::option::Option<(core::ptr::non_null::NonNull<u8>, core::alloc::layout::Layout)>" = type { {}*, [2 x i64] }
%"core::result::Result<core::ptr::non_null::NonNull<[u8]>, alloc::collections::TryReserveError>" = type { i64, [2 x i64] }
%"deflate::core::CallbackOxide" = type { { i8*, i64 }, i64*, i64*, %"deflate::core::CallbackOut" }
%"deflate::core::CallbackOut" = type { i64, [2 x i64] }
%"core::panic::location::Location" = type { { [0 x i8]*, i64 }, i32, i32 }
%"deflate::core::OutputBufferOxide" = type { { [0 x i8]*, i64 }, i64, i32, i32, i8, [7 x i8] }
%StreamResult = type { i64, i64, { i32, i32 } }
%"alloc::vec::Vec<u8>" = type { { i8*, i64 }, i64 }
%"inflate::core::HuffmanTable" = type { [1024 x i16], [576 x i16], [288 x i8] }
%"inflate::core::DecompressorOxide" = type { i64, i32, i32, i32, i32, i32, i32, i32, i32, i32, i32, [3 x i32], [3 x %"inflate::core::HuffmanTable"], i8, [4 x i8], [457 x i8], [6 x i8] }
%"inflate::core::LocalVars" = type { i64, i32, i32, i32, i32 }
%"inflate::stream::InflateState" = type { %"inflate::core::DecompressorOxide", i64, i64, [32768 x i8], i8, i8, i8, i8, [4 x i8] }
%"core::result::Result<alloc::vec::Vec<u8>, inflate::TINFLStatus>" = type { i8, [31 x i8] }
%"core::fmt::Formatter" = type { { i64, i64 }, { i64, i64 }, { {}*, [3 x i64]* }, i32, i32, i8, [7 x i8] }
%"core::fmt::builders::DebugStruct" = type { %"core::fmt::Formatter"*, i8, i8, [6 x i8] }
%"core::fmt::builders::DebugTuple" = type { %"core::fmt::Formatter"*, i64, i8, i8, [6 x i8] }

@alloc1736 = private unnamed_addr constant <{ [100 x i8] }> <{ [100 x i8] c"/home/alwagner/.cargo/registry/src/github.com-1ecc6299db9ec823/miniz_oxide-0.4.0/src/deflate/core.rs" }>, align 1
@alloc1301 = private unnamed_addr constant <{ i8*, [16 x i8] }> <{ i8* getelementptr inbounds (<{ [100 x i8] }>, <{ [100 x i8] }>* @alloc1736, i32 0, i32 0, i32 0), [16 x i8] c"d\00\00\00\00\00\00\00\86\01\00\00\05\00\00\00" }>, align 8
@alloc1303 = private unnamed_addr constant <{ i8*, [16 x i8] }> <{ i8* getelementptr inbounds (<{ [100 x i8] }>, <{ [100 x i8] }>* @alloc1736, i32 0, i32 0, i32 0), [16 x i8] c"d\00\00\00\00\00\00\00\86\01\00\00\1B\00\00\00" }>, align 8
@alloc1311 = private unnamed_addr constant <{ i8*, [16 x i8] }> <{ i8* getelementptr inbounds (<{ [100 x i8] }>, <{ [100 x i8] }>* @alloc1736, i32 0, i32 0, i32 0), [16 x i8] c"d\00\00\00\00\00\00\00\0F\02\00\001\00\00\00" }>, align 8
@alloc1313 = private unnamed_addr constant <{ i8*, [16 x i8] }> <{ i8* getelementptr inbounds (<{ [100 x i8] }>, <{ [100 x i8] }>* @alloc1736, i32 0, i32 0, i32 0), [16 x i8] c"d\00\00\00\00\00\00\00)\02\00\00\13\00\00\00" }>, align 8
@alloc1315 = private unnamed_addr constant <{ i8*, [16 x i8] }> <{ i8* getelementptr inbounds (<{ [100 x i8] }>, <{ [100 x i8] }>* @alloc1736, i32 0, i32 0, i32 0), [16 x i8] c"d\00\00\00\00\00\00\00*\02\00\00#\00\00\00" }>, align 8
@alloc1319 = private unnamed_addr constant <{ i8*, [16 x i8] }> <{ i8* getelementptr inbounds (<{ [100 x i8] }>, <{ [100 x i8] }>* @alloc1736, i32 0, i32 0, i32 0), [16 x i8] c"d\00\00\00\00\00\00\00I\02\00\00\16\00\00\00" }>, align 8
@alloc1322 = private unnamed_addr constant <{ [48 x i8] }> <{ [48 x i8] c"assertion failed: bits <= ((1u32 << len) - 1u32)" }>, align 1
@alloc1324 = private unnamed_addr constant <{ i8*, [16 x i8] }> <{ i8* getelementptr inbounds (<{ [100 x i8] }>, <{ [100 x i8] }>* @alloc1736, i32 0, i32 0, i32 0), [16 x i8] c"d\00\00\00\00\00\00\00\9B\02\00\00\09\00\00\00" }>, align 8
@alloc1326 = private unnamed_addr constant <{ i8*, [16 x i8] }> <{ i8* getelementptr inbounds (<{ [100 x i8] }>, <{ [100 x i8] }>* @alloc1736, i32 0, i32 0, i32 0), [16 x i8] c"d\00\00\00\00\00\00\00\9F\02\00\00\0D\00\00\00" }>, align 8
@alloc1328 = private unnamed_addr constant <{ i8*, [16 x i8] }> <{ i8* getelementptr inbounds (<{ [100 x i8] }>, <{ [100 x i8] }>* @alloc1736, i32 0, i32 0, i32 0), [16 x i8] c"d\00\00\00\00\00\00\00\D4\02\00\00\1E\00\00\00" }>, align 8
@alloc1368 = private unnamed_addr constant <{ i8*, [16 x i8] }> <{ i8* getelementptr inbounds (<{ [100 x i8] }>, <{ [100 x i8] }>* @alloc1736, i32 0, i32 0, i32 0), [16 x i8] c"d\00\00\00\00\00\00\00b\03\00\00\11\00\00\00" }>, align 8
@alloc1376 = private unnamed_addr constant <{ i8*, [16 x i8] }> <{ i8* getelementptr inbounds (<{ [100 x i8] }>, <{ [100 x i8] }>* @alloc1736, i32 0, i32 0, i32 0), [16 x i8] c"d\00\00\00\00\00\00\00u\03\00\00(\00\00\00" }>, align 8
@alloc1380 = private unnamed_addr constant <{ i8*, [16 x i8] }> <{ i8* getelementptr inbounds (<{ [100 x i8] }>, <{ [100 x i8] }>* @alloc1736, i32 0, i32 0, i32 0), [16 x i8] c"d\00\00\00\00\00\00\00v\03\00\00-\00\00\00" }>, align 8
@alloc1382 = private unnamed_addr constant <{ i8*, [16 x i8] }> <{ i8* getelementptr inbounds (<{ [100 x i8] }>, <{ [100 x i8] }>* @alloc1736, i32 0, i32 0, i32 0), [16 x i8] c"d\00\00\00\00\00\00\00v\03\00\00\19\00\00\00" }>, align 8
@alloc1388 = private unnamed_addr constant <{ i8*, [16 x i8] }> <{ i8* getelementptr inbounds (<{ [100 x i8] }>, <{ [100 x i8] }>* @alloc1736, i32 0, i32 0, i32 0), [16 x i8] c"d\00\00\00\00\00\00\00z\03\00\00\19\00\00\00" }>, align 8
@alloc1390 = private unnamed_addr constant <{ i8*, [16 x i8] }> <{ i8* getelementptr inbounds (<{ [100 x i8] }>, <{ [100 x i8] }>* @alloc1736, i32 0, i32 0, i32 0), [16 x i8] c"d\00\00\00\00\00\00\00~\03\00\007\00\00\00" }>, align 8
@alloc1394 = private unnamed_addr constant <{ i8*, [16 x i8] }> <{ i8* getelementptr inbounds (<{ [100 x i8] }>, <{ [100 x i8] }>* @alloc1736, i32 0, i32 0, i32 0), [16 x i8] c"d\00\00\00\00\00\00\00\7F\03\00\00-\00\00\00" }>, align 8
@alloc1396 = private unnamed_addr constant <{ i8*, [16 x i8] }> <{ i8* getelementptr inbounds (<{ [100 x i8] }>, <{ [100 x i8] }>* @alloc1736, i32 0, i32 0, i32 0), [16 x i8] c"d\00\00\00\00\00\00\00\7F\03\00\00L\00\00\00" }>, align 8
@alloc1402 = private unnamed_addr constant <{ i8*, [16 x i8] }> <{ i8* getelementptr inbounds (<{ [100 x i8] }>, <{ [100 x i8] }>* @alloc1736, i32 0, i32 0, i32 0), [16 x i8] c"d\00\00\00\00\00\00\00\83\03\00\00-\00\00\00" }>, align 8
@alloc1410 = private unnamed_addr constant <{ i8*, [16 x i8] }> <{ i8* getelementptr inbounds (<{ [100 x i8] }>, <{ [100 x i8] }>* @alloc1736, i32 0, i32 0, i32 0), [16 x i8] c"d\00\00\00\00\00\00\00\8A\03\00\001\00\00\00" }>, align 8
@alloc1412 = private unnamed_addr constant <{ i8*, [16 x i8] }> <{ i8* getelementptr inbounds (<{ [100 x i8] }>, <{ [100 x i8] }>* @alloc1736, i32 0, i32 0, i32 0), [16 x i8] c"d\00\00\00\00\00\00\00\8A\03\00\00)\00\00\00" }>, align 8
@alloc1416 = private unnamed_addr constant <{ i8*, [16 x i8] }> <{ i8* getelementptr inbounds (<{ [100 x i8] }>, <{ [100 x i8] }>* @alloc1736, i32 0, i32 0, i32 0), [16 x i8] c"d\00\00\00\00\00\00\00\93\03\00\00+\00\00\00" }>, align 8
@alloc1418 = private unnamed_addr constant <{ i8*, [16 x i8] }> <{ i8* getelementptr inbounds (<{ [100 x i8] }>, <{ [100 x i8] }>* @alloc1736, i32 0, i32 0, i32 0), [16 x i8] c"d\00\00\00\00\00\00\00\98\03\00\00\19\00\00\00" }>, align 8
@alloc1426 = private unnamed_addr constant <{ i8*, [16 x i8] }> <{ i8* getelementptr inbounds (<{ [100 x i8] }>, <{ [100 x i8] }>* @alloc1736, i32 0, i32 0, i32 0), [16 x i8] c"d\00\00\00\00\00\00\00\AA\03\00\00\15\00\00\00" }>, align 8
@alloc1430 = private unnamed_addr constant <{ i8*, [16 x i8] }> <{ i8* getelementptr inbounds (<{ [100 x i8] }>, <{ [100 x i8] }>* @alloc1736, i32 0, i32 0, i32 0), [16 x i8] c"d\00\00\00\00\00\00\00\B3\03\00\00\14\00\00\00" }>, align 8
@alloc1434 = private unnamed_addr constant <{ i8*, [16 x i8] }> <{ i8* getelementptr inbounds (<{ [100 x i8] }>, <{ [100 x i8] }>* @alloc1736, i32 0, i32 0, i32 0), [16 x i8] c"d\00\00\00\00\00\00\00\B5\03\00\00\15\00\00\00" }>, align 8
@alloc1436 = private unnamed_addr constant <{ i8*, [16 x i8] }> <{ i8* getelementptr inbounds (<{ [100 x i8] }>, <{ [100 x i8] }>* @alloc1736, i32 0, i32 0, i32 0), [16 x i8] c"d\00\00\00\00\00\00\00\C7\03\00\00 \00\00\00" }>, align 8
@alloc1438 = private unnamed_addr constant <{ i8*, [16 x i8] }> <{ i8* getelementptr inbounds (<{ [100 x i8] }>, <{ [100 x i8] }>* @alloc1736, i32 0, i32 0, i32 0), [16 x i8] c"d\00\00\00\00\00\00\00\C8\03\00\00\11\00\00\00" }>, align 8
@alloc1440 = private unnamed_addr constant <{ i8*, [16 x i8] }> <{ i8* getelementptr inbounds (<{ [100 x i8] }>, <{ [100 x i8] }>* @alloc1736, i32 0, i32 0, i32 0), [16 x i8] c"d\00\00\00\00\00\00\00\D6\03\00\00\14\00\00\00" }>, align 8
@alloc1444 = private unnamed_addr constant <{ i8*, [16 x i8] }> <{ i8* getelementptr inbounds (<{ [100 x i8] }>, <{ [100 x i8] }>* @alloc1736, i32 0, i32 0, i32 0), [16 x i8] c"d\00\00\00\00\00\00\00\D7\03\00\00\15\00\00\00" }>, align 8
@alloc1446 = private unnamed_addr constant <{ i8*, [16 x i8] }> <{ i8* getelementptr inbounds (<{ [100 x i8] }>, <{ [100 x i8] }>* @alloc1736, i32 0, i32 0, i32 0), [16 x i8] c"d\00\00\00\00\00\00\00\E0\03\00\00\16\00\00\00" }>, align 8
@alloc1450 = private unnamed_addr constant <{ i8*, [16 x i8] }> <{ i8* getelementptr inbounds (<{ [100 x i8] }>, <{ [100 x i8] }>* @alloc1736, i32 0, i32 0, i32 0), [16 x i8] c"d\00\00\00\00\00\00\00\E6\03\00\00\11\00\00\00" }>, align 8
@alloc1456 = private unnamed_addr constant <{ i8*, [16 x i8] }> <{ i8* getelementptr inbounds (<{ [100 x i8] }>, <{ [100 x i8] }>* @alloc1736, i32 0, i32 0, i32 0), [16 x i8] c"d\00\00\00\00\00\00\00\F0\03\00\00$\00\00\00" }>, align 8
@alloc1458 = private unnamed_addr constant <{ i8*, [16 x i8] }> <{ i8* getelementptr inbounds (<{ [100 x i8] }>, <{ [100 x i8] }>* @alloc1736, i32 0, i32 0, i32 0), [16 x i8] c"d\00\00\00\00\00\00\00\F1\03\00\00 \00\00\00" }>, align 8
@alloc1460 = private unnamed_addr constant <{ i8*, [16 x i8] }> <{ i8* getelementptr inbounds (<{ [100 x i8] }>, <{ [100 x i8] }>* @alloc1736, i32 0, i32 0, i32 0), [16 x i8] c"d\00\00\00\00\00\00\00\F2\03\00\00\15\00\00\00" }>, align 8
@alloc1462 = private unnamed_addr constant <{ i8*, [16 x i8] }> <{ i8* getelementptr inbounds (<{ [100 x i8] }>, <{ [100 x i8] }>* @alloc1736, i32 0, i32 0, i32 0), [16 x i8] c"d\00\00\00\00\00\00\00\FB\03\00\00\16\00\00\00" }>, align 8
@alloc1464 = private unnamed_addr constant <{ i8*, [16 x i8] }> <{ i8* getelementptr inbounds (<{ [100 x i8] }>, <{ [100 x i8] }>* @alloc1736, i32 0, i32 0, i32 0), [16 x i8] c"d\00\00\00\00\00\00\00\FC\03\00\00\0D\00\00\00" }>, align 8
@alloc1470 = private unnamed_addr constant <{ i8*, [16 x i8] }> <{ i8* getelementptr inbounds (<{ [100 x i8] }>, <{ [100 x i8] }>* @alloc1736, i32 0, i32 0, i32 0), [16 x i8] c"d\00\00\00\00\00\00\00\08\04\00\00\1C\00\00\00" }>, align 8
@alloc639 = private unnamed_addr constant <{ [19 x i8] }> <{ [19 x i8] c"\10\11\12\00\08\07\09\06\0A\05\0B\04\0C\03\0D\02\0E\01\0F" }>, align 1
@alloc1528 = private unnamed_addr constant <{ i8*, [16 x i8] }> <{ i8* getelementptr inbounds (<{ [100 x i8] }>, <{ [100 x i8] }>* @alloc1736, i32 0, i32 0, i32 0), [16 x i8] c"d\00\00\00\00\00\00\00\81\04\00\00\18\00\00\00" }>, align 8
@alloc1529 = private unnamed_addr constant <{ [43 x i8] }> <{ [43 x i8] c"assertion failed: code < MAX_HUFF_SYMBOLS_2" }>, align 1
@alloc1531 = private unnamed_addr constant <{ i8*, [16 x i8] }> <{ i8* getelementptr inbounds (<{ [100 x i8] }>, <{ [100 x i8] }>* @alloc1736, i32 0, i32 0, i32 0), [16 x i8] c"d\00\00\00\00\00\00\00\83\04\00\00\0D\00\00\00" }>, align 8
@alloc1537 = private unnamed_addr constant <{ i8*, [16 x i8] }> <{ i8* getelementptr inbounds (<{ [100 x i8] }>, <{ [100 x i8] }>* @alloc1736, i32 0, i32 0, i32 0), [16 x i8] c"d\00\00\00\00\00\00\00\8A\04\00\00\1F\00\00\00" }>, align 8
@alloc1539 = private unnamed_addr constant <{ i8*, [16 x i8] }> <{ i8* getelementptr inbounds (<{ [100 x i8] }>, <{ [100 x i8] }>* @alloc1736, i32 0, i32 0, i32 0), [16 x i8] c"d\00\00\00\00\00\00\00\8B\04\00\00\15\00\00\00" }>, align 8
@alloc1550 = private unnamed_addr constant <{ i8*, [16 x i8] }> <{ i8* getelementptr inbounds (<{ [100 x i8] }>, <{ [100 x i8] }>* @alloc1736, i32 0, i32 0, i32 0), [16 x i8] c"d\00\00\00\00\00\00\00\D5\04\00\00\1E\00\00\00" }>, align 8
@alloc1560 = private unnamed_addr constant <{ i8*, [16 x i8] }> <{ i8* getelementptr inbounds (<{ [100 x i8] }>, <{ [100 x i8] }>* @alloc1736, i32 0, i32 0, i32 0), [16 x i8] c"d\00\00\00\00\00\00\00\B4\05\00\00\09\00\00\00" }>, align 8
@alloc1562 = private unnamed_addr constant <{ i8*, [16 x i8] }> <{ i8* getelementptr inbounds (<{ [100 x i8] }>, <{ [100 x i8] }>* @alloc1736, i32 0, i32 0, i32 0), [16 x i8] c"d\00\00\00\00\00\00\00\C2\05\00\00\0E\00\00\00" }>, align 8
@alloc1566 = private unnamed_addr constant <{ i8*, [16 x i8] }> <{ i8* getelementptr inbounds (<{ [100 x i8] }>, <{ [100 x i8] }>* @alloc1736, i32 0, i32 0, i32 0), [16 x i8] c"d\00\00\00\00\00\00\00\11\06\00\00\1B\00\00\00" }>, align 8
@alloc1572 = private unnamed_addr constant <{ i8*, [16 x i8] }> <{ i8* getelementptr inbounds (<{ [100 x i8] }>, <{ [100 x i8] }>* @alloc1736, i32 0, i32 0, i32 0), [16 x i8] c"d\00\00\00\00\00\00\00\EC\05\00\00\1D\00\00\00" }>, align 8
@0 = private unnamed_addr constant <{ [512 x i8] }> <{ [512 x i8] c"\01\01\02\01\03\01\04\01\05\01\06\01\07\01\08\01\09\01\09\01\0A\01\0A\01\0B\01\0B\01\0C\01\0C\01\0D\01\0D\01\0D\01\0D\01\0E\01\0E\01\0E\01\0E\01\0F\01\0F\01\0F\01\0F\01\10\01\10\01\10\01\10\01\11\01\11\01\11\01\11\01\11\01\11\01\11\01\11\01\12\01\12\01\12\01\12\01\12\01\12\01\12\01\12\01\13\01\13\01\13\01\13\01\13\01\13\01\13\01\13\01\14\01\14\01\14\01\14\01\14\01\14\01\14\01\14\01\15\01\15\01\15\01\15\01\15\01\15\01\15\01\15\01\15\01\15\01\15\01\15\01\15\01\15\01\15\01\15\01\16\01\16\01\16\01\16\01\16\01\16\01\16\01\16\01\16\01\16\01\16\01\16\01\16\01\16\01\16\01\16\01\17\01\17\01\17\01\17\01\17\01\17\01\17\01\17\01\17\01\17\01\17\01\17\01\17\01\17\01\17\01\17\01\18\01\18\01\18\01\18\01\18\01\18\01\18\01\18\01\18\01\18\01\18\01\18\01\18\01\18\01\18\01\18\01\19\01\19\01\19\01\19\01\19\01\19\01\19\01\19\01\19\01\19\01\19\01\19\01\19\01\19\01\19\01\19\01\19\01\19\01\19\01\19\01\19\01\19\01\19\01\19\01\19\01\19\01\19\01\19\01\19\01\19\01\19\01\19\01\1A\01\1A\01\1A\01\1A\01\1A\01\1A\01\1A\01\1A\01\1A\01\1A\01\1A\01\1A\01\1A\01\1A\01\1A\01\1A\01\1A\01\1A\01\1A\01\1A\01\1A\01\1A\01\1A\01\1A\01\1A\01\1A\01\1A\01\1A\01\1A\01\1A\01\1A\01\1A\01\1B\01\1B\01\1B\01\1B\01\1B\01\1B\01\1B\01\1B\01\1B\01\1B\01\1B\01\1B\01\1B\01\1B\01\1B\01\1B\01\1B\01\1B\01\1B\01\1B\01\1B\01\1B\01\1B\01\1B\01\1B\01\1B\01\1B\01\1B\01\1B\01\1B\01\1B\01\1B\01\1C\01\1C\01\1C\01\1C\01\1C\01\1C\01\1C\01\1C\01\1C\01\1C\01\1C\01\1C\01\1C\01\1C\01\1C\01\1C\01\1C\01\1C\01\1C\01\1C\01\1C\01\1C\01\1C\01\1C\01\1C\01\1C\01\1C\01\1C\01\1C\01\1C\01\1C\01\1D\01" }>, align 2
@alloc1576 = private unnamed_addr constant <{ i8*, [16 x i8] }> <{ i8* getelementptr inbounds (<{ [100 x i8] }>, <{ [100 x i8] }>* @alloc1736, i32 0, i32 0, i32 0), [16 x i8] c"d\00\00\00\00\00\00\00\F4\05\00\00\1B\00\00\00" }>, align 8
@1 = private unnamed_addr constant <{ [68 x i8] }> <{ [68 x i8] c"\00\00\00\00\01\00\00\00\03\00\00\00\07\00\00\00\0F\00\00\00\1F\00\00\00?\00\00\00\7F\00\00\00\FF\00\00\00\FF\01\00\00\FF\03\00\00\FF\07\00\00\FF\0F\00\00\FF\1F\00\00\FF?\00\00\FF\7F\00\00\FF\FF\00\00" }>, align 4
@2 = private unnamed_addr constant <{ [256 x i8] }> <{ [256 x i8] c"\00\00\00\00\00\00\00\00\01\01\01\01\01\01\01\01\02\02\02\02\02\02\02\02\02\02\02\02\02\02\02\02\03\03\03\03\03\03\03\03\03\03\03\03\03\03\03\03\03\03\03\03\03\03\03\03\03\03\03\03\03\03\03\03\04\04\04\04\04\04\04\04\04\04\04\04\04\04\04\04\04\04\04\04\04\04\04\04\04\04\04\04\04\04\04\04\04\04\04\04\04\04\04\04\04\04\04\04\04\04\04\04\04\04\04\04\04\04\04\04\04\04\04\04\04\04\04\04\05\05\05\05\05\05\05\05\05\05\05\05\05\05\05\05\05\05\05\05\05\05\05\05\05\05\05\05\05\05\05\05\05\05\05\05\05\05\05\05\05\05\05\05\05\05\05\05\05\05\05\05\05\05\05\05\05\05\05\05\05\05\05\05\05\05\05\05\05\05\05\05\05\05\05\05\05\05\05\05\05\05\05\05\05\05\05\05\05\05\05\05\05\05\05\05\05\05\05\05\05\05\05\05\05\05\05\05\05\05\05\05\05\05\05\05\05\05\05\05\05\05\05\05\05\05\05\00" }>, align 1
@alloc1584 = private unnamed_addr constant <{ i8*, [16 x i8] }> <{ i8* getelementptr inbounds (<{ [100 x i8] }>, <{ [100 x i8] }>* @alloc1736, i32 0, i32 0, i32 0), [16 x i8] c"d\00\00\00\00\00\00\00\F8\05\00\00.\00\00\00" }>, align 8
@3 = private unnamed_addr constant <{ [512 x i8] }> <{ [512 x i8] c"\00\01\02\03\04\04\05\05\06\06\06\06\07\07\07\07\08\08\08\08\08\08\08\08\09\09\09\09\09\09\09\09\0A\0A\0A\0A\0A\0A\0A\0A\0A\0A\0A\0A\0A\0A\0A\0A\0B\0B\0B\0B\0B\0B\0B\0B\0B\0B\0B\0B\0B\0B\0B\0B\0C\0C\0C\0C\0C\0C\0C\0C\0C\0C\0C\0C\0C\0C\0C\0C\0C\0C\0C\0C\0C\0C\0C\0C\0C\0C\0C\0C\0C\0C\0C\0C\0D\0D\0D\0D\0D\0D\0D\0D\0D\0D\0D\0D\0D\0D\0D\0D\0D\0D\0D\0D\0D\0D\0D\0D\0D\0D\0D\0D\0D\0D\0D\0D\0E\0E\0E\0E\0E\0E\0E\0E\0E\0E\0E\0E\0E\0E\0E\0E\0E\0E\0E\0E\0E\0E\0E\0E\0E\0E\0E\0E\0E\0E\0E\0E\0E\0E\0E\0E\0E\0E\0E\0E\0E\0E\0E\0E\0E\0E\0E\0E\0E\0E\0E\0E\0E\0E\0E\0E\0E\0E\0E\0E\0E\0E\0E\0E\0F\0F\0F\0F\0F\0F\0F\0F\0F\0F\0F\0F\0F\0F\0F\0F\0F\0F\0F\0F\0F\0F\0F\0F\0F\0F\0F\0F\0F\0F\0F\0F\0F\0F\0F\0F\0F\0F\0F\0F\0F\0F\0F\0F\0F\0F\0F\0F\0F\0F\0F\0F\0F\0F\0F\0F\0F\0F\0F\0F\0F\0F\0F\0F\10\10\10\10\10\10\10\10\10\10\10\10\10\10\10\10\10\10\10\10\10\10\10\10\10\10\10\10\10\10\10\10\10\10\10\10\10\10\10\10\10\10\10\10\10\10\10\10\10\10\10\10\10\10\10\10\10\10\10\10\10\10\10\10\10\10\10\10\10\10\10\10\10\10\10\10\10\10\10\10\10\10\10\10\10\10\10\10\10\10\10\10\10\10\10\10\10\10\10\10\10\10\10\10\10\10\10\10\10\10\10\10\10\10\10\10\10\10\10\10\10\10\10\10\10\10\10\10\11\11\11\11\11\11\11\11\11\11\11\11\11\11\11\11\11\11\11\11\11\11\11\11\11\11\11\11\11\11\11\11\11\11\11\11\11\11\11\11\11\11\11\11\11\11\11\11\11\11\11\11\11\11\11\11\11\11\11\11\11\11\11\11\11\11\11\11\11\11\11\11\11\11\11\11\11\11\11\11\11\11\11\11\11\11\11\11\11\11\11\11\11\11\11\11\11\11\11\11\11\11\11\11\11\11\11\11\11\11\11\11\11\11\11\11\11\11\11\11\11\11\11\11\11\11\11\11" }>, align 1
@4 = private unnamed_addr constant <{ [512 x i8] }> <{ [512 x i8] c"\00\00\00\00\01\01\01\01\02\02\02\02\02\02\02\02\03\03\03\03\03\03\03\03\03\03\03\03\03\03\03\03\04\04\04\04\04\04\04\04\04\04\04\04\04\04\04\04\04\04\04\04\04\04\04\04\04\04\04\04\04\04\04\04\05\05\05\05\05\05\05\05\05\05\05\05\05\05\05\05\05\05\05\05\05\05\05\05\05\05\05\05\05\05\05\05\05\05\05\05\05\05\05\05\05\05\05\05\05\05\05\05\05\05\05\05\05\05\05\05\05\05\05\05\05\05\05\05\06\06\06\06\06\06\06\06\06\06\06\06\06\06\06\06\06\06\06\06\06\06\06\06\06\06\06\06\06\06\06\06\06\06\06\06\06\06\06\06\06\06\06\06\06\06\06\06\06\06\06\06\06\06\06\06\06\06\06\06\06\06\06\06\06\06\06\06\06\06\06\06\06\06\06\06\06\06\06\06\06\06\06\06\06\06\06\06\06\06\06\06\06\06\06\06\06\06\06\06\06\06\06\06\06\06\06\06\06\06\06\06\06\06\06\06\06\06\06\06\06\06\06\06\06\06\06\06\07\07\07\07\07\07\07\07\07\07\07\07\07\07\07\07\07\07\07\07\07\07\07\07\07\07\07\07\07\07\07\07\07\07\07\07\07\07\07\07\07\07\07\07\07\07\07\07\07\07\07\07\07\07\07\07\07\07\07\07\07\07\07\07\07\07\07\07\07\07\07\07\07\07\07\07\07\07\07\07\07\07\07\07\07\07\07\07\07\07\07\07\07\07\07\07\07\07\07\07\07\07\07\07\07\07\07\07\07\07\07\07\07\07\07\07\07\07\07\07\07\07\07\07\07\07\07\07\07\07\07\07\07\07\07\07\07\07\07\07\07\07\07\07\07\07\07\07\07\07\07\07\07\07\07\07\07\07\07\07\07\07\07\07\07\07\07\07\07\07\07\07\07\07\07\07\07\07\07\07\07\07\07\07\07\07\07\07\07\07\07\07\07\07\07\07\07\07\07\07\07\07\07\07\07\07\07\07\07\07\07\07\07\07\07\07\07\07\07\07\07\07\07\07\07\07\07\07\07\07\07\07\07\07\07\07\07\07\07\07\07\07\07\07\07\07\07\07\07\07\07\07\07\07\07\07" }>, align 1
@5 = private unnamed_addr constant <{ [128 x i8] }> <{ [128 x i8] c"\00\00\12\13\14\14\15\15\16\16\16\16\17\17\17\17\18\18\18\18\18\18\18\18\19\19\19\19\19\19\19\19\1A\1A\1A\1A\1A\1A\1A\1A\1A\1A\1A\1A\1A\1A\1A\1A\1B\1B\1B\1B\1B\1B\1B\1B\1B\1B\1B\1B\1B\1B\1B\1B\1C\1C\1C\1C\1C\1C\1C\1C\1C\1C\1C\1C\1C\1C\1C\1C\1C\1C\1C\1C\1C\1C\1C\1C\1C\1C\1C\1C\1C\1C\1C\1C\1D\1D\1D\1D\1D\1D\1D\1D\1D\1D\1D\1D\1D\1D\1D\1D\1D\1D\1D\1D\1D\1D\1D\1D\1D\1D\1D\1D\1D\1D\1D\1D" }>, align 1
@alloc1592 = private unnamed_addr constant <{ i8*, [16 x i8] }> <{ i8* getelementptr inbounds (<{ [100 x i8] }>, <{ [100 x i8] }>* @alloc1736, i32 0, i32 0, i32 0), [16 x i8] c"d\00\00\00\00\00\00\00\00\06\00\00\17\00\00\00" }>, align 8
@6 = private unnamed_addr constant <{ [128 x i8] }> <{ [128 x i8] c"\00\00\08\08\09\09\09\09\0A\0A\0A\0A\0A\0A\0A\0A\0B\0B\0B\0B\0B\0B\0B\0B\0B\0B\0B\0B\0B\0B\0B\0B\0C\0C\0C\0C\0C\0C\0C\0C\0C\0C\0C\0C\0C\0C\0C\0C\0C\0C\0C\0C\0C\0C\0C\0C\0C\0C\0C\0C\0C\0C\0C\0C\0D\0D\0D\0D\0D\0D\0D\0D\0D\0D\0D\0D\0D\0D\0D\0D\0D\0D\0D\0D\0D\0D\0D\0D\0D\0D\0D\0D\0D\0D\0D\0D\0D\0D\0D\0D\0D\0D\0D\0D\0D\0D\0D\0D\0D\0D\0D\0D\0D\0D\0D\0D\0D\0D\0D\0D\0D\0D\0D\0D\0D\0D\0D\0D" }>, align 1
@alloc1600 = private unnamed_addr constant <{ i8*, [16 x i8] }> <{ i8* getelementptr inbounds (<{ [100 x i8] }>, <{ [100 x i8] }>* @alloc1736, i32 0, i32 0, i32 0), [16 x i8] c"d\00\00\00\00\00\00\00\0A\06\00\003\00\00\00" }>, align 8
@alloc1608 = private unnamed_addr constant <{ i8*, [16 x i8] }> <{ i8* getelementptr inbounds (<{ [100 x i8] }>, <{ [100 x i8] }>* @alloc1736, i32 0, i32 0, i32 0), [16 x i8] c"d\00\00\00\00\00\00\00A\06\00\00&\00\00\00" }>, align 8
@alloc1609 = private unnamed_addr constant <{ [47 x i8] }> <{ [47 x i8] c"assertion failed: d.params.flush_remaining == 0" }>, align 1
@alloc1611 = private unnamed_addr constant <{ i8*, [16 x i8] }> <{ i8* getelementptr inbounds (<{ [100 x i8] }>, <{ [100 x i8] }>* @alloc1736, i32 0, i32 0, i32 0), [16 x i8] c"d\00\00\00\00\00\00\00T\06\00\00\09\00\00\00" }>, align 8
@alloc1624 = private unnamed_addr constant <{ [51 x i8] }> <{ [51 x i8] c"assertion failed: match_len >= MIN_MATCH_LEN.into()" }>, align 1
@alloc1626 = private unnamed_addr constant <{ i8*, [16 x i8] }> <{ i8* getelementptr inbounds (<{ [100 x i8] }>, <{ [100 x i8] }>* @alloc1736, i32 0, i32 0, i32 0), [16 x i8] c"d\00\00\00\00\00\00\00\C4\06\00\00\05\00\00\00" }>, align 8
@alloc1627 = private unnamed_addr constant <{ [33 x i8] }> <{ [33 x i8] c"assertion failed: match_dist >= 1" }>, align 1
@alloc1629 = private unnamed_addr constant <{ i8*, [16 x i8] }> <{ i8* getelementptr inbounds (<{ [100 x i8] }>, <{ [100 x i8] }>* @alloc1736, i32 0, i32 0, i32 0), [16 x i8] c"d\00\00\00\00\00\00\00\C5\06\00\00\05\00\00\00" }>, align 8
@alloc1630 = private unnamed_addr constant <{ [53 x i8] }> <{ [53 x i8] c"assertion failed: match_dist as usize <= LZ_DICT_SIZE" }>, align 1
@alloc1632 = private unnamed_addr constant <{ i8*, [16 x i8] }> <{ i8* getelementptr inbounds (<{ [100 x i8] }>, <{ [100 x i8] }>* @alloc1736, i32 0, i32 0, i32 0), [16 x i8] c"d\00\00\00\00\00\00\00\C6\06\00\00\05\00\00\00" }>, align 8
@alloc1640 = private unnamed_addr constant <{ i8*, [16 x i8] }> <{ i8* getelementptr inbounds (<{ [100 x i8] }>, <{ [100 x i8] }>* @alloc1736, i32 0, i32 0, i32 0), [16 x i8] c"d\00\00\00\00\00\00\00\D9\06\00\00\10\00\00\00" }>, align 8
@alloc1642 = private unnamed_addr constant <{ i8*, [16 x i8] }> <{ i8* getelementptr inbounds (<{ [100 x i8] }>, <{ [100 x i8] }>* @alloc1736, i32 0, i32 0, i32 0), [16 x i8] c"d\00\00\00\00\00\00\00\D9\06\00\00\05\00\00\00" }>, align 8
@alloc1648 = private unnamed_addr constant <{ i8*, [16 x i8] }> <{ i8* getelementptr inbounds (<{ [100 x i8] }>, <{ [100 x i8] }>* @alloc1736, i32 0, i32 0, i32 0), [16 x i8] c"d\00\00\00\00\00\00\00\FC\06\00\00\18\00\00\00" }>, align 8
@alloc1660 = private unnamed_addr constant <{ i8*, [16 x i8] }> <{ i8* getelementptr inbounds (<{ [100 x i8] }>, <{ [100 x i8] }>* @alloc1736, i32 0, i32 0, i32 0), [16 x i8] c"d\00\00\00\00\00\00\00\0E\07\00\00\18\00\00\00" }>, align 8
@alloc1678 = private unnamed_addr constant <{ i8*, [16 x i8] }> <{ i8* getelementptr inbounds (<{ [100 x i8] }>, <{ [100 x i8] }>* @alloc1736, i32 0, i32 0, i32 0), [16 x i8] c"d\00\00\00\00\00\00\008\07\00\00!\00\00\00" }>, align 8
@alloc1685 = private unnamed_addr constant <{ [47 x i8] }> <{ [47 x i8] c"assertion failed: lookahead_size >= len_to_move" }>, align 1
@alloc1687 = private unnamed_addr constant <{ i8*, [16 x i8] }> <{ i8* getelementptr inbounds (<{ [100 x i8] }>, <{ [100 x i8] }>* @alloc1736, i32 0, i32 0, i32 0), [16 x i8] c"d\00\00\00\00\00\00\00|\07\00\00\09\00\00\00" }>, align 8
@alloc1689 = private unnamed_addr constant <{ i8*, [16 x i8] }> <{ i8* getelementptr inbounds (<{ [100 x i8] }>, <{ [100 x i8] }>* @alloc1736, i32 0, i32 0, i32 0), [16 x i8] c"d\00\00\00\00\00\00\00\B8\07\00\00\0D\00\00\00" }>, align 8
@alloc1691 = private unnamed_addr constant <{ i8*, [16 x i8] }> <{ i8* getelementptr inbounds (<{ [100 x i8] }>, <{ [100 x i8] }>* @alloc1736, i32 0, i32 0, i32 0), [16 x i8] c"d\00\00\00\00\00\00\00\B8\07\00\00B\00\00\00" }>, align 8
@alloc1695 = private unnamed_addr constant <{ i8*, [16 x i8] }> <{ i8* getelementptr inbounds (<{ [100 x i8] }>, <{ [100 x i8] }>* @alloc1736, i32 0, i32 0, i32 0), [16 x i8] c"d\00\00\00\00\00\00\00\BC\07\00\00\11\00\00\00" }>, align 8
@alloc1697 = private unnamed_addr constant <{ i8*, [16 x i8] }> <{ i8* getelementptr inbounds (<{ [100 x i8] }>, <{ [100 x i8] }>* @alloc1736, i32 0, i32 0, i32 0), [16 x i8] c"d\00\00\00\00\00\00\00\BD\07\00\00'\00\00\00" }>, align 8
@alloc1711 = private unnamed_addr constant <{ i8*, [16 x i8] }> <{ i8* getelementptr inbounds (<{ [100 x i8] }>, <{ [100 x i8] }>* @alloc1736, i32 0, i32 0, i32 0), [16 x i8] c"d\00\00\00\00\00\00\00\0F\08\00\00\22\00\00\00" }>, align 8
@alloc1715 = private unnamed_addr constant <{ i8*, [16 x i8] }> <{ i8* getelementptr inbounds (<{ [100 x i8] }>, <{ [100 x i8] }>* @alloc1736, i32 0, i32 0, i32 0), [16 x i8] c"d\00\00\00\00\00\00\00\12\08\00\00)\00\00\00" }>, align 8
@alloc1717 = private unnamed_addr constant <{ i8*, [16 x i8] }> <{ i8* getelementptr inbounds (<{ [100 x i8] }>, <{ [100 x i8] }>* @alloc1736, i32 0, i32 0, i32 0), [16 x i8] c"d\00\00\00\00\00\00\00\12\08\00\00\19\00\00\00" }>, align 8
@alloc1725 = private unnamed_addr constant <{ i8*, [16 x i8] }> <{ i8* getelementptr inbounds (<{ [100 x i8] }>, <{ [100 x i8] }>* @alloc1736, i32 0, i32 0, i32 0), [16 x i8] c"d\00\00\00\00\00\00\00k\08\00\00\13\00\00\00" }>, align 8
@alloc1727 = private unnamed_addr constant <{ i8*, [16 x i8] }> <{ i8* getelementptr inbounds (<{ [100 x i8] }>, <{ [100 x i8] }>* @alloc1736, i32 0, i32 0, i32 0), [16 x i8] c"d\00\00\00\00\00\00\00l\08\00\00#\00\00\00" }>, align 8
@alloc1731 = private unnamed_addr constant <{ i8*, [16 x i8] }> <{ i8* getelementptr inbounds (<{ [100 x i8] }>, <{ [100 x i8] }>* @alloc1736, i32 0, i32 0, i32 0), [16 x i8] c"d\00\00\00\00\00\00\00\DA\08\00\00B\00\00\00" }>, align 8
@7 = private unnamed_addr constant <{ [44 x i8] }> <{ [44 x i8] c"\00\00\00\00\01\00\00\00\06\00\00\00 \00\00\00\10\00\00\00 \00\00\00\80\00\00\00\00\01\00\00\00\02\00\00\00\03\00\00\DC\05\00\00" }>, align 4
@alloc1740 = private unnamed_addr constant <{ [102 x i8] }> <{ [102 x i8] c"/home/alwagner/.cargo/registry/src/github.com-1ecc6299db9ec823/miniz_oxide-0.4.0/src/deflate/stream.rs" }>, align 1
@alloc1739 = private unnamed_addr constant <{ i8*, [16 x i8] }> <{ i8* getelementptr inbounds (<{ [102 x i8] }>, <{ [102 x i8] }>* @alloc1740, i32 0, i32 0, i32 0), [16 x i8] c"f\00\00\00\00\00\00\00:\00\00\00\14\00\00\00" }>, align 8
@alloc1741 = private unnamed_addr constant <{ i8*, [16 x i8] }> <{ i8* getelementptr inbounds (<{ [102 x i8] }>, <{ [102 x i8] }>* @alloc1740, i32 0, i32 0, i32 0), [16 x i8] c"f\00\00\00\00\00\00\00;\00\00\00\19\00\00\00" }>, align 8
@alloc1747 = private unnamed_addr constant <{ [99 x i8] }> <{ [99 x i8] c"/home/alwagner/.cargo/registry/src/github.com-1ecc6299db9ec823/miniz_oxide-0.4.0/src/deflate/mod.rs" }>, align 1
@alloc1743 = private unnamed_addr constant <{ i8*, [16 x i8] }> <{ i8* getelementptr inbounds (<{ [99 x i8] }>, <{ [99 x i8] }>* @alloc1747, i32 0, i32 0, i32 0), [16 x i8] c"c\00\00\00\00\00\00\00\84\00\00\00\0E\00\00\00" }>, align 8
@alloc1745 = private unnamed_addr constant <{ i8*, [16 x i8] }> <{ i8* getelementptr inbounds (<{ [99 x i8] }>, <{ [99 x i8] }>* @alloc1747, i32 0, i32 0, i32 0), [16 x i8] c"c\00\00\00\00\00\00\00\85\00\00\00\12\00\00\00" }>, align 8
@alloc1746 = private unnamed_addr constant <{ [37 x i8] }> <{ [37 x i8] c"Bug! Unexpectedly failed to compress!" }>, align 1
@alloc1748 = private unnamed_addr constant <{ i8*, [16 x i8] }> <{ i8* getelementptr inbounds (<{ [99 x i8] }>, <{ [99 x i8] }>* @alloc1747, i32 0, i32 0, i32 0), [16 x i8] c"c\00\00\00\00\00\00\00\98\00\00\00\12\00\00\00" }>, align 8
@alloc2021 = private unnamed_addr constant <{ [100 x i8] }> <{ [100 x i8] c"/home/alwagner/.cargo/registry/src/github.com-1ecc6299db9ec823/miniz_oxide-0.4.0/src/inflate/core.rs" }>, align 1
@alloc1752 = private unnamed_addr constant <{ i8*, [16 x i8] }> <{ i8* getelementptr inbounds (<{ [100 x i8] }>, <{ [100 x i8] }>* @alloc2021, i32 0, i32 0, i32 0), [16 x i8] c"d\00\00\00\00\00\00\007\00\00\00 \00\00\00" }>, align 8
@alloc1758 = private unnamed_addr constant <{ i8*, [16 x i8] }> <{ i8* getelementptr inbounds (<{ [100 x i8] }>, <{ [100 x i8] }>* @alloc2021, i32 0, i32 0, i32 0), [16 x i8] c"d\00\00\00\00\00\00\00b\01\00\00#\00\00\00" }>, align 8
@alloc1764 = private unnamed_addr constant <{ i8*, [16 x i8] }> <{ i8* getelementptr inbounds (<{ [100 x i8] }>, <{ [100 x i8] }>* @alloc2021, i32 0, i32 0, i32 0), [16 x i8] c"d\00\00\00\00\00\00\00\D7\01\00\00\1D\00\00\00" }>, align 8
@alloc1780 = private unnamed_addr constant <{ i8*, [16 x i8] }> <{ i8* getelementptr inbounds (<{ [100 x i8] }>, <{ [100 x i8] }>* @alloc2021, i32 0, i32 0, i32 0), [16 x i8] c"d\00\00\00\00\00\00\00t\02\00\00\1A\00\00\00" }>, align 8
@alloc1788 = private unnamed_addr constant <{ i8*, [16 x i8] }> <{ i8* getelementptr inbounds (<{ [100 x i8] }>, <{ [100 x i8] }>* @alloc2021, i32 0, i32 0, i32 0), [16 x i8] c"d\00\00\00\00\00\00\00{\02\00\00\1C\00\00\00" }>, align 8
@alloc1790 = private unnamed_addr constant <{ i8*, [16 x i8] }> <{ i8* getelementptr inbounds (<{ [100 x i8] }>, <{ [100 x i8] }>* @alloc2021, i32 0, i32 0, i32 0), [16 x i8] c"d\00\00\00\00\00\00\00|\02\00\00\0D\00\00\00" }>, align 8
@alloc1798 = private unnamed_addr constant <{ i8*, [16 x i8] }> <{ i8* getelementptr inbounds (<{ [100 x i8] }>, <{ [100 x i8] }>* @alloc2021, i32 0, i32 0, i32 0), [16 x i8] c"d\00\00\00\00\00\00\00\8F\02\00\00\1D\00\00\00" }>, align 8
@alloc1800 = private unnamed_addr constant <{ i8*, [16 x i8] }> <{ i8* getelementptr inbounds (<{ [100 x i8] }>, <{ [100 x i8] }>* @alloc2021, i32 0, i32 0, i32 0), [16 x i8] c"d\00\00\00\00\00\00\00\94\02\00\00 \00\00\00" }>, align 8
@alloc1810 = private unnamed_addr constant <{ i8*, [16 x i8] }> <{ i8* getelementptr inbounds (<{ [100 x i8] }>, <{ [100 x i8] }>* @alloc2021, i32 0, i32 0, i32 0), [16 x i8] c"d\00\00\00\00\00\00\00\B0\02\00\00\14\00\00\00" }>, align 8
@alloc1816 = private unnamed_addr constant <{ i8*, [16 x i8] }> <{ i8* getelementptr inbounds (<{ [100 x i8] }>, <{ [100 x i8] }>* @alloc2021, i32 0, i32 0, i32 0), [16 x i8] c"d\00\00\00\00\00\00\00\BB\02\00\00\0D\00\00\00" }>, align 8
@alloc1818 = private unnamed_addr constant <{ i8*, [16 x i8] }> <{ i8* getelementptr inbounds (<{ [100 x i8] }>, <{ [100 x i8] }>* @alloc2021, i32 0, i32 0, i32 0), [16 x i8] c"d\00\00\00\00\00\00\00\F2\02\00\00\1E\00\00\00" }>, align 8
@alloc1820 = private unnamed_addr constant <{ i8*, [16 x i8] }> <{ i8* getelementptr inbounds (<{ [100 x i8] }>, <{ [100 x i8] }>* @alloc2021, i32 0, i32 0, i32 0), [16 x i8] c"d\00\00\00\00\00\00\00\F2\02\00\00\09\00\00\00" }>, align 8
@alloc1822 = private unnamed_addr constant <{ i8*, [16 x i8] }> <{ i8* getelementptr inbounds (<{ [100 x i8] }>, <{ [100 x i8] }>* @alloc2021, i32 0, i32 0, i32 0), [16 x i8] c"d\00\00\00\00\00\00\00\F3\02\00\00\22\00\00\00" }>, align 8
@alloc1824 = private unnamed_addr constant <{ i8*, [16 x i8] }> <{ i8* getelementptr inbounds (<{ [100 x i8] }>, <{ [100 x i8] }>* @alloc2021, i32 0, i32 0, i32 0), [16 x i8] c"d\00\00\00\00\00\00\00\F3\02\00\00\09\00\00\00" }>, align 8
@alloc1826 = private unnamed_addr constant <{ i8*, [16 x i8] }> <{ i8* getelementptr inbounds (<{ [100 x i8] }>, <{ [100 x i8] }>* @alloc2021, i32 0, i32 0, i32 0), [16 x i8] c"d\00\00\00\00\00\00\00\F4\02\00\00\22\00\00\00" }>, align 8
@alloc1828 = private unnamed_addr constant <{ i8*, [16 x i8] }> <{ i8* getelementptr inbounds (<{ [100 x i8] }>, <{ [100 x i8] }>* @alloc2021, i32 0, i32 0, i32 0), [16 x i8] c"d\00\00\00\00\00\00\00\F4\02\00\00\09\00\00\00" }>, align 8
@alloc1830 = private unnamed_addr constant <{ i8*, [16 x i8] }> <{ i8* getelementptr inbounds (<{ [100 x i8] }>, <{ [100 x i8] }>* @alloc2021, i32 0, i32 0, i32 0), [16 x i8] c"d\00\00\00\00\00\00\00\F5\02\00\00\22\00\00\00" }>, align 8
@alloc1832 = private unnamed_addr constant <{ i8*, [16 x i8] }> <{ i8* getelementptr inbounds (<{ [100 x i8] }>, <{ [100 x i8] }>* @alloc2021, i32 0, i32 0, i32 0), [16 x i8] c"d\00\00\00\00\00\00\00\F5\02\00\00\09\00\00\00" }>, align 8
@alloc1837 = private unnamed_addr constant <{ i8*, [16 x i8] }> <{ i8* getelementptr inbounds (<{ [100 x i8] }>, <{ [100 x i8] }>* @alloc2021, i32 0, i32 0, i32 0), [16 x i8] c"d\00\00\00\00\00\00\00\02\03\00\00\22\00\00\00" }>, align 8
@alloc1839 = private unnamed_addr constant <{ i8*, [16 x i8] }> <{ i8* getelementptr inbounds (<{ [100 x i8] }>, <{ [100 x i8] }>* @alloc2021, i32 0, i32 0, i32 0), [16 x i8] c"d\00\00\00\00\00\00\00\02\03\00\00\0D\00\00\00" }>, align 8
@alloc1841 = private unnamed_addr constant <{ i8*, [16 x i8] }> <{ i8* getelementptr inbounds (<{ [100 x i8] }>, <{ [100 x i8] }>* @alloc2021, i32 0, i32 0, i32 0), [16 x i8] c"d\00\00\00\00\00\00\00\03\03\00\00&\00\00\00" }>, align 8
@alloc1843 = private unnamed_addr constant <{ i8*, [16 x i8] }> <{ i8* getelementptr inbounds (<{ [100 x i8] }>, <{ [100 x i8] }>* @alloc2021, i32 0, i32 0, i32 0), [16 x i8] c"d\00\00\00\00\00\00\00\03\03\00\00\0D\00\00\00" }>, align 8
@alloc1845 = private unnamed_addr constant <{ i8*, [16 x i8] }> <{ i8* getelementptr inbounds (<{ [100 x i8] }>, <{ [100 x i8] }>* @alloc2021, i32 0, i32 0, i32 0), [16 x i8] c"d\00\00\00\00\00\00\00\04\03\00\00&\00\00\00" }>, align 8
@alloc1847 = private unnamed_addr constant <{ i8*, [16 x i8] }> <{ i8* getelementptr inbounds (<{ [100 x i8] }>, <{ [100 x i8] }>* @alloc2021, i32 0, i32 0, i32 0), [16 x i8] c"d\00\00\00\00\00\00\00\04\03\00\00\0D\00\00\00" }>, align 8
@alloc1849 = private unnamed_addr constant <{ i8*, [16 x i8] }> <{ i8* getelementptr inbounds (<{ [100 x i8] }>, <{ [100 x i8] }>* @alloc2021, i32 0, i32 0, i32 0), [16 x i8] c"d\00\00\00\00\00\00\00\FE\02\00\00\22\00\00\00" }>, align 8
@alloc1851 = private unnamed_addr constant <{ i8*, [16 x i8] }> <{ i8* getelementptr inbounds (<{ [100 x i8] }>, <{ [100 x i8] }>* @alloc2021, i32 0, i32 0, i32 0), [16 x i8] c"d\00\00\00\00\00\00\00\FE\02\00\00\0D\00\00\00" }>, align 8
@alloc1853 = private unnamed_addr constant <{ i8*, [16 x i8] }> <{ i8* getelementptr inbounds (<{ [100 x i8] }>, <{ [100 x i8] }>* @alloc2021, i32 0, i32 0, i32 0), [16 x i8] c"d\00\00\00\00\00\00\00\FF\02\00\00&\00\00\00" }>, align 8
@alloc1855 = private unnamed_addr constant <{ i8*, [16 x i8] }> <{ i8* getelementptr inbounds (<{ [100 x i8] }>, <{ [100 x i8] }>* @alloc2021, i32 0, i32 0, i32 0), [16 x i8] c"d\00\00\00\00\00\00\00\FF\02\00\00\0D\00\00\00" }>, align 8
@alloc1857 = private unnamed_addr constant <{ i8*, [16 x i8] }> <{ i8* getelementptr inbounds (<{ [100 x i8] }>, <{ [100 x i8] }>* @alloc2021, i32 0, i32 0, i32 0), [16 x i8] c"d\00\00\00\00\00\00\00\FC\02\00\00#\00\00\00" }>, align 8
@alloc1859 = private unnamed_addr constant <{ i8*, [16 x i8] }> <{ i8* getelementptr inbounds (<{ [100 x i8] }>, <{ [100 x i8] }>* @alloc2021, i32 0, i32 0, i32 0), [16 x i8] c"d\00\00\00\00\00\00\00\FC\02\00\00\0E\00\00\00" }>, align 8
@alloc1861 = private unnamed_addr constant <{ i8*, [16 x i8] }> <{ i8* getelementptr inbounds (<{ [100 x i8] }>, <{ [100 x i8] }>* @alloc2021, i32 0, i32 0, i32 0), [16 x i8] c"d\00\00\00\00\00\00\00*\03\00\004\00\00\00" }>, align 8
@alloc1863 = private unnamed_addr constant <{ i8*, [16 x i8] }> <{ i8* getelementptr inbounds (<{ [100 x i8] }>, <{ [100 x i8] }>* @alloc2021, i32 0, i32 0, i32 0), [16 x i8] c"d\00\00\00\00\00\00\00+\03\00\00\0D\00\00\00" }>, align 8
@alloc1865 = private unnamed_addr constant <{ i8*, [16 x i8] }> <{ i8* getelementptr inbounds (<{ [100 x i8] }>, <{ [100 x i8] }>* @alloc2021, i32 0, i32 0, i32 0), [16 x i8] c"d\00\00\00\00\00\00\00+\03\00\004\00\00\00" }>, align 8
@alloc1869 = private unnamed_addr constant <{ i8*, [16 x i8] }> <{ i8* getelementptr inbounds (<{ [100 x i8] }>, <{ [100 x i8] }>* @alloc2021, i32 0, i32 0, i32 0), [16 x i8] c"d\00\00\00\00\00\00\00-\03\00\004\00\00\00" }>, align 8
@alloc1871 = private unnamed_addr constant <{ i8*, [16 x i8] }> <{ i8* getelementptr inbounds (<{ [100 x i8] }>, <{ [100 x i8] }>* @alloc2021, i32 0, i32 0, i32 0), [16 x i8] c"d\00\00\00\00\00\00\00.\03\00\00\0D\00\00\00" }>, align 8
@alloc1873 = private unnamed_addr constant <{ i8*, [16 x i8] }> <{ i8* getelementptr inbounds (<{ [100 x i8] }>, <{ [100 x i8] }>* @alloc2021, i32 0, i32 0, i32 0), [16 x i8] c"d\00\00\00\00\00\00\00.\03\00\00E\00\00\00" }>, align 8
@alloc1877 = private unnamed_addr constant <{ i8*, [16 x i8] }> <{ i8* getelementptr inbounds (<{ [100 x i8] }>, <{ [100 x i8] }>* @alloc2021, i32 0, i32 0, i32 0), [16 x i8] c"d\00\00\00\00\00\00\00\19\03\00\00\1E\00\00\00" }>, align 8
@alloc1879 = private unnamed_addr constant <{ i8*, [16 x i8] }> <{ i8* getelementptr inbounds (<{ [100 x i8] }>, <{ [100 x i8] }>* @alloc2021, i32 0, i32 0, i32 0), [16 x i8] c"d\00\00\00\00\00\00\00\19\03\00\00\09\00\00\00" }>, align 8
@alloc1881 = private unnamed_addr constant <{ i8*, [16 x i8] }> <{ i8* getelementptr inbounds (<{ [100 x i8] }>, <{ [100 x i8] }>* @alloc2021, i32 0, i32 0, i32 0), [16 x i8] c"d\00\00\00\00\00\00\00\1A\03\00\00\22\00\00\00" }>, align 8
@alloc1883 = private unnamed_addr constant <{ i8*, [16 x i8] }> <{ i8* getelementptr inbounds (<{ [100 x i8] }>, <{ [100 x i8] }>* @alloc2021, i32 0, i32 0, i32 0), [16 x i8] c"d\00\00\00\00\00\00\00\1A\03\00\00\09\00\00\00" }>, align 8
@alloc1885 = private unnamed_addr constant <{ i8*, [16 x i8] }> <{ i8* getelementptr inbounds (<{ [100 x i8] }>, <{ [100 x i8] }>* @alloc2021, i32 0, i32 0, i32 0), [16 x i8] c"d\00\00\00\00\00\00\00\1B\03\00\00\22\00\00\00" }>, align 8
@alloc1887 = private unnamed_addr constant <{ i8*, [16 x i8] }> <{ i8* getelementptr inbounds (<{ [100 x i8] }>, <{ [100 x i8] }>* @alloc2021, i32 0, i32 0, i32 0), [16 x i8] c"d\00\00\00\00\00\00\00\1B\03\00\00\09\00\00\00" }>, align 8
@8 = private unnamed_addr constant <{ [32 x i8] }> <{ [32 x i8] c"\00\00\00\00\00\00\00\00\01\01\01\01\02\02\02\02\03\03\03\03\04\04\04\04\05\05\05\05\00\00\00\00" }>, align 1
@9 = private unnamed_addr constant <{ [64 x i8] }> <{ [64 x i8] c"\03\00\04\00\05\00\06\00\07\00\08\00\09\00\0A\00\0B\00\0D\00\0F\00\11\00\13\00\17\00\1B\00\1F\00#\00+\003\00;\00C\00S\00c\00s\00\83\00\A3\00\C3\00\E3\00\02\01\00\02\00\02\00\02" }>, align 2
@10 = private unnamed_addr constant <{ [32 x i8] }> <{ [32 x i8] c"\00\00\00\00\01\01\02\02\03\03\04\04\05\05\06\06\07\07\08\08\09\09\0A\0A\0B\0B\0C\0C\0D\0D\0D\0D" }>, align 1
@11 = private unnamed_addr constant <{ [64 x i8] }> <{ [64 x i8] c"\01\00\02\00\03\00\04\00\05\00\07\00\09\00\0D\00\11\00\19\00!\001\00A\00a\00\81\00\C1\00\01\01\81\01\01\02\01\03\01\04\01\06\01\08\01\0C\01\10\01\18\01 \010\01@\01`\00\80\00\80" }>, align 2
@alloc1901 = private unnamed_addr constant <{ i8*, [16 x i8] }> <{ i8* getelementptr inbounds (<{ [100 x i8] }>, <{ [100 x i8] }>* @alloc2021, i32 0, i32 0, i32 0), [16 x i8] c"d\00\00\00\00\00\00\00\0B\06\00\00\1F\00\00\00" }>, align 8
@alloc1903 = private unnamed_addr constant <{ i8*, [16 x i8] }> <{ i8* getelementptr inbounds (<{ [100 x i8] }>, <{ [100 x i8] }>* @alloc2021, i32 0, i32 0, i32 0), [16 x i8] c"d\00\00\00\00\00\00\00\00\05\00\00\15\00\00\00" }>, align 8
@alloc1909 = private unnamed_addr constant <{ i8*, [16 x i8] }> <{ i8* getelementptr inbounds (<{ [100 x i8] }>, <{ [100 x i8] }>* @alloc2021, i32 0, i32 0, i32 0), [16 x i8] c"d\00\00\00\00\00\00\00\06\05\00\00\15\00\00\00" }>, align 8
@alloc1911 = private unnamed_addr constant <{ i8*, [16 x i8] }> <{ i8* getelementptr inbounds (<{ [100 x i8] }>, <{ [100 x i8] }>* @alloc2021, i32 0, i32 0, i32 0), [16 x i8] c"d\00\00\00\00\00\00\00\07\05\00\00+\00\00\00" }>, align 8
@alloc1913 = private unnamed_addr constant <{ i8*, [16 x i8] }> <{ i8* getelementptr inbounds (<{ [100 x i8] }>, <{ [100 x i8] }>* @alloc2021, i32 0, i32 0, i32 0), [16 x i8] c"d\00\00\00\00\00\00\00\07\05\00\00\1A\00\00\00" }>, align 8
@alloc1919 = private unnamed_addr constant <{ i8*, [16 x i8] }> <{ i8* getelementptr inbounds (<{ [100 x i8] }>, <{ [100 x i8] }>* @alloc2021, i32 0, i32 0, i32 0), [16 x i8] c"d\00\00\00\00\00\00\00\BC\04\00\00*\00\00\00" }>, align 8
@alloc1921 = private unnamed_addr constant <{ i8*, [16 x i8] }> <{ i8* getelementptr inbounds (<{ [100 x i8] }>, <{ [100 x i8] }>* @alloc2021, i32 0, i32 0, i32 0), [16 x i8] c"d\00\00\00\00\00\00\00V\06\00\00<\00\00\00" }>, align 8
@alloc1926 = private unnamed_addr constant <{ [109 x i8] }> <{ [109 x i8] c"/home/alwagner/.cargo/registry/src/github.com-1ecc6299db9ec823/miniz_oxide-0.4.0/src/inflate/output_buffer.rs" }>, align 1
@alloc1923 = private unnamed_addr constant <{ i8*, [16 x i8] }> <{ i8* getelementptr inbounds (<{ [109 x i8] }>, <{ [109 x i8] }>* @alloc1926, i32 0, i32 0, i32 0), [16 x i8] c"m\00\00\00\00\00\00\00 \00\00\00\09\00\00\00" }>, align 8
@alloc1925 = private unnamed_addr constant <{ i8*, [16 x i8] }> <{ i8* getelementptr inbounds (<{ [109 x i8] }>, <{ [109 x i8] }>* @alloc1926, i32 0, i32 0, i32 0), [16 x i8] c"m\00\00\00\00\00\00\00*\00\00\00\09\00\00\00" }>, align 8
@alloc1936 = private unnamed_addr constant <{ [102 x i8] }> <{ [102 x i8] c"/home/alwagner/.cargo/registry/src/github.com-1ecc6299db9ec823/miniz_oxide-0.4.0/src/inflate/stream.rs" }>, align 1
@alloc1929 = private unnamed_addr constant <{ i8*, [16 x i8] }> <{ i8* getelementptr inbounds (<{ [102 x i8] }>, <{ [102 x i8] }>* @alloc1936, i32 0, i32 0, i32 0), [16 x i8] c"f\00\00\00\00\00\00\00\F2\00\00\00\15\00\00\00" }>, align 8
@alloc1933 = private unnamed_addr constant <{ i8*, [16 x i8] }> <{ i8* getelementptr inbounds (<{ [102 x i8] }>, <{ [102 x i8] }>* @alloc1936, i32 0, i32 0, i32 0), [16 x i8] c"f\00\00\00\00\00\00\00\22\01\00\00&\00\00\00" }>, align 8
@alloc1938 = private unnamed_addr constant <{ [99 x i8] }> <{ [99 x i8] c"/home/alwagner/.cargo/registry/src/github.com-1ecc6299db9ec823/miniz_oxide-0.4.0/src/inflate/mod.rs" }>, align 1
@alloc1939 = private unnamed_addr constant <{ i8*, [16 x i8] }> <{ i8* getelementptr inbounds (<{ [99 x i8] }>, <{ [99 x i8] }>* @alloc1938, i32 0, i32 0, i32 0), [16 x i8] c"c\00\00\00\00\00\00\00W\00\00\00&\00\00\00" }>, align 8
@alloc1940 = private unnamed_addr constant <{ [5 x i8] }> <{ [5 x i8] c"Fixed" }>, align 1
@alloc1941 = private unnamed_addr constant <{ [3 x i8] }> <{ [3 x i8] c"RLE" }>, align 1
@alloc1942 = private unnamed_addr constant <{ [11 x i8] }> <{ [11 x i8] c"HuffmanOnly" }>, align 1
@alloc1943 = private unnamed_addr constant <{ [8 x i8] }> <{ [8 x i8] c"Filtered" }>, align 1
@alloc1944 = private unnamed_addr constant <{ [7 x i8] }> <{ [7 x i8] c"Default" }>, align 1
@alloc2031 = private unnamed_addr constant <{ [6 x i8] }> <{ [6 x i8] c"Finish" }>, align 1
@alloc2032 = private unnamed_addr constant <{ [4 x i8] }> <{ [4 x i8] c"Full" }>, align 1
@alloc2033 = private unnamed_addr constant <{ [4 x i8] }> <{ [4 x i8] c"Sync" }>, align 1
@alloc2035 = private unnamed_addr constant <{ [4 x i8] }> <{ [4 x i8] c"None" }>, align 1
@alloc2025 = private unnamed_addr constant <{ [4 x i8] }> <{ [4 x i8] c"Done" }>, align 1
@alloc1950 = private unnamed_addr constant <{ [4 x i8] }> <{ [4 x i8] c"Okay" }>, align 1
@alloc1951 = private unnamed_addr constant <{ [12 x i8] }> <{ [12 x i8] c"PutBufFailed" }>, align 1
@alloc2028 = private unnamed_addr constant <{ [8 x i8] }> <{ [8 x i8] c"BadParam" }>, align 1
@alloc1953 = private unnamed_addr constant <{ [18 x i8] }> <{ [18 x i8] c"DefaultCompression" }>, align 1
@alloc1954 = private unnamed_addr constant <{ [12 x i8] }> <{ [12 x i8] c"DefaultLevel" }>, align 1
@alloc1955 = private unnamed_addr constant <{ [15 x i8] }> <{ [15 x i8] c"UberCompression" }>, align 1
@alloc1956 = private unnamed_addr constant <{ [15 x i8] }> <{ [15 x i8] c"BestCompression" }>, align 1
@alloc1957 = private unnamed_addr constant <{ [9 x i8] }> <{ [9 x i8] c"BestSpeed" }>, align 1
@alloc1958 = private unnamed_addr constant <{ [13 x i8] }> <{ [13 x i8] c"NoCompression" }>, align 1
@alloc1959 = private unnamed_addr constant <{ [14 x i8] }> <{ [14 x i8] c"InvalidCodeLen" }>, align 1
@alloc1960 = private unnamed_addr constant <{ [11 x i8] }> <{ [11 x i8] c"InvalidDist" }>, align 1
@alloc1961 = private unnamed_addr constant <{ [13 x i8] }> <{ [13 x i8] c"InvalidLitlen" }>, align 1
@alloc1962 = private unnamed_addr constant <{ [25 x i8] }> <{ [25 x i8] c"BadCodeSizeDistPrevLookup" }>, align 1
@alloc1963 = private unnamed_addr constant <{ [12 x i8] }> <{ [12 x i8] c"BadRawLength" }>, align 1
@alloc1964 = private unnamed_addr constant <{ [19 x i8] }> <{ [19 x i8] c"DistanceOutOfBounds" }>, align 1
@alloc1965 = private unnamed_addr constant <{ [13 x i8] }> <{ [13 x i8] c"BadZlibHeader" }>, align 1
@alloc1966 = private unnamed_addr constant <{ [15 x i8] }> <{ [15 x i8] c"BadTotalSymbols" }>, align 1
@alloc1967 = private unnamed_addr constant <{ [14 x i8] }> <{ [14 x i8] c"BadCodeSizeSum" }>, align 1
@alloc1968 = private unnamed_addr constant <{ [19 x i8] }> <{ [19 x i8] c"BlockTypeUnexpected" }>, align 1
@alloc1969 = private unnamed_addr constant <{ [11 x i8] }> <{ [11 x i8] c"DoneForever" }>, align 1
@alloc1970 = private unnamed_addr constant <{ [11 x i8] }> <{ [11 x i8] c"ReadAdler32" }>, align 1
@alloc1971 = private unnamed_addr constant <{ [20 x i8] }> <{ [20 x i8] c"HuffDecodeOuterLoop2" }>, align 1
@alloc1972 = private unnamed_addr constant <{ [20 x i8] }> <{ [20 x i8] c"HuffDecodeOuterLoop1" }>, align 1
@alloc1973 = private unnamed_addr constant <{ [9 x i8] }> <{ [9 x i8] c"BlockDone" }>, align 1
@alloc1974 = private unnamed_addr constant <{ [18 x i8] }> <{ [18 x i8] c"WriteLenBytesToEnd" }>, align 1
@alloc1975 = private unnamed_addr constant <{ [17 x i8] }> <{ [17 x i8] c"RawStoreFirstByte" }>, align 1
@alloc1976 = private unnamed_addr constant <{ [16 x i8] }> <{ [16 x i8] c"RawReadFirstByte" }>, align 1
@alloc1977 = private unnamed_addr constant <{ [21 x i8] }> <{ [21 x i8] c"ReadExtraBitsDistance" }>, align 1
@alloc1978 = private unnamed_addr constant <{ [14 x i8] }> <{ [14 x i8] c"DecodeDistance" }>, align 1
@alloc1979 = private unnamed_addr constant <{ [19 x i8] }> <{ [19 x i8] c"ReadExtraBitsLitlen" }>, align 1
@alloc1980 = private unnamed_addr constant <{ [11 x i8] }> <{ [11 x i8] c"WriteSymbol" }>, align 1
@alloc1981 = private unnamed_addr constant <{ [12 x i8] }> <{ [12 x i8] c"DecodeLitlen" }>, align 1
@alloc1982 = private unnamed_addr constant <{ [21 x i8] }> <{ [21 x i8] c"ReadExtraBitsCodeSize" }>, align 1
@alloc1983 = private unnamed_addr constant <{ [28 x i8] }> <{ [28 x i8] c"ReadLitlenDistTablesCodeSize" }>, align 1
@alloc1984 = private unnamed_addr constant <{ [24 x i8] }> <{ [24 x i8] c"ReadHufflenTableCodeSize" }>, align 1
@alloc1985 = private unnamed_addr constant <{ [14 x i8] }> <{ [14 x i8] c"ReadTableSizes" }>, align 1
@alloc1986 = private unnamed_addr constant <{ [10 x i8] }> <{ [10 x i8] c"RawMemcpy2" }>, align 1
@alloc1987 = private unnamed_addr constant <{ [10 x i8] }> <{ [10 x i8] c"RawMemcpy1" }>, align 1
@alloc1988 = private unnamed_addr constant <{ [9 x i8] }> <{ [9 x i8] c"RawHeader" }>, align 1
@alloc1989 = private unnamed_addr constant <{ [22 x i8] }> <{ [22 x i8] c"BlockTypeNoCompression" }>, align 1
@alloc1990 = private unnamed_addr constant <{ [15 x i8] }> <{ [15 x i8] c"ReadBlockHeader" }>, align 1
@alloc1991 = private unnamed_addr constant <{ [11 x i8] }> <{ [11 x i8] c"ReadZlibFlg" }>, align 1
@alloc1992 = private unnamed_addr constant <{ [11 x i8] }> <{ [11 x i8] c"ReadZlibCmf" }>, align 1
@alloc1993 = private unnamed_addr constant <{ [5 x i8] }> <{ [5 x i8] c"Start" }>, align 1
@12 = private unnamed_addr constant <{ [6 x i8] }> <{ [6 x i8] c"\01\01\01\00\04\00" }>, align 2
@alloc2006 = private unnamed_addr constant <{ i8*, [16 x i8] }> <{ i8* getelementptr inbounds (<{ [100 x i8] }>, <{ [100 x i8] }>* @alloc2021, i32 0, i32 0, i32 0), [16 x i8] c"d\00\00\00\00\00\00\00\E0\04\00\00(\00\00\00" }>, align 8
@alloc2010 = private unnamed_addr constant <{ i8*, [16 x i8] }> <{ i8* getelementptr inbounds (<{ [100 x i8] }>, <{ [100 x i8] }>* @alloc2021, i32 0, i32 0, i32 0), [16 x i8] c"d\00\00\00\00\00\00\00\F2\04\00\00!\00\00\00" }>, align 8
@alloc2012 = private unnamed_addr constant <{ i8*, [16 x i8] }> <{ i8* getelementptr inbounds (<{ [100 x i8] }>, <{ [100 x i8] }>* @alloc2021, i32 0, i32 0, i32 0), [16 x i8] c"d\00\00\00\00\00\00\00\F8\04\00\00/\00\00\00" }>, align 8
@alloc2014 = private unnamed_addr constant <{ i8*, [16 x i8] }> <{ i8* getelementptr inbounds (<{ [100 x i8] }>, <{ [100 x i8] }>* @alloc2021, i32 0, i32 0, i32 0), [16 x i8] c"d\00\00\00\00\00\00\00\12\05\00\00#\00\00\00" }>, align 8
@alloc2016 = private unnamed_addr constant <{ i8*, [16 x i8] }> <{ i8* getelementptr inbounds (<{ [100 x i8] }>, <{ [100 x i8] }>* @alloc2021, i32 0, i32 0, i32 0), [16 x i8] c"d\00\00\00\00\00\00\00\14\05\00\00\19\00\00\00" }>, align 8
@alloc2018 = private unnamed_addr constant <{ i8*, [16 x i8] }> <{ i8* getelementptr inbounds (<{ [100 x i8] }>, <{ [100 x i8] }>* @alloc2021, i32 0, i32 0, i32 0), [16 x i8] c"d\00\00\00\00\00\00\00\1A\05\00\00\1E\00\00\00" }>, align 8
@alloc2023 = private unnamed_addr constant <{ [13 x i8] }> <{ [13 x i8] c"HasMoreOutput" }>, align 1
@alloc2024 = private unnamed_addr constant <{ [14 x i8] }> <{ [14 x i8] c"NeedsMoreInput" }>, align 1
@alloc2026 = private unnamed_addr constant <{ [6 x i8] }> <{ [6 x i8] c"Failed" }>, align 1
@alloc2027 = private unnamed_addr constant <{ [15 x i8] }> <{ [15 x i8] c"Adler32Mismatch" }>, align 1
@alloc2029 = private unnamed_addr constant <{ [24 x i8] }> <{ [24 x i8] c"FailedCannotMakeProgress" }>, align 1
@alloc2030 = private unnamed_addr constant <{ [5 x i8] }> <{ [5 x i8] c"Block" }>, align 1
@alloc2034 = private unnamed_addr constant <{ [7 x i8] }> <{ [7 x i8] c"Partial" }>, align 1
@alloc2036 = private unnamed_addr constant <{ [8 x i8] }> <{ [8 x i8] c"NeedDict" }>, align 1
@alloc2037 = private unnamed_addr constant <{ [9 x i8] }> <{ [9 x i8] c"StreamEnd" }>, align 1
@alloc2081 = private unnamed_addr constant <{ [2 x i8] }> <{ [2 x i8] c"Ok" }>, align 1
@alloc2039 = private unnamed_addr constant <{ [5 x i8] }> <{ [5 x i8] c"Param" }>, align 1
@alloc2040 = private unnamed_addr constant <{ [7 x i8] }> <{ [7 x i8] c"Version" }>, align 1
@alloc2041 = private unnamed_addr constant <{ [3 x i8] }> <{ [3 x i8] c"Buf" }>, align 1
@alloc2042 = private unnamed_addr constant <{ [3 x i8] }> <{ [3 x i8] c"Mem" }>, align 1
@alloc2043 = private unnamed_addr constant <{ [4 x i8] }> <{ [4 x i8] c"Data" }>, align 1
@alloc2044 = private unnamed_addr constant <{ [6 x i8] }> <{ [6 x i8] c"Stream" }>, align 1
@alloc2045 = private unnamed_addr constant <{ [5 x i8] }> <{ [5 x i8] c"ErrNo" }>, align 1
@alloc2046 = private unnamed_addr constant <{ [3 x i8] }> <{ [3 x i8] c"Raw" }>, align 1
@alloc2047 = private unnamed_addr constant <{ [4 x i8] }> <{ [4 x i8] c"Zlib" }>, align 1
@alloc2048 = private unnamed_addr constant <{ [12 x i8] }> <{ [12 x i8] c"StreamResult" }>, align 1
@alloc2049 = private unnamed_addr constant <{ [14 x i8] }> <{ [14 x i8] c"bytes_consumed" }>, align 1
@vtable.1 = private unnamed_addr constant <{ i8*, [16 x i8], i8*, [0 x i8] }> <{ i8* bitcast (void (i64**)* @"_ZN4core3ptr30drop_in_place$LT$$RF$usize$GT$17hab3930b30ba72e38E" to i8*), [16 x i8] c"\08\00\00\00\00\00\00\00\08\00\00\00\00\00\00\00", i8* bitcast (i1 (i64**, %"core::fmt::Formatter"*)* @"_ZN42_$LT$$RF$T$u20$as$u20$core..fmt..Debug$GT$3fmt17h343c2434c41daa63E" to i8*), [0 x i8] zeroinitializer }>, align 8
@alloc2053 = private unnamed_addr constant <{ [13 x i8] }> <{ [13 x i8] c"bytes_written" }>, align 1
@alloc2054 = private unnamed_addr constant <{ [6 x i8] }> <{ [6 x i8] c"status" }>, align 1
@vtable.2 = private unnamed_addr constant <{ i8*, [16 x i8], i8*, [0 x i8] }> <{ i8* bitcast (void (i64**)* @"_ZN4core3ptr30drop_in_place$LT$$RF$usize$GT$17hab3930b30ba72e38E" to i8*), [16 x i8] c"\08\00\00\00\00\00\00\00\08\00\00\00\00\00\00\00", i8* bitcast (i1 ({ i32, i32 }**, %"core::fmt::Formatter"*)* @"_ZN42_$LT$$RF$T$u20$as$u20$core..fmt..Debug$GT$3fmt17h8eb7bb8da25f0d14E" to i8*), [0 x i8] zeroinitializer }>, align 8
@alloc2074 = private unnamed_addr constant <{ [35 x i8] }> <{ [35 x i8] c"assertion failed: mid <= self.len()" }>, align 1
@alloc2077 = private unnamed_addr constant <{ [3 x i8] }> <{ [3 x i8] c"Err" }>, align 1
@vtable.5 = private unnamed_addr constant <{ i8*, [16 x i8], i8*, [0 x i8] }> <{ i8* bitcast (void (i64**)* @"_ZN4core3ptr30drop_in_place$LT$$RF$usize$GT$17hab3930b30ba72e38E" to i8*), [16 x i8] c"\08\00\00\00\00\00\00\00\08\00\00\00\00\00\00\00", i8* bitcast (i1 (i32**, %"core::fmt::Formatter"*)* @"_ZN42_$LT$$RF$T$u20$as$u20$core..fmt..Debug$GT$3fmt17h6a13e31f76cfacdfE" to i8*), [0 x i8] zeroinitializer }>, align 8
@vtable.6 = private unnamed_addr constant <{ i8*, [16 x i8], i8*, [0 x i8] }> <{ i8* bitcast (void (i64**)* @"_ZN4core3ptr30drop_in_place$LT$$RF$usize$GT$17hab3930b30ba72e38E" to i8*), [16 x i8] c"\08\00\00\00\00\00\00\00\08\00\00\00\00\00\00\00", i8* bitcast (i1 (i32**, %"core::fmt::Formatter"*)* @"_ZN42_$LT$$RF$T$u20$as$u20$core..fmt..Debug$GT$3fmt17hfe43a71ecbaad0d0E" to i8*), [0 x i8] zeroinitializer }>, align 8
@switch.table._ZN11miniz_oxide7deflate4core10TDEFLFlush3new17hd0aa0cd9a8ecfab0E = private unnamed_addr constant [5 x i64] [i64 -42949672960000, i64 -42949672960000, i64 -42949672959488, i64 -42949672959232, i64 -42949672958976], align 8
@switch.table._ZN11miniz_oxide7deflate4core10TDEFLFlush3new17hd0aa0cd9a8ecfab0E.98 = private unnamed_addr constant [5 x i64] [i64 0, i64 1, i64 0, i64 0, i64 0], align 8
@switch.table._ZN11miniz_oxide7MZFlush3new17h120a0ad3e693de5dE = private unnamed_addr constant [5 x i32] [i32 0, i32 2, i32 2, i32 3, i32 4], align 4

; core::ptr::drop_in_place<&usize>
; Function Attrs: inlinehint mustprogress nofree norecurse nosync nounwind nonlazybind readnone uwtable willreturn
define internal void @"_ZN4core3ptr30drop_in_place$LT$$RF$usize$GT$17hab3930b30ba72e38E"(i64** nocapture readnone %_1) unnamed_addr #0 {
start:
  ret void
}

; core::ptr::drop_in_place<miniz_oxide::deflate::core::CompressorOxide>
; Function Attrs: nonlazybind uwtable
define internal fastcc void @"_ZN4core3ptr64drop_in_place$LT$miniz_oxide..deflate..core..CompressorOxide$GT$17h6a91c8352cb202d9E"(%"deflate::core::CompressorOxide"* nocapture readonly %_1) unnamed_addr #1 personality i32 (...)* @rust_eh_personality {
bb5:
  %0 = getelementptr inbounds %"deflate::core::CompressorOxide", %"deflate::core::CompressorOxide"* %_1, i64 0, i32 1, i32 2
  %1 = bitcast %"deflate::buffer::LocalBuf"** %0 to i8**
  %2 = load i8*, i8** %1, align 8, !nonnull !2
  tail call void @__rust_dealloc(i8* nonnull %2, i64 85196, i64 1) #24
  %3 = getelementptr inbounds %"deflate::core::CompressorOxide", %"deflate::core::CompressorOxide"* %_1, i64 0, i32 2
  %4 = bitcast %"deflate::core::HuffmanOxide"** %3 to i8**
  %5 = load i8*, i8** %4, align 8, !nonnull !2
  tail call void @__rust_dealloc(i8* nonnull %5, i64 4320, i64 2) #24
  %6 = getelementptr inbounds %"deflate::core::CompressorOxide", %"deflate::core::CompressorOxide"* %_1, i64 0, i32 3
  %7 = bitcast %"deflate::core::DictOxide"* %6 to i8**
  %8 = load i8*, i8** %7, align 8, !nonnull !2
  tail call void @__rust_dealloc(i8* nonnull %8, i64 164098, i64 2) #24
  ret void
}

; <miniz_oxide::deflate::buffer::HashBuffers as core::default::Default>::default
; Function Attrs: mustprogress nofree nosync nounwind nonlazybind uwtable willreturn
define void @"_ZN84_$LT$miniz_oxide..deflate..buffer..HashBuffers$u20$as$u20$core..default..Default$GT$7default17h6554a9d50de0896aE"(%"deflate::buffer::HashBuffers"* noalias nocapture sret(%"deflate::buffer::HashBuffers") dereferenceable(164098) %0) unnamed_addr #2 {
start:
  %1 = getelementptr inbounds %"deflate::buffer::HashBuffers", %"deflate::buffer::HashBuffers"* %0, i64 0, i32 2, i64 0
  call void @llvm.memset.p0i8.i64(i8* noundef nonnull align 2 dereferenceable(33026) %1, i8 0, i64 33026, i1 false)
  %2 = bitcast %"deflate::buffer::HashBuffers"* %0 to i8*
  call void @llvm.memset.p0i8.i64(i8* noundef nonnull align 2 dereferenceable(65536) %2, i8 0, i64 65536, i1 false)
  %3 = getelementptr inbounds %"deflate::buffer::HashBuffers", %"deflate::buffer::HashBuffers"* %0, i64 0, i32 1
  %4 = bitcast [32768 x i16]* %3 to i8*
  call void @llvm.memset.p0i8.i64(i8* noundef nonnull align 2 dereferenceable(65536) %4, i8 0, i64 65536, i1 false)
  ret void
}

; <miniz_oxide::deflate::buffer::LocalBuf as core::default::Default>::default
; Function Attrs: mustprogress nofree nosync nounwind nonlazybind uwtable willreturn
define void @"_ZN81_$LT$miniz_oxide..deflate..buffer..LocalBuf$u20$as$u20$core..default..Default$GT$7default17h69248ee7ec9b5231E"(%"deflate::buffer::LocalBuf"* noalias nocapture sret(%"deflate::buffer::LocalBuf") dereferenceable(85196) %0) unnamed_addr #2 {
start:
  %1 = getelementptr inbounds %"deflate::buffer::LocalBuf", %"deflate::buffer::LocalBuf"* %0, i64 0, i32 0, i64 0
  call void @llvm.memset.p0i8.i64(i8* noundef nonnull align 1 dereferenceable(85196) %1, i8 0, i64 85196, i1 false)
  ret void
}

; alloc::raw_vec::RawVec<T,A>::reserve::do_reserve_and_handle
; Function Attrs: cold nonlazybind uwtable
define internal fastcc void @"_ZN5alloc7raw_vec19RawVec$LT$T$C$A$GT$7reserve21do_reserve_and_handle17h758b9146cb39653fE"({ i8*, i64 }* noalias nocapture align 8 dereferenceable(16) %slf, i64 %len, i64 %additional) unnamed_addr #3 personality i32 (...)* @rust_eh_personality {
start:
  %_30.i = alloca %"core::option::Option<(core::ptr::non_null::NonNull<u8>, core::alloc::layout::Layout)>", align 8
  %_28.i = alloca %"core::result::Result<core::ptr::non_null::NonNull<[u8]>, alloc::collections::TryReserveError>", align 8
  tail call void @llvm.experimental.noalias.scope.decl(metadata !3)
  %0 = tail call { i64, i1 } @llvm.uadd.with.overflow.i64(i64 %len, i64 %additional) #24
  %1 = extractvalue { i64, i1 } %0, 0
  %2 = extractvalue { i64, i1 } %0, 1
  br i1 %2, label %bb5.i, label %bb8.i

bb8.i:                                            ; preds = %start
  %3 = getelementptr { i8*, i64 }, { i8*, i64 }* %slf, i64 0, i32 1
  %_20.i = load i64, i64* %3, align 8, !alias.scope !3, !noalias !6
  %_19.i = shl i64 %_20.i, 1
  %4 = icmp ugt i64 %_19.i, %1
  %.0.sroa.speculated.i.i.i.i = select i1 %4, i64 %_19.i, i64 %1
  %5 = icmp ugt i64 %.0.sroa.speculated.i.i.i.i, 8
  %.0.sroa.speculated.i.i.i16.i = select i1 %5, i64 %.0.sroa.speculated.i.i.i.i, i64 8
  %6 = bitcast %"core::result::Result<core::ptr::non_null::NonNull<[u8]>, alloc::collections::TryReserveError>"* %_28.i to i8*
  call void @llvm.lifetime.start.p0i8(i64 24, i8* nonnull %6) #24, !noalias !8
  %7 = bitcast %"core::option::Option<(core::ptr::non_null::NonNull<u8>, core::alloc::layout::Layout)>"* %_30.i to i8*
  call void @llvm.lifetime.start.p0i8(i64 24, i8* nonnull %7) #24, !noalias !8
  %self.idx.i = getelementptr { i8*, i64 }, { i8*, i64 }* %slf, i64 0, i32 0
  %_4.i.i = icmp eq i64 %_20.i, 0
  br i1 %_4.i.i, label %bb5.i.i, label %bb6.i.i

bb6.i.i:                                          ; preds = %bb8.i
  %self.idx.val.i = load i8*, i8** %self.idx.i, align 8, !alias.scope !3, !noalias !6
  %_13.sroa.0.0..sroa_idx.i.i = bitcast %"core::option::Option<(core::ptr::non_null::NonNull<u8>, core::alloc::layout::Layout)>"* %_30.i to i8**
  store i8* %self.idx.val.i, i8** %_13.sroa.0.0..sroa_idx.i.i, align 8, !alias.scope !9, !noalias !8
  %8 = getelementptr inbounds %"core::option::Option<(core::ptr::non_null::NonNull<u8>, core::alloc::layout::Layout)>", %"core::option::Option<(core::ptr::non_null::NonNull<u8>, core::alloc::layout::Layout)>"* %_30.i, i64 0, i32 1, i64 0
  store i64 %_20.i, i64* %8, align 8, !alias.scope !9, !noalias !8
  %9 = getelementptr inbounds %"core::option::Option<(core::ptr::non_null::NonNull<u8>, core::alloc::layout::Layout)>", %"core::option::Option<(core::ptr::non_null::NonNull<u8>, core::alloc::layout::Layout)>"* %_30.i, i64 0, i32 1, i64 1
  store i64 1, i64* %9, align 8, !alias.scope !9, !noalias !8
  br label %"_ZN5alloc7raw_vec19RawVec$LT$T$C$A$GT$14current_memory17h8984feeb82ae7a75E.exit.i"

bb5.i.i:                                          ; preds = %bb8.i
  %10 = getelementptr inbounds %"core::option::Option<(core::ptr::non_null::NonNull<u8>, core::alloc::layout::Layout)>", %"core::option::Option<(core::ptr::non_null::NonNull<u8>, core::alloc::layout::Layout)>"* %_30.i, i64 0, i32 0
  store {}* null, {}** %10, align 8, !alias.scope !9, !noalias !8
  br label %"_ZN5alloc7raw_vec19RawVec$LT$T$C$A$GT$14current_memory17h8984feeb82ae7a75E.exit.i"

"_ZN5alloc7raw_vec19RawVec$LT$T$C$A$GT$14current_memory17h8984feeb82ae7a75E.exit.i": ; preds = %bb5.i.i, %bb6.i.i
; call alloc::raw_vec::finish_grow
  call fastcc void @_ZN5alloc7raw_vec11finish_grow17h03e686f61255e450E(%"core::result::Result<core::ptr::non_null::NonNull<[u8]>, alloc::collections::TryReserveError>"* noalias nocapture nonnull dereferenceable(24) %_28.i, i64 %.0.sroa.speculated.i.i.i16.i, i64 1, %"core::option::Option<(core::ptr::non_null::NonNull<u8>, core::alloc::layout::Layout)>"* noalias nocapture nonnull dereferenceable(24) %_30.i) #24, !noalias !8
  call void @llvm.lifetime.end.p0i8(i64 24, i8* nonnull %7) #24, !noalias !8
  %11 = getelementptr inbounds %"core::result::Result<core::ptr::non_null::NonNull<[u8]>, alloc::collections::TryReserveError>", %"core::result::Result<core::ptr::non_null::NonNull<[u8]>, alloc::collections::TryReserveError>"* %_28.i, i64 0, i32 0
  %_2.i.i = load i64, i64* %11, align 8, !range !12, !alias.scope !13, !noalias !16
  %switch.not.i17.i = icmp eq i64 %_2.i.i, 1
  br i1 %switch.not.i17.i, label %bb3.i, label %_ZN5alloc7raw_vec14handle_reserve17h6aba3a3a9bc33f5eE.exit

bb3.i:                                            ; preds = %"_ZN5alloc7raw_vec19RawVec$LT$T$C$A$GT$14current_memory17h8984feeb82ae7a75E.exit.i"
  %12 = getelementptr inbounds %"core::result::Result<core::ptr::non_null::NonNull<[u8]>, alloc::collections::TryReserveError>", %"core::result::Result<core::ptr::non_null::NonNull<[u8]>, alloc::collections::TryReserveError>"* %_28.i, i64 0, i32 1, i64 0
  %e.0.i.i = load i64, i64* %12, align 8, !alias.scope !13, !noalias !16
  %13 = getelementptr inbounds %"core::result::Result<core::ptr::non_null::NonNull<[u8]>, alloc::collections::TryReserveError>", %"core::result::Result<core::ptr::non_null::NonNull<[u8]>, alloc::collections::TryReserveError>"* %_28.i, i64 0, i32 1, i64 1
  %e.1.i.i = load i64, i64* %13, align 8, !alias.scope !13, !noalias !16
  call void @llvm.lifetime.end.p0i8(i64 24, i8* nonnull %6) #24, !noalias !8
  %14 = icmp eq i64 %e.1.i.i, 0
  br i1 %14, label %bb5.i, label %bb6.i

bb5.i:                                            ; preds = %start, %bb3.i
; call alloc::raw_vec::capacity_overflow
  tail call void @_ZN5alloc7raw_vec17capacity_overflow17hbdad83560505d524E() #25, !noalias !18
  unreachable

bb6.i:                                            ; preds = %bb3.i
; call alloc::alloc::handle_alloc_error
  tail call void @_ZN5alloc5alloc18handle_alloc_error17h2d5c084c39e97fa4E(i64 %e.0.i.i, i64 %e.1.i.i) #26, !noalias !18
  unreachable

_ZN5alloc7raw_vec14handle_reserve17h6aba3a3a9bc33f5eE.exit: ; preds = %"_ZN5alloc7raw_vec19RawVec$LT$T$C$A$GT$14current_memory17h8984feeb82ae7a75E.exit.i"
  %15 = getelementptr inbounds %"core::result::Result<core::ptr::non_null::NonNull<[u8]>, alloc::collections::TryReserveError>", %"core::result::Result<core::ptr::non_null::NonNull<[u8]>, alloc::collections::TryReserveError>"* %_28.i, i64 0, i32 1
  %16 = bitcast [2 x i64]* %15 to i8**
  %v.0.i46.i = load i8*, i8** %16, align 8, !alias.scope !13, !noalias !16, !nonnull !2
  call void @llvm.lifetime.end.p0i8(i64 24, i8* nonnull %6) #24, !noalias !8
  store i8* %v.0.i46.i, i8** %self.idx.i, align 8, !alias.scope !21, !noalias !6
  store i64 %.0.sroa.speculated.i.i.i16.i, i64* %3, align 8, !alias.scope !21, !noalias !6
  ret void
}

; alloc::raw_vec::finish_grow
; Function Attrs: noinline nounwind nonlazybind uwtable
define internal fastcc void @_ZN5alloc7raw_vec11finish_grow17h03e686f61255e450E(%"core::result::Result<core::ptr::non_null::NonNull<[u8]>, alloc::collections::TryReserveError>"* noalias nocapture dereferenceable(24) %0, i64 %new_layout.0, i64 %new_layout.1, %"core::option::Option<(core::ptr::non_null::NonNull<u8>, core::alloc::layout::Layout)>"* noalias nocapture readonly dereferenceable(24) %current_memory) unnamed_addr #4 {
start:
  %1 = icmp eq i64 %new_layout.1, 0
  br i1 %1, label %bb5, label %bb10

bb5:                                              ; preds = %start
  %2 = getelementptr inbounds %"core::result::Result<core::ptr::non_null::NonNull<[u8]>, alloc::collections::TryReserveError>", %"core::result::Result<core::ptr::non_null::NonNull<[u8]>, alloc::collections::TryReserveError>"* %0, i64 0, i32 1, i64 0
  store i64 %new_layout.0, i64* %2, align 8, !alias.scope !24
  br label %bb24

bb10:                                             ; preds = %start
  %3 = getelementptr inbounds %"core::option::Option<(core::ptr::non_null::NonNull<u8>, core::alloc::layout::Layout)>", %"core::option::Option<(core::ptr::non_null::NonNull<u8>, core::alloc::layout::Layout)>"* %current_memory, i64 0, i32 0
  %4 = load {}*, {}** %3, align 8
  %.not = icmp eq {}* %4, null
  %5 = bitcast {}* %4 to i8*
  br i1 %.not, label %bb14, label %bb15

bb24:                                             ; preds = %bb1.i11, %bb3.i10, %bb5
  %.sink52 = phi i64 [ 0, %bb5 ], [ %new_layout.1, %bb1.i11 ], [ %new_layout.0, %bb3.i10 ]
  %.sink = phi i64 [ 1, %bb5 ], [ 1, %bb1.i11 ], [ 0, %bb3.i10 ]
  %6 = getelementptr inbounds %"core::result::Result<core::ptr::non_null::NonNull<[u8]>, alloc::collections::TryReserveError>", %"core::result::Result<core::ptr::non_null::NonNull<[u8]>, alloc::collections::TryReserveError>"* %0, i64 0, i32 1, i64 1
  store i64 %.sink52, i64* %6, align 8
  %7 = getelementptr inbounds %"core::result::Result<core::ptr::non_null::NonNull<[u8]>, alloc::collections::TryReserveError>", %"core::result::Result<core::ptr::non_null::NonNull<[u8]>, alloc::collections::TryReserveError>"* %0, i64 0, i32 0
  store i64 %.sink, i64* %7, align 8
  ret void

bb15:                                             ; preds = %bb10
  %8 = getelementptr inbounds %"core::option::Option<(core::ptr::non_null::NonNull<u8>, core::alloc::layout::Layout)>", %"core::option::Option<(core::ptr::non_null::NonNull<u8>, core::alloc::layout::Layout)>"* %current_memory, i64 0, i32 1, i64 0
  %9 = load i64, i64* %8, align 8
  %10 = getelementptr inbounds %"core::option::Option<(core::ptr::non_null::NonNull<u8>, core::alloc::layout::Layout)>", %"core::option::Option<(core::ptr::non_null::NonNull<u8>, core::alloc::layout::Layout)>"* %current_memory, i64 0, i32 1, i64 1
  %11 = load i64, i64* %10, align 8, !range !27
  %_29 = icmp eq i64 %11, %new_layout.1
  tail call void @llvm.assume(i1 %_29)
  %12 = icmp eq i64 %9, 0
  br i1 %12, label %bb2.i.i, label %bb7.i.i

bb2.i.i:                                          ; preds = %bb15
  %13 = icmp eq i64 %new_layout.0, 0
  br i1 %13, label %bb3.i.i.i, label %bb2.i.i.i

bb3.i.i.i:                                        ; preds = %bb2.i.i
  %_2.i.i.i.i = inttoptr i64 %new_layout.1 to i8*
  br label %bb21

bb2.i.i.i:                                        ; preds = %bb2.i.i
  %14 = tail call i8* @__rust_alloc(i64 %new_layout.0, i64 %new_layout.1) #24
  br label %bb21

bb7.i.i:                                          ; preds = %bb15
  %_21.i.i = icmp ule i64 %9, %new_layout.0
  tail call void @llvm.assume(i1 %_21.i.i) #24
  %15 = tail call i8* @__rust_realloc(i8* nonnull %5, i64 %9, i64 %new_layout.1, i64 %new_layout.0) #24
  %16 = icmp eq i8* %15, null
  br i1 %16, label %bb1.i11, label %bb3.i10

bb14:                                             ; preds = %bb10
  %17 = icmp eq i64 %new_layout.0, 0
  br i1 %17, label %bb3.i.i, label %bb2.i.i9

bb3.i.i:                                          ; preds = %bb14
  %_2.i.i.i = inttoptr i64 %new_layout.1 to i8*
  br label %bb21

bb2.i.i9:                                         ; preds = %bb14
  %18 = tail call i8* @__rust_alloc(i64 %new_layout.0, i64 %new_layout.1) #24
  br label %bb21

bb21:                                             ; preds = %bb3.i.i.i, %bb2.i.i.i, %bb2.i.i9, %bb3.i.i
  %.sroa.0.2.i.i.pn = phi i8* [ %_2.i.i.i, %bb3.i.i ], [ %18, %bb2.i.i9 ], [ %_2.i.i.i.i, %bb3.i.i.i ], [ %14, %bb2.i.i.i ]
  %19 = icmp eq i8* %.sroa.0.2.i.i.pn, null
  br i1 %19, label %bb1.i11, label %bb3.i10

bb3.i10:                                          ; preds = %bb7.i.i, %bb21
  %.sroa.0.2.i.i.pn50 = phi i8* [ %.sroa.0.2.i.i.pn, %bb21 ], [ %15, %bb7.i.i ]
  %20 = getelementptr inbounds %"core::result::Result<core::ptr::non_null::NonNull<[u8]>, alloc::collections::TryReserveError>", %"core::result::Result<core::ptr::non_null::NonNull<[u8]>, alloc::collections::TryReserveError>"* %0, i64 0, i32 1
  %21 = bitcast [2 x i64]* %20 to i8**
  store i8* %.sroa.0.2.i.i.pn50, i8** %21, align 8, !alias.scope !28, !noalias !31
  br label %bb24

bb1.i11:                                          ; preds = %bb7.i.i, %bb21
  %22 = getelementptr inbounds %"core::result::Result<core::ptr::non_null::NonNull<[u8]>, alloc::collections::TryReserveError>", %"core::result::Result<core::ptr::non_null::NonNull<[u8]>, alloc::collections::TryReserveError>"* %0, i64 0, i32 1, i64 0
  store i64 %new_layout.0, i64* %22, align 8, !alias.scope !28, !noalias !31
  br label %bb24
}

; <miniz_oxide::deflate::core::TDEFLFlush as core::convert::From<miniz_oxide::MZFlush>>::from
; Function Attrs: mustprogress nofree norecurse nosync nounwind nonlazybind readnone uwtable willreturn
define i8 @"_ZN106_$LT$miniz_oxide..deflate..core..TDEFLFlush$u20$as$u20$core..convert..From$LT$miniz_oxide..MZFlush$GT$$GT$4from17hd3de4388f93d2321E"(i32 %0) unnamed_addr #5 {
start:
  %switch.tableidx = add i32 %0, -2
  %1 = icmp ult i32 %switch.tableidx, 3
  %switch.idx.cast = trunc i32 %switch.tableidx to i8
  %switch.offset = add i8 %switch.idx.cast, 2
  %.0 = select i1 %1, i8 %switch.offset, i8 0
  ret i8 %.0
}

; miniz_oxide::deflate::core::TDEFLFlush::new
; Function Attrs: mustprogress nofree norecurse nosync nounwind nonlazybind readnone uwtable willreturn
define i64 @_ZN11miniz_oxide7deflate4core10TDEFLFlush3new17hd0aa0cd9a8ecfab0E(i32 %flush) unnamed_addr #5 {
start:
  %0 = icmp ult i32 %flush, 5
  br i1 %0, label %switch.lookup, label %bb6

switch.lookup:                                    ; preds = %start
  %1 = sext i32 %flush to i64
  %switch.gep = getelementptr inbounds [5 x i64], [5 x i64]* @switch.table._ZN11miniz_oxide7deflate4core10TDEFLFlush3new17hd0aa0cd9a8ecfab0E, i64 0, i64 %1
  %switch.load = load i64, i64* %switch.gep, align 8
  %2 = sext i32 %flush to i64
  %switch.gep2 = getelementptr inbounds [5 x i64], [5 x i64]* @switch.table._ZN11miniz_oxide7deflate4core10TDEFLFlush3new17hd0aa0cd9a8ecfab0E.98, i64 0, i64 %2
  %switch.load3 = load i64, i64* %switch.gep2, align 8
  br label %bb6

bb6:                                              ; preds = %switch.lookup, %start
  %.sroa.6.0 = phi i64 [ -42949672960000, %start ], [ %switch.load, %switch.lookup ]
  %.sroa.0.0 = phi i64 [ 1, %start ], [ %switch.load3, %switch.lookup ]
  %.sroa.0.0.insert.insert = or i64 %.sroa.0.0, %.sroa.6.0
  ret i64 %.sroa.0.0.insert.insert
}

; miniz_oxide::deflate::core::CompressorOxide::new
; Function Attrs: nonlazybind uwtable
define void @_ZN11miniz_oxide7deflate4core15CompressorOxide3new17h91d93a80c0984ad2E(%"deflate::core::CompressorOxide"* noalias nocapture sret(%"deflate::core::CompressorOxide") dereferenceable(65688) %0, i32 %flags) unnamed_addr #1 personality i32 (...)* @rust_eh_personality {
start:
  %1 = tail call dereferenceable_or_null(85196) i8* @__rust_alloc(i64 85196, i64 1) #24, !noalias !33
  %2 = icmp eq i8* %1, null
  br i1 %2, label %bb3.i.i.i, label %_ZN11miniz_oxide7deflate4core11ParamsOxide3new17h7a96c62762a07e44E.exit

bb3.i.i.i:                                        ; preds = %start
; call alloc::alloc::handle_alloc_error
  tail call void @_ZN5alloc5alloc18handle_alloc_error17h2d5c084c39e97fa4E(i64 85196, i64 1) #26, !noalias !33
  unreachable

_ZN11miniz_oxide7deflate4core11ParamsOxide3new17h7a96c62762a07e44E.exit: ; preds = %start
  %3 = bitcast i8* %1 to %"deflate::buffer::LocalBuf"*
  %4 = getelementptr inbounds %"deflate::buffer::LocalBuf", %"deflate::buffer::LocalBuf"* %3, i64 0, i32 0, i64 0
  tail call void @llvm.memset.p0i8.i64(i8* noundef nonnull align 1 dereferenceable(85196) %4, i8 0, i64 85196, i1 false) #24, !alias.scope !36, !noalias !33
  %5 = tail call dereferenceable_or_null(4320) i8* @__rust_alloc(i64 4320, i64 2) #24
  %6 = icmp eq i8* %5, null
  br i1 %6, label %bb3.i.i, label %bb3

bb3.i.i:                                          ; preds = %_ZN11miniz_oxide7deflate4core11ParamsOxide3new17h7a96c62762a07e44E.exit
; call alloc::alloc::handle_alloc_error
  tail call void @_ZN5alloc5alloc18handle_alloc_error17h2d5c084c39e97fa4E(i64 4320, i64 2) #26
  unreachable

bb3:                                              ; preds = %_ZN11miniz_oxide7deflate4core11ParamsOxide3new17h7a96c62762a07e44E.exit
  tail call void @llvm.memset.p0i8.i64(i8* noundef nonnull align 2 dereferenceable(4320) %5, i8 0, i64 4320, i1 false) #24, !alias.scope !39
  %_5.i.i = and i32 %flags, 4095
  %7 = tail call dereferenceable_or_null(164098) i8* @__rust_alloc(i64 164098, i64 2) #24, !noalias !42
  %8 = icmp eq i8* %7, null
  br i1 %8, label %bb3.i.i.i9, label %bb4

bb3.i.i.i9:                                       ; preds = %bb3
; call alloc::alloc::handle_alloc_error
  tail call void @_ZN5alloc5alloc18handle_alloc_error17h2d5c084c39e97fa4E(i64 164098, i64 2) #26, !noalias !42
  unreachable

bb4:                                              ; preds = %bb3
  %_4.i = lshr i32 %flags, 14
  %9 = trunc i32 %_4.i to i8
  %10 = and i8 %9, 1
  %_10.i.i = lshr i32 %_5.i.i, 2
  %11 = trunc i32 %_10.i.i to i16
  %_8.lhs.trunc.i.i = add nuw nsw i16 %11, 2
  %_82.i.i = udiv i16 %_8.lhs.trunc.i.i, 3
  %narrow3.i.i = add nuw nsw i16 %_82.i.i, 1
  %.sroa.2.0.insert.ext.i.i = zext i16 %narrow3.i.i to i64
  %.sroa.2.0.insert.shift.i.i = shl nuw nsw i64 %.sroa.2.0.insert.ext.i.i, 32
  %12 = trunc i32 %_5.i.i to i16
  %_3.lhs.trunc.i.i = add nuw nsw i16 %12, 2
  %_31.i.i = udiv i16 %_3.lhs.trunc.i.i, 3
  %narrow.i.i = add nuw nsw i16 %_31.i.i, 1
  %.sroa.0.0.insert.ext.i.i = zext i16 %narrow.i.i to i64
  %.sroa.0.0.insert.insert.i.i = or i64 %.sroa.2.0.insert.shift.i.i, %.sroa.0.0.insert.ext.i.i
  tail call void @llvm.memset.p0i8.i64(i8* noundef nonnull align 2 dereferenceable(164098) %7, i8 0, i64 164098, i1 false) #24, !noalias !42
  %_6.sroa.4.0..sroa_idx = getelementptr inbounds %"deflate::core::CompressorOxide", %"deflate::core::CompressorOxide"* %0, i64 0, i32 3, i32 1
  %_6.sroa.4.0..sroa_idx6566 = bitcast i64* %_6.sroa.4.0..sroa_idx to i8*
  call void @llvm.memset.p0i8.i64(i8* noundef nonnull align 8 dereferenceable(32) %_6.sroa.4.0..sroa_idx6566, i8 0, i64 32, i1 false)
  %13 = bitcast %"deflate::core::CompressorOxide"* %0 to <2 x i64>*
  store <2 x i64> <i64 1, i64 0>, <2 x i64>* %13, align 8
  %_2.sroa.5.0..sroa_idx13 = getelementptr inbounds %"deflate::core::CompressorOxide", %"deflate::core::CompressorOxide"* %0, i64 0, i32 0, i32 2
  store i32 0, i32* %_2.sroa.5.0..sroa_idx13, align 8
  %_2.sroa.6.0..sroa_idx15 = getelementptr inbounds %"deflate::core::CompressorOxide", %"deflate::core::CompressorOxide"* %0, i64 0, i32 0, i32 3
  store i32 8, i32* %_2.sroa.6.0..sroa_idx15, align 4
  %_2.sroa.7.0..sroa_idx = getelementptr inbounds %"deflate::core::CompressorOxide", %"deflate::core::CompressorOxide"* %0, i64 0, i32 0, i32 4, i64 0
  %_3.sroa.4.0..sroa_idx25 = getelementptr inbounds %"deflate::core::CompressorOxide", %"deflate::core::CompressorOxide"* %0, i64 0, i32 1, i32 2
  %_3.sroa.4.0..sroa_cast = bitcast %"deflate::buffer::LocalBuf"** %_3.sroa.4.0..sroa_idx25 to i8**
  call void @llvm.memset.p0i8.i64(i8* noundef nonnull align 8 dereferenceable(65552) %_2.sroa.7.0..sroa_idx, i8 0, i64 65552, i1 false)
  store i8* %1, i8** %_3.sroa.4.0..sroa_cast, align 8
  %_3.sroa.6.0..sroa_idx27 = getelementptr inbounds %"deflate::core::CompressorOxide", %"deflate::core::CompressorOxide"* %0, i64 0, i32 1, i32 3
  store i32 %flags, i32* %_3.sroa.6.0..sroa_idx27, align 8
  %_3.sroa.7.0..sroa_idx = getelementptr inbounds %"deflate::core::CompressorOxide", %"deflate::core::CompressorOxide"* %0, i64 0, i32 1, i32 4
  %_3.sroa.7.0..sroa_cast = bitcast i32* %_3.sroa.7.0..sroa_idx to i8*
  call void @llvm.memset.p0i8.i64(i8* noundef nonnull align 4 dereferenceable(20) %_3.sroa.7.0..sroa_cast, i8 0, i64 20, i1 false)
  %_3.sroa.8.0..sroa_idx31 = getelementptr inbounds %"deflate::core::CompressorOxide", %"deflate::core::CompressorOxide"* %0, i64 0, i32 1, i32 9
  %14 = bitcast i32* %_3.sroa.8.0..sroa_idx31 to <4 x i32>*
  store <4 x i32> <i32 1, i32 0, i32 0, i32 0>, <4 x i32>* %14, align 8
  %_3.sroa.12.0..sroa_idx = getelementptr inbounds %"deflate::core::CompressorOxide", %"deflate::core::CompressorOxide"* %0, i64 0, i32 1, i32 13
  store i8 %10, i8* %_3.sroa.12.0..sroa_idx, align 8
  %_3.sroa.13.0..sroa_idx = getelementptr inbounds %"deflate::core::CompressorOxide", %"deflate::core::CompressorOxide"* %0, i64 0, i32 1, i32 14
  store i8 0, i8* %_3.sroa.13.0..sroa_idx, align 1
  %_3.sroa.14.0..sroa_idx = getelementptr inbounds %"deflate::core::CompressorOxide", %"deflate::core::CompressorOxide"* %0, i64 0, i32 1, i32 15
  store i8 0, i8* %_3.sroa.14.0..sroa_idx, align 2
  %_3.sroa.15.0..sroa_idx = getelementptr inbounds %"deflate::core::CompressorOxide", %"deflate::core::CompressorOxide"* %0, i64 0, i32 1, i32 16
  store i8 0, i8* %_3.sroa.15.0..sroa_idx, align 1
  %15 = getelementptr inbounds %"deflate::core::CompressorOxide", %"deflate::core::CompressorOxide"* %0, i64 0, i32 2
  %16 = bitcast %"deflate::core::HuffmanOxide"** %15 to i8**
  store i8* %5, i8** %16, align 8
  %_6.sroa.0.0..sroa_idx = getelementptr inbounds %"deflate::core::CompressorOxide", %"deflate::core::CompressorOxide"* %0, i64 0, i32 3
  %_6.sroa.0.0..sroa_cast = bitcast %"deflate::core::DictOxide"* %_6.sroa.0.0..sroa_idx to i8**
  store i8* %7, i8** %_6.sroa.0.0..sroa_cast, align 8
  %_6.sroa.5.0..sroa_idx52 = getelementptr inbounds %"deflate::core::CompressorOxide", %"deflate::core::CompressorOxide"* %0, i64 0, i32 3, i32 5
  %_6.sroa.5.0..sroa_cast = bitcast [2 x i32]* %_6.sroa.5.0..sroa_idx52 to i64*
  store i64 %.sroa.0.0.insert.insert.i.i, i64* %_6.sroa.5.0..sroa_cast, align 8
  ret void
}

; miniz_oxide::deflate::core::CompressorOxide::adler32
; Function Attrs: mustprogress nofree norecurse nosync nounwind nonlazybind readonly uwtable willreturn
define i32 @_ZN11miniz_oxide7deflate4core15CompressorOxide7adler3217h35abefbbfba29950E(%"deflate::core::CompressorOxide"* noalias nocapture readonly align 8 dereferenceable(65688) %self) unnamed_addr #6 {
start:
  %0 = getelementptr inbounds %"deflate::core::CompressorOxide", %"deflate::core::CompressorOxide"* %self, i64 0, i32 1, i32 9
  %1 = load i32, i32* %0, align 8
  ret i32 %1
}

; miniz_oxide::deflate::core::CompressorOxide::prev_return_status
; Function Attrs: mustprogress nofree norecurse nosync nounwind nonlazybind readonly uwtable willreturn
define i32 @_ZN11miniz_oxide7deflate4core15CompressorOxide18prev_return_status17h000e5686574fe9b2E(%"deflate::core::CompressorOxide"* noalias nocapture readonly align 8 dereferenceable(65688) %self) unnamed_addr #6 {
start:
  %0 = getelementptr inbounds %"deflate::core::CompressorOxide", %"deflate::core::CompressorOxide"* %self, i64 0, i32 1, i32 10
  %1 = load i32, i32* %0, align 4, !range !45
  ret i32 %1
}

; miniz_oxide::deflate::core::CompressorOxide::flags
; Function Attrs: mustprogress nofree norecurse nosync nounwind nonlazybind readonly uwtable willreturn
define i32 @_ZN11miniz_oxide7deflate4core15CompressorOxide5flags17h9ee6730a595a70d7E(%"deflate::core::CompressorOxide"* noalias nocapture readonly align 8 dereferenceable(65688) %self) unnamed_addr #6 {
start:
  %0 = getelementptr inbounds %"deflate::core::CompressorOxide", %"deflate::core::CompressorOxide"* %self, i64 0, i32 1, i32 3
  %_2 = load i32, i32* %0, align 8
  ret i32 %_2
}

; miniz_oxide::deflate::core::CompressorOxide::data_format
; Function Attrs: mustprogress nofree norecurse nosync nounwind nonlazybind readonly uwtable willreturn
define zeroext i1 @_ZN11miniz_oxide7deflate4core15CompressorOxide11data_format17habc675c3597b1e15E(%"deflate::core::CompressorOxide"* noalias nocapture readonly align 8 dereferenceable(65688) %self) unnamed_addr #6 {
start:
  %0 = getelementptr inbounds %"deflate::core::CompressorOxide", %"deflate::core::CompressorOxide"* %self, i64 0, i32 1, i32 3
  %_3 = load i32, i32* %0, align 8
  %_2 = and i32 %_3, 4096
  %1 = icmp eq i32 %_2, 0
  ret i1 %1
}

; miniz_oxide::deflate::core::CompressorOxide::reset
; Function Attrs: mustprogress nofree nosync nounwind nonlazybind uwtable willreturn
define void @_ZN11miniz_oxide7deflate4core15CompressorOxide5reset17hcb237939dc657fb9E(%"deflate::core::CompressorOxide"* noalias nocapture align 8 dereferenceable(65688) %self) unnamed_addr #2 {
start:
  %_2.sroa.7.0..sroa_idx = getelementptr inbounds %"deflate::core::CompressorOxide", %"deflate::core::CompressorOxide"* %self, i64 0, i32 0, i32 4, i64 0
  call void @llvm.memset.p0i8.i64(i8* noundef nonnull align 8 dereferenceable(65536) %_2.sroa.7.0..sroa_idx, i8 0, i64 65536, i1 false)
  %0 = bitcast %"deflate::core::CompressorOxide"* %self to <2 x i64>*
  store <2 x i64> <i64 1, i64 0>, <2 x i64>* %0, align 8
  %_2.sroa.5.0..sroa_idx4 = getelementptr inbounds %"deflate::core::CompressorOxide", %"deflate::core::CompressorOxide"* %self, i64 0, i32 0, i32 2
  store i32 0, i32* %_2.sroa.5.0..sroa_idx4, align 8
  %_2.sroa.6.0..sroa_idx6 = getelementptr inbounds %"deflate::core::CompressorOxide", %"deflate::core::CompressorOxide"* %self, i64 0, i32 0, i32 3
  store i32 8, i32* %_2.sroa.6.0..sroa_idx6, align 4
  %_4 = getelementptr inbounds %"deflate::core::CompressorOxide", %"deflate::core::CompressorOxide"* %self, i64 0, i32 1
  tail call void @llvm.experimental.noalias.scope.decl(metadata !46)
  %1 = getelementptr inbounds %"deflate::core::CompressorOxide", %"deflate::core::CompressorOxide"* %self, i64 0, i32 1, i32 4
  %2 = getelementptr inbounds %"deflate::core::CompressorOxide", %"deflate::core::CompressorOxide"* %self, i64 0, i32 1, i32 14
  store i8 0, i8* %2, align 1, !alias.scope !46
  %3 = getelementptr inbounds %"deflate::core::CompressorOxide", %"deflate::core::CompressorOxide"* %self, i64 0, i32 1, i32 15
  store i8 0, i8* %3, align 2, !alias.scope !46
  %4 = getelementptr inbounds %"deflate::core::CompressorOxide", %"deflate::core::CompressorOxide"* %self, i64 0, i32 1, i32 16
  store i8 0, i8* %4, align 1, !alias.scope !46
  %5 = getelementptr inbounds %"deflate::core::CompressorOxide", %"deflate::core::CompressorOxide"* %self, i64 0, i32 1, i32 9
  %6 = bitcast i32* %1 to i8*
  tail call void @llvm.memset.p0i8.i64(i8* noundef nonnull align 4 dereferenceable(20) %6, i8 0, i64 20, i1 false) #24, !alias.scope !46
  %7 = bitcast i32* %5 to <4 x i32>*
  store <4 x i32> <i32 1, i32 0, i32 0, i32 0>, <4 x i32>* %7, align 8, !alias.scope !46
  %8 = getelementptr inbounds %"deflate::core::CompressorOxide", %"deflate::core::CompressorOxide"* %self, i64 0, i32 1, i32 2
  %9 = bitcast %"deflate::buffer::LocalBuf"** %8 to [85196 x i8]**
  %10 = bitcast %"deflate::core::ParamsOxide"* %_4 to i8*
  tail call void @llvm.memset.p0i8.i64(i8* noundef nonnull align 8 dereferenceable(16) %10, i8 0, i64 16, i1 false) #24, !alias.scope !46
  %11 = load [85196 x i8]*, [85196 x i8]** %9, align 8, !alias.scope !46, !nonnull !2
  %12 = getelementptr inbounds [85196 x i8], [85196 x i8]* %11, i64 0, i64 0
  tail call void @llvm.memset.p0i8.i64(i8* noundef nonnull align 1 dereferenceable(85196) %12, i8 0, i64 85196, i1 false) #24, !noalias !46
  %13 = getelementptr inbounds %"deflate::core::CompressorOxide", %"deflate::core::CompressorOxide"* %self, i64 0, i32 2
  %14 = bitcast %"deflate::core::HuffmanOxide"** %13 to i8**
  %15 = load i8*, i8** %14, align 8, !nonnull !2
  call void @llvm.memset.p0i8.i64(i8* noundef nonnull align 2 dereferenceable(4320) %15, i8 0, i64 4320, i1 false)
  %_7 = getelementptr inbounds %"deflate::core::CompressorOxide", %"deflate::core::CompressorOxide"* %self, i64 0, i32 3
  tail call void @llvm.experimental.noalias.scope.decl(metadata !49)
  %16 = bitcast %"deflate::core::DictOxide"* %_7 to i8**
  %_31.i = load i8*, i8** %16, align 8, !alias.scope !49, !nonnull !2
  tail call void @llvm.memset.p0i8.i64(i8* noundef nonnull align 2 dereferenceable(164098) %_31.i, i8 0, i64 164098, i1 false) #24, !alias.scope !52, !noalias !49
  %17 = getelementptr inbounds %"deflate::core::CompressorOxide", %"deflate::core::CompressorOxide"* %self, i64 0, i32 3, i32 1
  %18 = bitcast i64* %17 to i8*
  tail call void @llvm.memset.p0i8.i64(i8* noundef nonnull align 8 dereferenceable(32) %18, i8 0, i64 32, i1 false) #24, !alias.scope !49
  ret void
}

; miniz_oxide::deflate::core::CompressorOxide::set_compression_level
; Function Attrs: mustprogress nofree nosync nounwind nonlazybind uwtable willreturn
define void @_ZN11miniz_oxide7deflate4core15CompressorOxide21set_compression_level17h1d95b7c2849fa92dE(%"deflate::core::CompressorOxide"* noalias nocapture align 8 dereferenceable(65688) %self, i32 %level) unnamed_addr #2 personality i32 (...)* @rust_eh_personality {
start:
  %0 = getelementptr inbounds %"deflate::core::CompressorOxide", %"deflate::core::CompressorOxide"* %self, i64 0, i32 1, i32 3
  %_3.i = load i32, i32* %0, align 8, !alias.scope !55
  %_2.i = and i32 %_3.i, 4096
  %_8 = trunc i32 %level to i8
  tail call void @llvm.experimental.noalias.scope.decl(metadata !58)
  %1 = and i32 %level, 255
  %2 = icmp ult i32 %1, 10
  %.0.sroa.speculated.i.i.i.i.i = select i1 %2, i32 %1, i32 10
  %_5.0.i.i = zext i32 %.0.sroa.speculated.i.i.i.i.i to i64
  %_10.i.i = icmp ult i8 %_8, 4
  %..i1.i = select i1 %_10.i.i, i32 16384, i32 0
  %3 = getelementptr inbounds [11 x i32], [11 x i32]* bitcast (<{ [44 x i8] }>* @7 to [11 x i32]*), i64 0, i64 %_5.0.i.i
  %_12.i.i = load i32, i32* %3, align 4, !noalias !58
  %4 = or i32 %_2.i, %..i1.i
  %5 = or i32 %4, %_12.i.i
  %6 = icmp eq i8 %_8, 0
  %7 = or i32 %5, 524288
  %spec.select.i = select i1 %6, i32 %7, i32 %5
  store i32 %spec.select.i, i32* %0, align 8, !alias.scope !61
  %8 = getelementptr inbounds %"deflate::core::CompressorOxide", %"deflate::core::CompressorOxide"* %self, i64 0, i32 1, i32 13
  %_4.i.i = lshr i32 %spec.select.i, 14
  %9 = trunc i32 %_4.i.i to i8
  %10 = and i8 %9, 1
  store i8 %10, i8* %8, align 8, !alias.scope !61
  %_5.i.i.i = and i32 %spec.select.i, 4095
  %11 = trunc i32 %_5.i.i.i to i16
  %_3.lhs.trunc.i.i.i = add nuw nsw i16 %11, 2
  %_31.i.i.i = udiv i16 %_3.lhs.trunc.i.i.i, 3
  %narrow.i.i.i = add nuw nsw i16 %_31.i.i.i, 1
  %_10.i.i.i = lshr i32 %_5.i.i.i, 2
  %12 = trunc i32 %_10.i.i.i to i16
  %_8.lhs.trunc.i.i.i = add nuw nsw i16 %12, 2
  %_82.i.i.i = udiv i16 %_8.lhs.trunc.i.i.i, 3
  %narrow3.i.i.i = add nuw nsw i16 %_82.i.i.i, 1
  %.sroa.2.0.insert.ext.i.i.i = zext i16 %narrow3.i.i.i to i64
  %.sroa.2.0.insert.shift.i.i.i = shl nuw nsw i64 %.sroa.2.0.insert.ext.i.i.i, 32
  %.sroa.0.0.insert.ext.i.i.i = zext i16 %narrow.i.i.i to i64
  %.sroa.0.0.insert.insert.i.i.i = or i64 %.sroa.2.0.insert.shift.i.i.i, %.sroa.0.0.insert.ext.i.i.i
  %_3.sroa.0.0..sroa_idx.i.i = getelementptr inbounds %"deflate::core::CompressorOxide", %"deflate::core::CompressorOxide"* %self, i64 0, i32 3, i32 5
  %_3.sroa.0.0..sroa_cast.i.i = bitcast [2 x i32]* %_3.sroa.0.0..sroa_idx.i.i to i64*
  store i64 %.sroa.0.0.insert.insert.i.i.i, i64* %_3.sroa.0.0..sroa_cast.i.i, align 8, !alias.scope !64
  ret void
}

; miniz_oxide::deflate::core::CompressorOxide::set_compression_level_raw
; Function Attrs: mustprogress nofree nosync nounwind nonlazybind uwtable willreturn
define void @_ZN11miniz_oxide7deflate4core15CompressorOxide25set_compression_level_raw17he5999d1e9265fa64E(%"deflate::core::CompressorOxide"* noalias nocapture align 8 dereferenceable(65688) %self, i8 %level) unnamed_addr #2 personality i32 (...)* @rust_eh_personality {
start:
  %0 = getelementptr inbounds %"deflate::core::CompressorOxide", %"deflate::core::CompressorOxide"* %self, i64 0, i32 1, i32 3
  %_3.i = load i32, i32* %0, align 8, !alias.scope !67
  %_2.i = and i32 %_3.i, 4096
  tail call void @llvm.experimental.noalias.scope.decl(metadata !70)
  %1 = zext i8 %level to i32
  %2 = icmp ult i32 %1, 10
  %.0.sroa.speculated.i.i.i.i.i = select i1 %2, i32 %1, i32 10
  %_5.0.i.i = zext i32 %.0.sroa.speculated.i.i.i.i.i to i64
  %_10.i.i = icmp ult i8 %level, 4
  %..i1.i = select i1 %_10.i.i, i32 16384, i32 0
  %3 = getelementptr inbounds [11 x i32], [11 x i32]* bitcast (<{ [44 x i8] }>* @7 to [11 x i32]*), i64 0, i64 %_5.0.i.i
  %_12.i.i = load i32, i32* %3, align 4, !noalias !70
  %4 = or i32 %_2.i, %..i1.i
  %5 = or i32 %4, %_12.i.i
  %6 = icmp eq i8 %level, 0
  %7 = or i32 %5, 524288
  %spec.select.i = select i1 %6, i32 %7, i32 %5
  store i32 %spec.select.i, i32* %0, align 8, !alias.scope !73
  %8 = getelementptr inbounds %"deflate::core::CompressorOxide", %"deflate::core::CompressorOxide"* %self, i64 0, i32 1, i32 13
  %_4.i.i = lshr i32 %spec.select.i, 14
  %9 = trunc i32 %_4.i.i to i8
  %10 = and i8 %9, 1
  store i8 %10, i8* %8, align 8, !alias.scope !73
  %_5.i.i.i = and i32 %spec.select.i, 4095
  %11 = trunc i32 %_5.i.i.i to i16
  %_3.lhs.trunc.i.i.i = add nuw nsw i16 %11, 2
  %_31.i.i.i = udiv i16 %_3.lhs.trunc.i.i.i, 3
  %narrow.i.i.i = add nuw nsw i16 %_31.i.i.i, 1
  %_10.i.i.i = lshr i32 %_5.i.i.i, 2
  %12 = trunc i32 %_10.i.i.i to i16
  %_8.lhs.trunc.i.i.i = add nuw nsw i16 %12, 2
  %_82.i.i.i = udiv i16 %_8.lhs.trunc.i.i.i, 3
  %narrow3.i.i.i = add nuw nsw i16 %_82.i.i.i, 1
  %.sroa.2.0.insert.ext.i.i.i = zext i16 %narrow3.i.i.i to i64
  %.sroa.2.0.insert.shift.i.i.i = shl nuw nsw i64 %.sroa.2.0.insert.ext.i.i.i, 32
  %.sroa.0.0.insert.ext.i.i.i = zext i16 %narrow.i.i.i to i64
  %.sroa.0.0.insert.insert.i.i.i = or i64 %.sroa.2.0.insert.shift.i.i.i, %.sroa.0.0.insert.ext.i.i.i
  %_3.sroa.0.0..sroa_idx.i.i = getelementptr inbounds %"deflate::core::CompressorOxide", %"deflate::core::CompressorOxide"* %self, i64 0, i32 3, i32 5
  %_3.sroa.0.0..sroa_cast.i.i = bitcast [2 x i32]* %_3.sroa.0.0..sroa_idx.i.i to i64*
  store i64 %.sroa.0.0.insert.insert.i.i.i, i64* %_3.sroa.0.0..sroa_cast.i.i, align 8, !alias.scope !76
  ret void
}

; miniz_oxide::deflate::core::CompressorOxide::set_format_and_level
; Function Attrs: mustprogress nofree nosync nounwind nonlazybind uwtable willreturn
define void @_ZN11miniz_oxide7deflate4core15CompressorOxide20set_format_and_level17h3f531f49d411f660E(%"deflate::core::CompressorOxide"* noalias nocapture align 8 dereferenceable(65688) %self, i1 zeroext %data_format, i8 %level) unnamed_addr #2 personality i32 (...)* @rust_eh_personality {
start:
  %0 = zext i8 %level to i32
  %1 = icmp ult i32 %0, 10
  %.0.sroa.speculated.i.i.i.i = select i1 %1, i32 %0, i32 10
  %_5.0.i = zext i32 %.0.sroa.speculated.i.i.i.i to i64
  %_10.i = icmp ult i8 %level, 4
  %..i1 = select i1 %_10.i, i32 16384, i32 0
  %2 = getelementptr inbounds [11 x i32], [11 x i32]* bitcast (<{ [44 x i8] }>* @7 to [11 x i32]*), i64 0, i64 %_5.0.i
  %_12.i = load i32, i32* %2, align 4
  %3 = or i32 %_12.i, %..i1
  %4 = or i32 %3, 4096
  %spec.select.i = select i1 %data_format, i32 %3, i32 %4
  %5 = icmp eq i8 %level, 0
  %6 = or i32 %spec.select.i, 524288
  %spec.select = select i1 %5, i32 %6, i32 %spec.select.i
  %7 = getelementptr inbounds %"deflate::core::CompressorOxide", %"deflate::core::CompressorOxide"* %self, i64 0, i32 1, i32 3
  store i32 %spec.select, i32* %7, align 8, !alias.scope !79
  %8 = getelementptr inbounds %"deflate::core::CompressorOxide", %"deflate::core::CompressorOxide"* %self, i64 0, i32 1, i32 13
  %_4.i = lshr i32 %spec.select, 14
  %9 = trunc i32 %_4.i to i8
  %10 = and i8 %9, 1
  store i8 %10, i8* %8, align 8, !alias.scope !79
  %_5.i.i = and i32 %spec.select, 4095
  %11 = trunc i32 %_5.i.i to i16
  %_3.lhs.trunc.i.i = add nuw nsw i16 %11, 2
  %_31.i.i = udiv i16 %_3.lhs.trunc.i.i, 3
  %narrow.i.i = add nuw nsw i16 %_31.i.i, 1
  %_10.i.i = lshr i32 %_5.i.i, 2
  %12 = trunc i32 %_10.i.i to i16
  %_8.lhs.trunc.i.i = add nuw nsw i16 %12, 2
  %_82.i.i = udiv i16 %_8.lhs.trunc.i.i, 3
  %narrow3.i.i = add nuw nsw i16 %_82.i.i, 1
  %.sroa.2.0.insert.ext.i.i = zext i16 %narrow3.i.i to i64
  %.sroa.2.0.insert.shift.i.i = shl nuw nsw i64 %.sroa.2.0.insert.ext.i.i, 32
  %.sroa.0.0.insert.ext.i.i = zext i16 %narrow.i.i to i64
  %.sroa.0.0.insert.insert.i.i = or i64 %.sroa.2.0.insert.shift.i.i, %.sroa.0.0.insert.ext.i.i
  %_3.sroa.0.0..sroa_idx.i = getelementptr inbounds %"deflate::core::CompressorOxide", %"deflate::core::CompressorOxide"* %self, i64 0, i32 3, i32 5
  %_3.sroa.0.0..sroa_cast.i = bitcast [2 x i32]* %_3.sroa.0.0..sroa_idx.i to i64*
  store i64 %.sroa.0.0.insert.insert.i.i, i64* %_3.sroa.0.0..sroa_cast.i, align 8, !alias.scope !82
  ret void
}

; miniz_oxide::deflate::core::CallbackOxide::new_callback_func
; Function Attrs: mustprogress nofree norecurse nosync nounwind nonlazybind uwtable willreturn writeonly
define void @_ZN11miniz_oxide7deflate4core13CallbackOxide17new_callback_func17hc8bf1d747a7ef347E(%"deflate::core::CallbackOxide"* noalias nocapture sret(%"deflate::core::CallbackOxide") dereferenceable(56) %0, [0 x i8]* noalias nonnull readonly align 1 %in_buf.0, i64 %in_buf.1, i8* nonnull align 1 %callback_func.0, i64* noalias readonly align 8 dereferenceable(24) %callback_func.1) unnamed_addr #7 {
start:
  %1 = getelementptr [0 x i8], [0 x i8]* %in_buf.0, i64 0, i64 0
  %2 = getelementptr inbounds %"deflate::core::CallbackOxide", %"deflate::core::CallbackOxide"* %0, i64 0, i32 0, i32 0
  store i8* %1, i8** %2, align 8
  %3 = getelementptr inbounds %"deflate::core::CallbackOxide", %"deflate::core::CallbackOxide"* %0, i64 0, i32 0, i32 1
  store i64 %in_buf.1, i64* %3, align 8
  %4 = getelementptr inbounds %"deflate::core::CallbackOxide", %"deflate::core::CallbackOxide"* %0, i64 0, i32 1
  %_5.sroa.4.0..sroa_idx4 = getelementptr inbounds %"deflate::core::CallbackOxide", %"deflate::core::CallbackOxide"* %0, i64 0, i32 3, i32 1
  %_5.sroa.4.0..sroa_cast = bitcast [2 x i64]* %_5.sroa.4.0..sroa_idx4 to i8**
  %5 = bitcast i64** %4 to i8*
  call void @llvm.memset.p0i8.i64(i8* noundef nonnull align 8 dereferenceable(24) %5, i8 0, i64 24, i1 false)
  store i8* %callback_func.0, i8** %_5.sroa.4.0..sroa_cast, align 8
  %_5.sroa.5.0..sroa_idx6 = getelementptr inbounds %"deflate::core::CallbackOxide", %"deflate::core::CallbackOxide"* %0, i64 0, i32 3, i32 1, i64 1
  %_5.sroa.5.0..sroa_cast = bitcast i64* %_5.sroa.5.0..sroa_idx6 to i64**
  store i64* %callback_func.1, i64** %_5.sroa.5.0..sroa_cast, align 8
  ret void
}

; <miniz_oxide::deflate::core::HuffmanOxide as core::default::Default>::default
; Function Attrs: nofree nosync nounwind nonlazybind uwtable
define void @"_ZN83_$LT$miniz_oxide..deflate..core..HuffmanOxide$u20$as$u20$core..default..Default$GT$7default17h3a8167270efeef93E"(%"deflate::core::HuffmanOxide"* noalias nocapture sret(%"deflate::core::HuffmanOxide") dereferenceable(4320) %0) unnamed_addr #8 {
start:
  %1 = bitcast %"deflate::core::HuffmanOxide"* %0 to i8*
  call void @llvm.memset.p0i8.i64(i8* noundef nonnull align 2 dereferenceable(4320) %1, i8 0, i64 4320, i1 false)
  ret void
}

; miniz_oxide::deflate::core::HuffmanOxide::optimize_table
; Function Attrs: nonlazybind uwtable
define internal fastcc void @_ZN11miniz_oxide7deflate4core12HuffmanOxide14optimize_table17h097662b6d766e228E(%"deflate::core::HuffmanOxide"* noalias align 2 dereferenceable(4320) %self, i64 %table_num, i64 %table_len, i64 %code_size_limit, i1 zeroext %static_table) unnamed_addr #1 personality i32 (...)* @rust_eh_personality {
start:
  %offsets.i = alloca [256 x i64], align 8
  %hist.i = alloca [2 x [256 x i64]], align 8
  %symbols1 = alloca [288 x { i16, i16 }], align 2
  %symbols1454 = bitcast [288 x { i16, i16 }]* %symbols1 to i8*
  %symbols0 = alloca [288 x { i16, i16 }], align 2
  %symbols0453 = bitcast [288 x { i16, i16 }]* %symbols0 to i8*
  %next_code = alloca [33 x i32], align 4
  %num_codes = alloca [33 x i32], align 4
  %0 = bitcast [33 x i32]* %num_codes to i8*
  call void @llvm.lifetime.start.p0i8(i64 132, i8* nonnull %0)
  call void @llvm.memset.p0i8.i64(i8* noundef nonnull align 4 dereferenceable(132) %0, i8 0, i64 132, i1 false)
  %1 = bitcast [33 x i32]* %next_code to i8*
  call void @llvm.lifetime.start.p0i8(i64 132, i8* nonnull %1)
  call void @llvm.memset.p0i8.i64(i8* noundef nonnull align 4 dereferenceable(132) %1, i8 0, i64 132, i1 false)
  br i1 %static_table, label %bb2, label %bb11

bb11:                                             ; preds = %start
  call void @llvm.lifetime.start.p0i8(i64 1152, i8* nonnull %symbols0453)
  call void @llvm.memset.p0i8.i64(i8* noundef nonnull align 2 dereferenceable(1152) %symbols0453, i8 0, i64 1152, i1 false)
  call void @llvm.lifetime.start.p0i8(i64 1152, i8* nonnull %symbols1454)
  call void @llvm.memset.p0i8.i64(i8* noundef nonnull align 2 dereferenceable(1152) %symbols1454, i8 0, i64 1152, i1 false)
  %.not398 = icmp eq i64 %table_len, 0
  br i1 %.not398, label %"_ZN4core5array88_$LT$impl$u20$core..ops..index..IndexMut$LT$I$GT$$u20$for$u20$$u5b$T$u3b$$u20$N$u5d$$GT$9index_mut17h2965e5aa61f89082E.exit108", label %bb18

bb2:                                              ; preds = %start
  %_8.i.i.i.i = icmp ugt i64 %table_len, 288
  br i1 %_8.i.i.i.i, label %bb3.i.i.i.i, label %"_ZN4core5array85_$LT$impl$u20$core..ops..index..Index$LT$I$GT$$u20$for$u20$$u5b$T$u3b$$u20$N$u5d$$GT$5index17hb84173ecde601e1dE.exit"

bb3.i.i.i.i:                                      ; preds = %bb2
; call core::slice::index::slice_end_index_len_fail
  tail call void @_ZN4core5slice5index24slice_end_index_len_fail17h7d511eec41d6bce9E(i64 %table_len, i64 288, %"core::panic::location::Location"* noalias nonnull readonly align 8 dereferenceable(24) bitcast (<{ i8*, [16 x i8] }>* @alloc1436 to %"core::panic::location::Location"*)) #25, !noalias !85
  unreachable

"_ZN4core5array85_$LT$impl$u20$core..ops..index..Index$LT$I$GT$$u20$for$u20$$u5b$T$u3b$$u20$N$u5d$$GT$5index17hb84173ecde601e1dE.exit": ; preds = %bb2
  %2 = getelementptr inbounds %"deflate::core::HuffmanOxide", %"deflate::core::HuffmanOxide"* %self, i64 0, i32 2, i64 %table_num, i64 %table_len
  %_12.i385 = icmp eq i64 %table_len, 0
  br i1 %_12.i385, label %bb62, label %"_ZN91_$LT$core..slice..iter..Iter$LT$T$GT$$u20$as$u20$core..iter..traits..iterator..Iterator$GT$4next17h5efc847fe07af0a1E.exit.preheader"

"_ZN91_$LT$core..slice..iter..Iter$LT$T$GT$$u20$as$u20$core..iter..traits..iterator..Iterator$GT$4next17h5efc847fe07af0a1E.exit.preheader": ; preds = %"_ZN4core5array85_$LT$impl$u20$core..ops..index..Index$LT$I$GT$$u20$for$u20$$u5b$T$u3b$$u20$N$u5d$$GT$5index17hb84173ecde601e1dE.exit"
  %3 = getelementptr inbounds %"deflate::core::HuffmanOxide", %"deflate::core::HuffmanOxide"* %self, i64 0, i32 2, i64 %table_num, i64 0
  br label %"_ZN91_$LT$core..slice..iter..Iter$LT$T$GT$$u20$as$u20$core..iter..traits..iterator..Iterator$GT$4next17h5efc847fe07af0a1E.exit"

"_ZN91_$LT$core..slice..iter..Iter$LT$T$GT$$u20$as$u20$core..iter..traits..iterator..Iterator$GT$4next17h5efc847fe07af0a1E.exit": ; preds = %"_ZN91_$LT$core..slice..iter..Iter$LT$T$GT$$u20$as$u20$core..iter..traits..iterator..Iterator$GT$4next17h5efc847fe07af0a1E.exit.preheader", %bb10
  %iter.sroa.0.0386 = phi i8* [ %4, %bb10 ], [ %3, %"_ZN91_$LT$core..slice..iter..Iter$LT$T$GT$$u20$as$u20$core..iter..traits..iterator..Iterator$GT$4next17h5efc847fe07af0a1E.exit.preheader" ]
  %4 = getelementptr inbounds i8, i8* %iter.sroa.0.0386, i64 1
  %code_size = load i8, i8* %iter.sroa.0.0386, align 1
  %_27 = icmp ult i8 %code_size, 33
  %_24 = zext i8 %code_size to i64
  br i1 %_27, label %bb10, label %panic8, !prof !94

bb10:                                             ; preds = %"_ZN91_$LT$core..slice..iter..Iter$LT$T$GT$$u20$as$u20$core..iter..traits..iterator..Iterator$GT$4next17h5efc847fe07af0a1E.exit"
  %5 = getelementptr inbounds [33 x i32], [33 x i32]* %num_codes, i64 0, i64 %_24
  %6 = load i32, i32* %5, align 4
  %7 = add i32 %6, 1
  store i32 %7, i32* %5, align 4
  %_12.i = icmp eq i8* %4, %2
  br i1 %_12.i, label %bb62, label %"_ZN91_$LT$core..slice..iter..Iter$LT$T$GT$$u20$as$u20$core..iter..traits..iterator..Iterator$GT$4next17h5efc847fe07af0a1E.exit"

panic8:                                           ; preds = %"_ZN91_$LT$core..slice..iter..Iter$LT$T$GT$$u20$as$u20$core..iter..traits..iterator..Iterator$GT$4next17h5efc847fe07af0a1E.exit"
  %_24.le = zext i8 %code_size to i64
; call core::panicking::panic_bounds_check
  tail call void @_ZN4core9panicking18panic_bounds_check17h12b597476ba48ffaE(i64 %_24.le, i64 33, %"core::panic::location::Location"* noalias readonly align 8 dereferenceable(24) bitcast (<{ i8*, [16 x i8] }>* @alloc1438 to %"core::panic::location::Location"*)) #25
  unreachable

bb62:                                             ; preds = %bb10, %"_ZN4core5array85_$LT$impl$u20$core..ops..index..Index$LT$I$GT$$u20$for$u20$$u5b$T$u3b$$u20$N$u5d$$GT$5index17hb84173ecde601e1dE.exit", %bb51
  %8 = getelementptr inbounds [33 x i32], [33 x i32]* %next_code, i64 0, i64 1
  store i32 0, i32* %8, align 4
  %.not.i.i.i150387 = icmp ult i64 %code_size_limit, 2
  br i1 %.not.i.i.i150387, label %bb69, label %bb3.i.i152

bb17:                                             ; preds = %bb25
  %_9.i.i.i.i = icmp ugt i64 %num_used_symbols.1, 288
  br i1 %_9.i.i.i.i, label %bb3.i.i.i.i104, label %"_ZN4core5array88_$LT$impl$u20$core..ops..index..IndexMut$LT$I$GT$$u20$for$u20$$u5b$T$u3b$$u20$N$u5d$$GT$9index_mut17h2965e5aa61f89082E.exit108"

bb3.i.i.i.i104:                                   ; preds = %bb17
; call core::slice::index::slice_end_index_len_fail
  call void @_ZN4core5slice5index24slice_end_index_len_fail17h7d511eec41d6bce9E(i64 %num_used_symbols.1, i64 288, %"core::panic::location::Location"* noalias nonnull readonly align 8 dereferenceable(24) bitcast (<{ i8*, [16 x i8] }>* @alloc1446 to %"core::panic::location::Location"*)) #25, !noalias !95
  unreachable

"_ZN4core5array88_$LT$impl$u20$core..ops..index..IndexMut$LT$I$GT$$u20$for$u20$$u5b$T$u3b$$u20$N$u5d$$GT$9index_mut17h2965e5aa61f89082E.exit108": ; preds = %bb11, %bb17
  %num_used_symbols.0.lcssa460 = phi i64 [ %num_used_symbols.1, %bb17 ], [ 0, %bb11 ]
  call void @llvm.experimental.noalias.scope.decl(metadata !104)
  call void @llvm.experimental.noalias.scope.decl(metadata !107)
  %9 = bitcast [2 x [256 x i64]]* %hist.i to i8*
  call void @llvm.lifetime.start.p0i8(i64 4096, i8* nonnull %9), !noalias !109
  call void @llvm.memset.p0i8.i64(i8* noundef nonnull align 8 dereferenceable(4096) %9, i8 0, i64 4096, i1 false), !noalias !109
  %10 = getelementptr inbounds [288 x { i16, i16 }], [288 x { i16, i16 }]* %symbols0, i64 0, i64 0, i32 0
  %11 = getelementptr inbounds [288 x { i16, i16 }], [288 x { i16, i16 }]* %symbols0, i64 0, i64 %num_used_symbols.0.lcssa460, i32 0
  %_12.i88.i = icmp eq i64 %num_used_symbols.0.lcssa460, 0
  br i1 %_12.i88.i, label %bb7.i, label %bb8.i.preheader

bb8.i.preheader:                                  ; preds = %"_ZN4core5array88_$LT$impl$u20$core..ops..index..IndexMut$LT$I$GT$$u20$for$u20$$u5b$T$u3b$$u20$N$u5d$$GT$9index_mut17h2965e5aa61f89082E.exit108"
  %12 = shl nsw i64 %num_used_symbols.0.lcssa460, 2
  %13 = add i64 %12, -4
  %14 = and i64 %13, 4
  %lcmp.mod.not.not = icmp eq i64 %14, 0
  br i1 %lcmp.mod.not.not, label %bb8.i.prol, label %bb8.i.prol.loopexit

bb8.i.prol:                                       ; preds = %bb8.i.preheader
  %15 = getelementptr inbounds [288 x { i16, i16 }], [288 x { i16, i16 }]* %symbols0, i64 0, i64 1, i32 0
  %_18.i.prol = load i16, i16* %10, align 2, !alias.scope !104, !noalias !107
  %_17.i.prol = and i16 %_18.i.prol, 255
  %_16.i.prol = zext i16 %_17.i.prol to i64
  %16 = getelementptr inbounds [2 x [256 x i64]], [2 x [256 x i64]]* %hist.i, i64 0, i64 0, i64 %_16.i.prol
  %17 = load i64, i64* %16, align 8, !noalias !109
  %18 = add i64 %17, 1
  store i64 %18, i64* %16, align 8, !noalias !109
  %_24.i.prol = lshr i16 %_18.i.prol, 8
  %_22.i.prol = zext i16 %_24.i.prol to i64
  %19 = getelementptr inbounds [2 x [256 x i64]], [2 x [256 x i64]]* %hist.i, i64 0, i64 1, i64 %_22.i.prol
  %20 = load i64, i64* %19, align 8, !noalias !109
  %21 = add i64 %20, 1
  store i64 %21, i64* %19, align 8, !noalias !109
  br label %bb8.i.prol.loopexit

bb8.i.prol.loopexit:                              ; preds = %bb8.i.prol, %bb8.i.preheader
  %iter.sroa.0.089.i.unr = phi i16* [ %10, %bb8.i.preheader ], [ %15, %bb8.i.prol ]
  %22 = icmp eq i64 %13, 0
  br i1 %22, label %bb7.i.loopexit, label %bb8.i

bb7.i.loopexit:                                   ; preds = %bb8.i, %bb8.i.prol.loopexit
  %.phi.trans.insert = getelementptr inbounds [2 x [256 x i64]], [2 x [256 x i64]]* %hist.i, i64 0, i64 1, i64 0
  %_32.i.pre = load i64, i64* %.phi.trans.insert, align 8, !noalias !109
  br label %bb7.i

bb7.i:                                            ; preds = %bb7.i.loopexit, %"_ZN4core5array88_$LT$impl$u20$core..ops..index..IndexMut$LT$I$GT$$u20$for$u20$$u5b$T$u3b$$u20$N$u5d$$GT$9index_mut17h2965e5aa61f89082E.exit108"
  %_32.i = phi i64 [ %_32.i.pre, %bb7.i.loopexit ], [ 0, %"_ZN4core5array88_$LT$impl$u20$core..ops..index..IndexMut$LT$I$GT$$u20$for$u20$$u5b$T$u3b$$u20$N$u5d$$GT$9index_mut17h2965e5aa61f89082E.exit108" ]
  %23 = bitcast [256 x i64]* %offsets.i to i8*
  call void @llvm.lifetime.start.p0i8(i64 2048, i8* nonnull %23), !noalias !109
  call void @llvm.memset.p0i8.i64(i8* noundef nonnull align 8 dereferenceable(2048) %23, i8 0, i64 2048, i1 false), !noalias !109
  br label %bb24.us.i

bb8.i:                                            ; preds = %bb8.i.prol.loopexit, %bb8.i
  %iter.sroa.0.089.i = phi i16* [ %31, %bb8.i ], [ %iter.sroa.0.089.i.unr, %bb8.i.prol.loopexit ]
  %24 = getelementptr inbounds i16, i16* %iter.sroa.0.089.i, i64 2
  %_18.i = load i16, i16* %iter.sroa.0.089.i, align 2, !alias.scope !104, !noalias !107
  %_17.i = and i16 %_18.i, 255
  %_16.i = zext i16 %_17.i to i64
  %25 = getelementptr inbounds [2 x [256 x i64]], [2 x [256 x i64]]* %hist.i, i64 0, i64 0, i64 %_16.i
  %26 = load i64, i64* %25, align 8, !noalias !109
  %27 = add i64 %26, 1
  store i64 %27, i64* %25, align 8, !noalias !109
  %_24.i = lshr i16 %_18.i, 8
  %_22.i = zext i16 %_24.i to i64
  %28 = getelementptr inbounds [2 x [256 x i64]], [2 x [256 x i64]]* %hist.i, i64 0, i64 1, i64 %_22.i
  %29 = load i64, i64* %28, align 8, !noalias !109
  %30 = add i64 %29, 1
  store i64 %30, i64* %28, align 8, !noalias !109
  %31 = getelementptr inbounds i16, i16* %iter.sroa.0.089.i, i64 4
  %_18.i.1 = load i16, i16* %24, align 2, !alias.scope !104, !noalias !107
  %_17.i.1 = and i16 %_18.i.1, 255
  %_16.i.1 = zext i16 %_17.i.1 to i64
  %32 = getelementptr inbounds [2 x [256 x i64]], [2 x [256 x i64]]* %hist.i, i64 0, i64 0, i64 %_16.i.1
  %33 = load i64, i64* %32, align 8, !noalias !109
  %34 = add i64 %33, 1
  store i64 %34, i64* %32, align 8, !noalias !109
  %_24.i.1 = lshr i16 %_18.i.1, 8
  %_22.i.1 = zext i16 %_24.i.1 to i64
  %35 = getelementptr inbounds [2 x [256 x i64]], [2 x [256 x i64]]* %hist.i, i64 0, i64 1, i64 %_22.i.1
  %36 = load i64, i64* %35, align 8, !noalias !109
  %37 = add i64 %36, 1
  store i64 %37, i64* %35, align 8, !noalias !109
  %_12.i.i.1 = icmp eq i16* %31, %11
  br i1 %_12.i.i.1, label %bb7.i.loopexit, label %bb8.i

bb24.us.i:                                        ; preds = %bb24.us.i, %bb7.i
  %offset.091.us.i = phi i64 [ 0, %bb7.i ], [ %53, %bb24.us.i ]
  %iter2.sroa.0.090.us.i = phi i64 [ 0, %bb7.i ], [ %51, %bb24.us.i ]
  %38 = getelementptr inbounds [256 x i64], [256 x i64]* %offsets.i, i64 0, i64 %iter2.sroa.0.090.us.i
  store i64 %offset.091.us.i, i64* %38, align 8, !noalias !109
  %39 = or i64 %iter2.sroa.0.090.us.i, 1
  %40 = getelementptr inbounds [2 x [256 x i64]], [2 x [256 x i64]]* %hist.i, i64 0, i64 0, i64 %iter2.sroa.0.090.us.i
  %_60.us.i = load i64, i64* %40, align 8, !noalias !109
  %41 = add i64 %_60.us.i, %offset.091.us.i
  %42 = getelementptr inbounds [256 x i64], [256 x i64]* %offsets.i, i64 0, i64 %39
  store i64 %41, i64* %42, align 8, !noalias !109
  %43 = or i64 %iter2.sroa.0.090.us.i, 2
  %44 = getelementptr inbounds [2 x [256 x i64]], [2 x [256 x i64]]* %hist.i, i64 0, i64 0, i64 %39
  %_60.us.i.1 = load i64, i64* %44, align 8, !noalias !109
  %45 = add i64 %_60.us.i.1, %41
  %46 = getelementptr inbounds [256 x i64], [256 x i64]* %offsets.i, i64 0, i64 %43
  store i64 %45, i64* %46, align 8, !noalias !109
  %47 = or i64 %iter2.sroa.0.090.us.i, 3
  %48 = getelementptr inbounds [2 x [256 x i64]], [2 x [256 x i64]]* %hist.i, i64 0, i64 0, i64 %43
  %_60.us.i.2 = load i64, i64* %48, align 8, !noalias !109
  %49 = add i64 %_60.us.i.2, %45
  %50 = getelementptr inbounds [256 x i64], [256 x i64]* %offsets.i, i64 0, i64 %47
  store i64 %49, i64* %50, align 8, !noalias !109
  %51 = add nuw nsw i64 %iter2.sroa.0.090.us.i, 4
  %52 = getelementptr inbounds [2 x [256 x i64]], [2 x [256 x i64]]* %hist.i, i64 0, i64 0, i64 %47
  %_60.us.i.3 = load i64, i64* %52, align 8, !noalias !109
  %53 = add i64 %_60.us.i.3, %49
  %exitcond.not.i.3 = icmp eq i64 %51, 256
  br i1 %exitcond.not.i.3, label %bb23.split.us.i, label %bb24.us.i

bb23.split.us.i:                                  ; preds = %bb24.us.i
  %_29.i = icmp eq i64 %_32.i, %num_used_symbols.0.lcssa460
  br i1 %_12.i88.i, label %bb33.i, label %"_ZN91_$LT$core..slice..iter..Iter$LT$T$GT$$u20$as$u20$core..iter..traits..iterator..Iterator$GT$4next17h649500afb50e1ee0E.exit50.i"

"_ZN91_$LT$core..slice..iter..Iter$LT$T$GT$$u20$as$u20$core..iter..traits..iterator..Iterator$GT$4next17h649500afb50e1ee0E.exit50.i": ; preds = %bb23.split.us.i, %bb35.i
  %iter3.sroa.0.095.i = phi i16* [ %54, %bb35.i ], [ %10, %bb23.split.us.i ]
  %54 = getelementptr inbounds i16, i16* %iter3.sroa.0.095.i, i64 2
  %_82.0.i = load i16, i16* %iter3.sroa.0.095.i, align 2, !alias.scope !104, !noalias !107
  %_77.i = and i16 %_82.0.i, 255
  %j.i = zext i16 %_77.i to i64
  %55 = getelementptr inbounds [256 x i64], [256 x i64]* %offsets.i, i64 0, i64 %j.i
  %_83.i = load i64, i64* %55, align 8, !noalias !109
  %_88.i = icmp ult i64 %_83.i, %num_used_symbols.0.lcssa460
  br i1 %_88.i, label %bb35.i, label %panic9.i, !prof !94

bb33.i:                                           ; preds = %bb35.i, %bb23.split.us.i
  call void @llvm.lifetime.end.p0i8(i64 2048, i8* nonnull %23), !noalias !109
  br i1 %_29.i, label %_ZN11miniz_oxide7deflate4core12HuffmanOxide18radix_sort_symbols17h0b130148a94de2b9E.exit, label %bb15.1.i

bb35.i:                                           ; preds = %"_ZN91_$LT$core..slice..iter..Iter$LT$T$GT$$u20$as$u20$core..iter..traits..iterator..Iterator$GT$4next17h649500afb50e1ee0E.exit50.i"
  %56 = getelementptr inbounds i16, i16* %iter3.sroa.0.095.i, i64 1
  %_82.1.i = load i16, i16* %56, align 2, !alias.scope !104, !noalias !107
  %57 = getelementptr inbounds [288 x { i16, i16 }], [288 x { i16, i16 }]* %symbols1, i64 0, i64 %_83.i, i32 0
  store i16 %_82.0.i, i16* %57, align 2, !alias.scope !107, !noalias !104
  %58 = getelementptr inbounds [288 x { i16, i16 }], [288 x { i16, i16 }]* %symbols1, i64 0, i64 %_83.i, i32 1
  store i16 %_82.1.i, i16* %58, align 2, !alias.scope !107, !noalias !104
  %59 = add nuw i64 %_83.i, 1
  store i64 %59, i64* %55, align 8, !noalias !109
  %_12.i47.i = icmp eq i16* %54, %11
  br i1 %_12.i47.i, label %bb33.i, label %"_ZN91_$LT$core..slice..iter..Iter$LT$T$GT$$u20$as$u20$core..iter..traits..iterator..Iterator$GT$4next17h649500afb50e1ee0E.exit50.i"

panic9.i:                                         ; preds = %"_ZN91_$LT$core..slice..iter..Iter$LT$T$GT$$u20$as$u20$core..iter..traits..iterator..Iterator$GT$4next17h649500afb50e1ee0E.exit50.i", %"_ZN91_$LT$core..slice..iter..Iter$LT$T$GT$$u20$as$u20$core..iter..traits..iterator..Iterator$GT$4next17h649500afb50e1ee0E.exit50.1.i"
  %_83.lcssa.i = phi i64 [ %_83.1.i, %"_ZN91_$LT$core..slice..iter..Iter$LT$T$GT$$u20$as$u20$core..iter..traits..iterator..Iterator$GT$4next17h649500afb50e1ee0E.exit50.1.i" ], [ %_83.i, %"_ZN91_$LT$core..slice..iter..Iter$LT$T$GT$$u20$as$u20$core..iter..traits..iterator..Iterator$GT$4next17h649500afb50e1ee0E.exit50.i" ]
; call core::panicking::panic_bounds_check
  call void @_ZN4core9panicking18panic_bounds_check17h12b597476ba48ffaE(i64 %_83.lcssa.i, i64 %num_used_symbols.0.lcssa460, %"core::panic::location::Location"* noalias readonly align 8 dereferenceable(24) bitcast (<{ i8*, [16 x i8] }>* @alloc1368 to %"core::panic::location::Location"*)) #25
  unreachable

bb15.1.i:                                         ; preds = %bb33.i
  call void @llvm.lifetime.start.p0i8(i64 2048, i8* nonnull %23), !noalias !109
  %60 = bitcast [256 x i64]* %offsets.i to i8*
  call void @llvm.memset.p0i8.i64(i8* noundef nonnull align 8 dereferenceable(2048) %60, i8 0, i64 2048, i1 false)
  br label %bb24.us.1.bb24.us.1_crit_edge.i

bb24.us.1.bb24.us.1_crit_edge.i:                  ; preds = %bb24.us.1.bb24.us.1_crit_edge.i, %bb15.1.i
  %61 = phi i64 [ 1, %bb15.1.i ], [ %76, %bb24.us.1.bb24.us.1_crit_edge.i ]
  %offset.091.us.1.i371 = phi i64 [ 0, %bb15.1.i ], [ %74, %bb24.us.1.bb24.us.1_crit_edge.i ]
  %_60.us.1.i370 = phi i64 [ %_32.i, %bb15.1.i ], [ %_60.us.1.pre.i.4, %bb24.us.1.bb24.us.1_crit_edge.i ]
  %62 = add i64 %offset.091.us.1.i371, %_60.us.1.i370
  %.phi.trans.insert.i = getelementptr inbounds [2 x [256 x i64]], [2 x [256 x i64]]* %hist.i, i64 0, i64 1, i64 %61
  %_60.us.1.pre.i = load i64, i64* %.phi.trans.insert.i, align 8, !noalias !109
  %63 = getelementptr inbounds [256 x i64], [256 x i64]* %offsets.i, i64 0, i64 %61
  store i64 %62, i64* %63, align 8, !noalias !109
  %64 = add nuw nsw i64 %61, 1
  %65 = add i64 %62, %_60.us.1.pre.i
  %.phi.trans.insert.i.1 = getelementptr inbounds [2 x [256 x i64]], [2 x [256 x i64]]* %hist.i, i64 0, i64 1, i64 %64
  %_60.us.1.pre.i.1 = load i64, i64* %.phi.trans.insert.i.1, align 8, !noalias !109
  %66 = getelementptr inbounds [256 x i64], [256 x i64]* %offsets.i, i64 0, i64 %64
  store i64 %65, i64* %66, align 8, !noalias !109
  %67 = add nuw nsw i64 %61, 2
  %68 = add i64 %65, %_60.us.1.pre.i.1
  %.phi.trans.insert.i.2 = getelementptr inbounds [2 x [256 x i64]], [2 x [256 x i64]]* %hist.i, i64 0, i64 1, i64 %67
  %_60.us.1.pre.i.2 = load i64, i64* %.phi.trans.insert.i.2, align 8, !noalias !109
  %69 = getelementptr inbounds [256 x i64], [256 x i64]* %offsets.i, i64 0, i64 %67
  store i64 %68, i64* %69, align 8, !noalias !109
  %70 = add nuw nsw i64 %61, 3
  %71 = add i64 %68, %_60.us.1.pre.i.2
  %.phi.trans.insert.i.3 = getelementptr inbounds [2 x [256 x i64]], [2 x [256 x i64]]* %hist.i, i64 0, i64 1, i64 %70
  %_60.us.1.pre.i.3 = load i64, i64* %.phi.trans.insert.i.3, align 8, !noalias !109
  %72 = getelementptr inbounds [256 x i64], [256 x i64]* %offsets.i, i64 0, i64 %70
  store i64 %71, i64* %72, align 8, !noalias !109
  %73 = add nuw nsw i64 %61, 4
  %74 = add i64 %71, %_60.us.1.pre.i.3
  %.phi.trans.insert.i.4 = getelementptr inbounds [2 x [256 x i64]], [2 x [256 x i64]]* %hist.i, i64 0, i64 1, i64 %73
  %_60.us.1.pre.i.4 = load i64, i64* %.phi.trans.insert.i.4, align 8, !noalias !109
  %75 = getelementptr inbounds [256 x i64], [256 x i64]* %offsets.i, i64 0, i64 %73
  store i64 %74, i64* %75, align 8, !noalias !109
  %76 = add nuw nsw i64 %61, 5
  %exitcond.1.not.i.4 = icmp eq i64 %76, 256
  br i1 %exitcond.1.not.i.4, label %bb23.split.us.1.i, label %bb24.us.1.bb24.us.1_crit_edge.i

bb23.split.us.1.i:                                ; preds = %bb24.us.1.bb24.us.1_crit_edge.i
  %77 = getelementptr inbounds [288 x { i16, i16 }], [288 x { i16, i16 }]* %symbols1, i64 0, i64 %num_used_symbols.0.lcssa460, i32 0
  br i1 %_12.i88.i, label %bb33.1.i, label %"_ZN91_$LT$core..slice..iter..Iter$LT$T$GT$$u20$as$u20$core..iter..traits..iterator..Iterator$GT$4next17h649500afb50e1ee0E.exit50.preheader.1.i"

"_ZN91_$LT$core..slice..iter..Iter$LT$T$GT$$u20$as$u20$core..iter..traits..iterator..Iterator$GT$4next17h649500afb50e1ee0E.exit50.preheader.1.i": ; preds = %bb23.split.us.1.i
  %78 = getelementptr inbounds [288 x { i16, i16 }], [288 x { i16, i16 }]* %symbols1, i64 0, i64 0, i32 0
  br label %"_ZN91_$LT$core..slice..iter..Iter$LT$T$GT$$u20$as$u20$core..iter..traits..iterator..Iterator$GT$4next17h649500afb50e1ee0E.exit50.1.i"

"_ZN91_$LT$core..slice..iter..Iter$LT$T$GT$$u20$as$u20$core..iter..traits..iterator..Iterator$GT$4next17h649500afb50e1ee0E.exit50.1.i": ; preds = %bb35.1.i, %"_ZN91_$LT$core..slice..iter..Iter$LT$T$GT$$u20$as$u20$core..iter..traits..iterator..Iterator$GT$4next17h649500afb50e1ee0E.exit50.preheader.1.i"
  %iter3.sroa.0.095.1.i = phi i16* [ %79, %bb35.1.i ], [ %78, %"_ZN91_$LT$core..slice..iter..Iter$LT$T$GT$$u20$as$u20$core..iter..traits..iterator..Iterator$GT$4next17h649500afb50e1ee0E.exit50.preheader.1.i" ]
  %79 = getelementptr inbounds i16, i16* %iter3.sroa.0.095.1.i, i64 2
  %_82.0.1.i = load i16, i16* %iter3.sroa.0.095.1.i, align 2, !alias.scope !107, !noalias !104
  %_78.1.i = lshr i16 %_82.0.1.i, 8
  %j.1.i = zext i16 %_78.1.i to i64
  %80 = getelementptr inbounds [256 x i64], [256 x i64]* %offsets.i, i64 0, i64 %j.1.i
  %_83.1.i = load i64, i64* %80, align 8, !noalias !109
  %_88.1.i = icmp ult i64 %_83.1.i, %num_used_symbols.0.lcssa460
  br i1 %_88.1.i, label %bb35.1.i, label %panic9.i, !prof !94

bb35.1.i:                                         ; preds = %"_ZN91_$LT$core..slice..iter..Iter$LT$T$GT$$u20$as$u20$core..iter..traits..iterator..Iterator$GT$4next17h649500afb50e1ee0E.exit50.1.i"
  %81 = getelementptr inbounds i16, i16* %iter3.sroa.0.095.1.i, i64 1
  %_82.1.1.i = load i16, i16* %81, align 2, !alias.scope !107, !noalias !104
  %82 = getelementptr inbounds [288 x { i16, i16 }], [288 x { i16, i16 }]* %symbols0, i64 0, i64 %_83.1.i, i32 0
  store i16 %_82.0.1.i, i16* %82, align 2, !alias.scope !104, !noalias !107
  %83 = getelementptr inbounds [288 x { i16, i16 }], [288 x { i16, i16 }]* %symbols0, i64 0, i64 %_83.1.i, i32 1
  store i16 %_82.1.1.i, i16* %83, align 2, !alias.scope !104, !noalias !107
  %84 = add nuw i64 %_83.1.i, 1
  store i64 %84, i64* %80, align 8, !noalias !109
  %_12.i47.1.i = icmp eq i16* %79, %77
  br i1 %_12.i47.1.i, label %bb33.1.i, label %"_ZN91_$LT$core..slice..iter..Iter$LT$T$GT$$u20$as$u20$core..iter..traits..iterator..Iterator$GT$4next17h649500afb50e1ee0E.exit50.1.i"

bb33.1.i:                                         ; preds = %bb35.1.i, %bb23.split.us.1.i
  %num_used_symbols.0.lcssa462 = phi i64 [ 0, %bb23.split.us.1.i ], [ %num_used_symbols.0.lcssa460, %bb35.1.i ]
  call void @llvm.lifetime.end.p0i8(i64 2048, i8* nonnull %23), !noalias !109
  br label %_ZN11miniz_oxide7deflate4core12HuffmanOxide18radix_sort_symbols17h0b130148a94de2b9E.exit

_ZN11miniz_oxide7deflate4core12HuffmanOxide18radix_sort_symbols17h0b130148a94de2b9E.exit: ; preds = %bb33.1.i, %bb33.i
  %num_used_symbols.0.lcssa461 = phi i64 [ %num_used_symbols.0.lcssa460, %bb33.i ], [ %num_used_symbols.0.lcssa462, %bb33.1.i ]
  %new_symbols.sroa.0.098.lcssa107.i.in = phi [288 x { i16, i16 }]* [ %symbols1, %bb33.i ], [ %symbols0, %bb33.1.i ]
  call void @llvm.lifetime.end.p0i8(i64 4096, i8* nonnull %9), !noalias !109
  call void @llvm.experimental.noalias.scope.decl(metadata !110)
  switch i64 %num_used_symbols.0.lcssa461, label %bb5.i [
    i64 0, label %_ZN11miniz_oxide7deflate4core12HuffmanOxide28calculate_minimum_redundancy17h81d5c12bba9e3ccdE.exit
    i64 1, label %bb3.i
  ]

bb5.i:                                            ; preds = %_ZN11miniz_oxide7deflate4core12HuffmanOxide18radix_sort_symbols17h0b130148a94de2b9E.exit
  %85 = getelementptr inbounds [288 x { i16, i16 }], [288 x { i16, i16 }]* %new_symbols.sroa.0.098.lcssa107.i.in, i64 0, i64 1, i32 0
  %_8.i = load i16, i16* %85, align 2, !alias.scope !110
  %86 = getelementptr inbounds [288 x { i16, i16 }], [288 x { i16, i16 }]* %new_symbols.sroa.0.098.lcssa107.i.in, i64 0, i64 0, i32 0
  %87 = load i16, i16* %86, align 2, !alias.scope !110
  %88 = add i16 %87, %_8.i
  store i16 %88, i16* %86, align 2, !alias.scope !110
  %_19.i = add i64 %num_used_symbols.0.lcssa461, -1
  %89 = icmp ugt i64 %_19.i, 1
  br i1 %89, label %bb9.i, label %bb45.thread.i

bb45.thread.i:                                    ; preds = %bb5.i
  %_103162.i = add nsw i64 %num_used_symbols.0.lcssa461, -2
  %90 = getelementptr inbounds [288 x { i16, i16 }], [288 x { i16, i16 }]* %new_symbols.sroa.0.098.lcssa107.i.in, i64 0, i64 %_103162.i, i32 0
  store i16 0, i16* %90, align 2, !alias.scope !110
  br label %bb52.i

bb9.i:                                            ; preds = %bb5.i, %bb44.i
  %root.0116.i = phi i64 [ %root.2.i, %bb44.i ], [ 0, %bb5.i ]
  %leaf.0114.i = phi i64 [ %leaf.2.i, %bb44.i ], [ 2, %bb5.i ]
  %iter.sroa.0.0112.i = phi i64 [ %91, %bb44.i ], [ 1, %bb5.i ]
  %91 = add nuw i64 %iter.sroa.0.0112.i, 1
  %_28.not.i = icmp ult i64 %leaf.0114.i, %num_used_symbols.0.lcssa461
  br i1 %_28.not.i, label %bb13.i, label %bb17.i

bb13.i:                                           ; preds = %bb9.i
  %_35.i = icmp ult i64 %root.0116.i, %num_used_symbols.0.lcssa461
  br i1 %_35.i, label %bb16.i, label %panic5.i, !prof !94

panic5.i:                                         ; preds = %bb13.i
; call core::panicking::panic_bounds_check
  call void @_ZN4core9panicking18panic_bounds_check17h12b597476ba48ffaE(i64 %root.0116.i, i64 %num_used_symbols.0.lcssa461, %"core::panic::location::Location"* noalias readonly align 8 dereferenceable(24) bitcast (<{ i8*, [16 x i8] }>* @alloc1376 to %"core::panic::location::Location"*)) #25, !noalias !110
  unreachable

bb16.i:                                           ; preds = %bb13.i
  %92 = getelementptr inbounds [288 x { i16, i16 }], [288 x { i16, i16 }]* %new_symbols.sroa.0.098.lcssa107.i.in, i64 0, i64 %root.0116.i, i32 0
  %_32.i109 = load i16, i16* %92, align 2, !alias.scope !110
  %93 = getelementptr inbounds [288 x { i16, i16 }], [288 x { i16, i16 }]* %new_symbols.sroa.0.098.lcssa107.i.in, i64 0, i64 %leaf.0114.i, i32 0
  %_36.i = load i16, i16* %93, align 2, !alias.scope !110
  %_31.i = icmp ult i16 %_32.i109, %_36.i
  br i1 %_31.i, label %bb17.i, label %bb22.i

bb17.i:                                           ; preds = %bb16.i, %bb9.i
  %_43.i = icmp ult i64 %root.0116.i, %num_used_symbols.0.lcssa461
  br i1 %_43.i, label %bb18.i, label %panic7.i, !prof !94

bb18.i:                                           ; preds = %bb17.i
  %94 = getelementptr inbounds [288 x { i16, i16 }], [288 x { i16, i16 }]* %new_symbols.sroa.0.098.lcssa107.i.in, i64 0, i64 %root.0116.i, i32 0
  %_46.i = icmp ult i64 %iter.sroa.0.0112.i, %num_used_symbols.0.lcssa461
  br i1 %_46.i, label %bb19.i, label %panic8.i, !prof !94

panic7.i:                                         ; preds = %bb17.i
; call core::panicking::panic_bounds_check
  call void @_ZN4core9panicking18panic_bounds_check17h12b597476ba48ffaE(i64 %root.0116.i, i64 %num_used_symbols.0.lcssa461, %"core::panic::location::Location"* noalias readonly align 8 dereferenceable(24) bitcast (<{ i8*, [16 x i8] }>* @alloc1380 to %"core::panic::location::Location"*)) #25, !noalias !110
  unreachable

bb19.i:                                           ; preds = %bb18.i
  %_40.i = load i16, i16* %94, align 2, !alias.scope !110
  %95 = getelementptr inbounds [288 x { i16, i16 }], [288 x { i16, i16 }]* %new_symbols.sroa.0.098.lcssa107.i.in, i64 0, i64 %iter.sroa.0.0112.i, i32 0
  store i16 %_40.i, i16* %95, align 2, !alias.scope !110
  %96 = trunc i64 %iter.sroa.0.0112.i to i16
  store i16 %96, i16* %94, align 2, !alias.scope !110
  %97 = add nuw i64 %root.0116.i, 1
  br label %bb24.i110

panic8.i:                                         ; preds = %bb18.i
; call core::panicking::panic_bounds_check
  call void @_ZN4core9panicking18panic_bounds_check17h12b597476ba48ffaE(i64 %iter.sroa.0.0112.i, i64 %num_used_symbols.0.lcssa461, %"core::panic::location::Location"* noalias readonly align 8 dereferenceable(24) bitcast (<{ i8*, [16 x i8] }>* @alloc1382 to %"core::panic::location::Location"*)) #25, !noalias !110
  unreachable

bb24.i110:                                        ; preds = %bb23.i, %bb19.i
  %leaf.1.i = phi i64 [ %leaf.0114.i, %bb19.i ], [ %99, %bb23.i ]
  %root.1.i = phi i64 [ %97, %bb19.i ], [ %root.0116.i, %bb23.i ]
  %_59.not.i = icmp ult i64 %leaf.1.i, %num_used_symbols.0.lcssa461
  br i1 %_59.not.i, label %bb26.i, label %bb33.i111

bb22.i:                                           ; preds = %bb16.i
  %_57.i = icmp ult i64 %iter.sroa.0.0112.i, %num_used_symbols.0.lcssa461
  br i1 %_57.i, label %bb23.i, label %panic11.i, !prof !94

bb23.i:                                           ; preds = %bb22.i
  %98 = getelementptr inbounds [288 x { i16, i16 }], [288 x { i16, i16 }]* %new_symbols.sroa.0.098.lcssa107.i.in, i64 0, i64 %iter.sroa.0.0112.i, i32 0
  store i16 %_36.i, i16* %98, align 2, !alias.scope !110
  %99 = add nuw i64 %leaf.0114.i, 1
  br label %bb24.i110

panic11.i:                                        ; preds = %bb22.i
; call core::panicking::panic_bounds_check
  call void @_ZN4core9panicking18panic_bounds_check17h12b597476ba48ffaE(i64 %iter.sroa.0.0112.i, i64 %num_used_symbols.0.lcssa461, %"core::panic::location::Location"* noalias readonly align 8 dereferenceable(24) bitcast (<{ i8*, [16 x i8] }>* @alloc1388 to %"core::panic::location::Location"*)) #25, !noalias !110
  unreachable

bb26.i:                                           ; preds = %bb24.i110
  %_63.i = icmp ult i64 %root.1.i, %iter.sroa.0.0112.i
  br i1 %_63.i, label %bb29.i, label %bb39.i

bb29.i:                                           ; preds = %bb26.i
  %_70.i = icmp ult i64 %root.1.i, %num_used_symbols.0.lcssa461
  br i1 %_70.i, label %bb32.i, label %panic12.i, !prof !94

panic12.i:                                        ; preds = %bb29.i
; call core::panicking::panic_bounds_check
  call void @_ZN4core9panicking18panic_bounds_check17h12b597476ba48ffaE(i64 %root.1.i, i64 %num_used_symbols.0.lcssa461, %"core::panic::location::Location"* noalias readonly align 8 dereferenceable(24) bitcast (<{ i8*, [16 x i8] }>* @alloc1390 to %"core::panic::location::Location"*)) #25, !noalias !110
  unreachable

bb32.i:                                           ; preds = %bb29.i
  %100 = getelementptr inbounds [288 x { i16, i16 }], [288 x { i16, i16 }]* %new_symbols.sroa.0.098.lcssa107.i.in, i64 0, i64 %root.1.i, i32 0
  %_67.i = load i16, i16* %100, align 2, !alias.scope !110
  %101 = getelementptr inbounds [288 x { i16, i16 }], [288 x { i16, i16 }]* %new_symbols.sroa.0.098.lcssa107.i.in, i64 0, i64 %leaf.1.i, i32 0
  %_71.i = load i16, i16* %101, align 2, !alias.scope !110
  %_66.i = icmp ult i16 %_67.i, %_71.i
  br i1 %_66.i, label %bb33.i111, label %bb39.i

bb39.i:                                           ; preds = %bb32.i, %bb26.i
  %_95.i = icmp ult i64 %iter.sroa.0.0112.i, %num_used_symbols.0.lcssa461
  br i1 %_95.i, label %bb41.i, label %panic18.i, !prof !94

bb33.i111:                                        ; preds = %bb32.i, %bb24.i110
  %_79.i = icmp ult i64 %iter.sroa.0.0112.i, %num_used_symbols.0.lcssa461
  br i1 %_79.i, label %bb34.i, label %panic14.i, !prof !94

bb34.i:                                           ; preds = %bb33.i111
  %102 = getelementptr inbounds [288 x { i16, i16 }], [288 x { i16, i16 }]* %new_symbols.sroa.0.098.lcssa107.i.in, i64 0, i64 %iter.sroa.0.0112.i, i32 0
  %_83.i112 = icmp ult i64 %root.1.i, %num_used_symbols.0.lcssa461
  br i1 %_83.i112, label %bb35.i113, label %panic15.i, !prof !94

panic14.i:                                        ; preds = %bb33.i111
; call core::panicking::panic_bounds_check
  call void @_ZN4core9panicking18panic_bounds_check17h12b597476ba48ffaE(i64 %iter.sroa.0.0112.i, i64 %num_used_symbols.0.lcssa461, %"core::panic::location::Location"* noalias readonly align 8 dereferenceable(24) bitcast (<{ i8*, [16 x i8] }>* @alloc1394 to %"core::panic::location::Location"*)) #25, !noalias !110
  unreachable

bb35.i113:                                        ; preds = %bb34.i
  %_76.i = load i16, i16* %102, align 2, !alias.scope !110
  %103 = getelementptr inbounds [288 x { i16, i16 }], [288 x { i16, i16 }]* %new_symbols.sroa.0.098.lcssa107.i.in, i64 0, i64 %root.1.i, i32 0
  %_80.i = load i16, i16* %103, align 2, !alias.scope !110
  %104 = add i16 %_80.i, %_76.i
  store i16 %104, i16* %102, align 2, !alias.scope !110
  %105 = trunc i64 %iter.sroa.0.0112.i to i16
  store i16 %105, i16* %103, align 2, !alias.scope !110
  %106 = add nuw i64 %root.1.i, 1
  br label %bb44.i

panic15.i:                                        ; preds = %bb34.i
; call core::panicking::panic_bounds_check
  call void @_ZN4core9panicking18panic_bounds_check17h12b597476ba48ffaE(i64 %root.1.i, i64 %num_used_symbols.0.lcssa461, %"core::panic::location::Location"* noalias readonly align 8 dereferenceable(24) bitcast (<{ i8*, [16 x i8] }>* @alloc1396 to %"core::panic::location::Location"*)) #25, !noalias !110
  unreachable

bb44.i:                                           ; preds = %bb41.i, %bb35.i113
  %leaf.2.i = phi i64 [ %leaf.1.i, %bb35.i113 ], [ %110, %bb41.i ]
  %root.2.i = phi i64 [ %106, %bb35.i113 ], [ %root.1.i, %bb41.i ]
  %exitcond.not.i114 = icmp eq i64 %91, %_19.i
  br i1 %exitcond.not.i114, label %bb45.i, label %bb9.i

panic18.i:                                        ; preds = %bb39.i
; call core::panicking::panic_bounds_check
  call void @_ZN4core9panicking18panic_bounds_check17h12b597476ba48ffaE(i64 %iter.sroa.0.0112.i, i64 %num_used_symbols.0.lcssa461, %"core::panic::location::Location"* noalias readonly align 8 dereferenceable(24) bitcast (<{ i8*, [16 x i8] }>* @alloc1402 to %"core::panic::location::Location"*)) #25, !noalias !110
  unreachable

bb41.i:                                           ; preds = %bb39.i
  %107 = getelementptr inbounds [288 x { i16, i16 }], [288 x { i16, i16 }]* %new_symbols.sroa.0.098.lcssa107.i.in, i64 0, i64 %iter.sroa.0.0112.i, i32 0
  %_92.i = load i16, i16* %107, align 2, !alias.scope !110
  %108 = getelementptr inbounds [288 x { i16, i16 }], [288 x { i16, i16 }]* %new_symbols.sroa.0.098.lcssa107.i.in, i64 0, i64 %leaf.1.i, i32 0
  %_96.i = load i16, i16* %108, align 2, !alias.scope !110
  %109 = add i16 %_96.i, %_92.i
  store i16 %109, i16* %107, align 2, !alias.scope !110
  %110 = add nuw i64 %leaf.1.i, 1
  br label %bb44.i

bb45.i:                                           ; preds = %bb44.i
  %_103.i = add i64 %num_used_symbols.0.lcssa461, -2
  %111 = getelementptr inbounds [288 x { i16, i16 }], [288 x { i16, i16 }]* %new_symbols.sroa.0.098.lcssa107.i.in, i64 0, i64 %_103.i, i32 0
  store i16 0, i16* %111, align 2, !alias.scope !110
  %.not117.i = icmp eq i64 %_103.i, 0
  br i1 %.not117.i, label %bb52.i, label %bb50.preheader.i

bb50.preheader.i:                                 ; preds = %bb45.i
  %_123160.i = icmp ugt i64 %num_used_symbols.0.lcssa461, 2
  br i1 %_123160.i, label %bb50.i.us, label %bb50.i, !prof !94

bb50.i.us:                                        ; preds = %bb50.preheader.i, %bb55.i.us
  %iter1.sroa.4.0118.i.us = phi i64 [ %112, %bb55.i.us ], [ %_103.i, %bb50.preheader.i ]
  %112 = add i64 %iter1.sroa.4.0118.i.us, -1
  %113 = getelementptr inbounds [288 x { i16, i16 }], [288 x { i16, i16 }]* %new_symbols.sroa.0.098.lcssa107.i.in, i64 0, i64 %112, i32 0
  %_120.i.us = load i16, i16* %113, align 2, !alias.scope !110
  %_119.i.us = zext i16 %_120.i.us to i64
  %_125.i.us = icmp ugt i64 %num_used_symbols.0.lcssa461, %_119.i.us
  br i1 %_125.i.us, label %bb55.i.us, label %panic24.i, !prof !94

bb55.i.us:                                        ; preds = %bb50.i.us
  %114 = getelementptr inbounds [288 x { i16, i16 }], [288 x { i16, i16 }]* %new_symbols.sroa.0.098.lcssa107.i.in, i64 0, i64 %_119.i.us, i32 0
  %_118.i.us = load i16, i16* %114, align 2, !alias.scope !110
  %115 = add i16 %_118.i.us, 1
  store i16 %115, i16* %113, align 2, !alias.scope !110
  %.not.i.us = icmp eq i64 %112, 0
  br i1 %.not.i.us, label %bb52.i, label %bb50.i.us

bb52.i:                                           ; preds = %bb55.i.us, %bb45.i, %bb45.thread.i
  %num_used_symbols.0.lcssa463 = phi i64 [ 2, %bb45.thread.i ], [ 2, %bb45.i ], [ %num_used_symbols.0.lcssa461, %bb55.i.us ]
  %_103164.i = phi i64 [ 0, %bb45.thread.i ], [ 0, %bb45.i ], [ %_103.i, %bb55.i.us ]
  %116 = trunc i64 %_103164.i to i32
  %117 = trunc i64 %_19.i to i32
  br label %bb58.preheader.i

bb50.i:                                           ; preds = %bb50.preheader.i
  %118 = add nuw nsw i64 %num_used_symbols.0.lcssa461, -3
; call core::panicking::panic_bounds_check
  call void @_ZN4core9panicking18panic_bounds_check17h12b597476ba48ffaE(i64 %118, i64 %num_used_symbols.0.lcssa461, %"core::panic::location::Location"* noalias readonly align 8 dereferenceable(24) bitcast (<{ i8*, [16 x i8] }>* @alloc1410 to %"core::panic::location::Location"*)) #25, !noalias !110
  unreachable

panic24.i:                                        ; preds = %bb50.i.us
  %_119.i.us.le = zext i16 %_120.i.us to i64
; call core::panicking::panic_bounds_check
  call void @_ZN4core9panicking18panic_bounds_check17h12b597476ba48ffaE(i64 %_119.i.us.le, i64 %num_used_symbols.0.lcssa461, %"core::panic::location::Location"* noalias readonly align 8 dereferenceable(24) bitcast (<{ i8*, [16 x i8] }>* @alloc1412 to %"core::panic::location::Location"*)) #25, !noalias !110
  unreachable

bb58.preheader.i:                                 ; preds = %bb68.i, %bb52.i
  %next.0133.i = phi i32 [ %117, %bb52.i ], [ %next.1.lcssa.i, %bb68.i ]
  %root2.0132.i = phi i32 [ %116, %bb52.i ], [ %root2.1.lcssa.i, %bb68.i ]
  %dpth.0131.i = phi i16 [ 0, %bb52.i ], [ %124, %bb68.i ]
  %avbl.0130.i = phi i32 [ 1, %bb52.i ], [ %123, %bb68.i ]
  %_141120.i = icmp sgt i32 %root2.0132.i, -1
  br i1 %_141120.i, label %bb60.preheader.i, label %bb64.i

bb60.preheader.i:                                 ; preds = %bb58.preheader.i
  %119 = add nuw i32 %root2.0132.i, 1
  br label %bb60.i

bb60.i:                                           ; preds = %bb63.i, %bb60.preheader.i
  %root2.1122.i = phi i32 [ %122, %bb63.i ], [ %root2.0132.i, %bb60.preheader.i ]
  %used.1121.i = phi i32 [ %121, %bb63.i ], [ 0, %bb60.preheader.i ]
  %_14588.i = zext i32 %root2.1122.i to i64
  %_148.i = icmp ugt i64 %num_used_symbols.0.lcssa463, %_14588.i
  br i1 %_148.i, label %bb62.i, label %panic26.i, !prof !94

bb62.i:                                           ; preds = %bb60.i
  %120 = getelementptr inbounds [288 x { i16, i16 }], [288 x { i16, i16 }]* %new_symbols.sroa.0.098.lcssa107.i.in, i64 0, i64 %_14588.i, i32 0
  %_144.i = load i16, i16* %120, align 2, !alias.scope !110
  %_143.i = icmp eq i16 %_144.i, %dpth.0131.i
  br i1 %_143.i, label %bb63.i, label %bb64.i

panic26.i:                                        ; preds = %bb60.i
  %_14588.i.le = zext i32 %root2.1122.i to i64
; call core::panicking::panic_bounds_check
  call void @_ZN4core9panicking18panic_bounds_check17h12b597476ba48ffaE(i64 %_14588.i.le, i64 %num_used_symbols.0.lcssa463, %"core::panic::location::Location"* noalias readonly align 8 dereferenceable(24) bitcast (<{ i8*, [16 x i8] }>* @alloc1416 to %"core::panic::location::Location"*)) #25, !noalias !110
  unreachable

bb64.i:                                           ; preds = %bb63.i, %bb62.i, %bb58.preheader.i
  %used.1.lcssa.i = phi i32 [ 0, %bb58.preheader.i ], [ %used.1121.i, %bb62.i ], [ %119, %bb63.i ]
  %root2.1.lcssa.i = phi i32 [ %root2.0132.i, %bb58.preheader.i ], [ %root2.1122.i, %bb62.i ], [ -1, %bb63.i ]
  %_150126.i = icmp sgt i32 %avbl.0130.i, %used.1.lcssa.i
  br i1 %_150126.i, label %bb66.i, label %bb68.i

bb63.i:                                           ; preds = %bb62.i
  %121 = add nuw i32 %used.1121.i, 1
  %122 = add nsw i32 %root2.1122.i, -1
  %exitcond161.not.i = icmp eq i32 %used.1121.i, %root2.0132.i
  br i1 %exitcond161.not.i, label %bb64.i, label %bb60.i

bb68.i:                                           ; preds = %bb67.i, %bb64.i
  %next.1.lcssa.i = phi i32 [ %next.0133.i, %bb64.i ], [ %126, %bb67.i ]
  %123 = shl i32 %used.1.lcssa.i, 1
  %124 = add i16 %dpth.0131.i, 1
  %_138.i = icmp sgt i32 %123, 0
  br i1 %_138.i, label %bb58.preheader.i, label %_ZN11miniz_oxide7deflate4core12HuffmanOxide28calculate_minimum_redundancy17h81d5c12bba9e3ccdE.exit

bb66.i:                                           ; preds = %bb64.i, %bb67.i
  %next.1128.i = phi i32 [ %126, %bb67.i ], [ %next.0133.i, %bb64.i ]
  %avbl.1127.i = phi i32 [ %127, %bb67.i ], [ %avbl.0130.i, %bb64.i ]
  %_154.i = sext i32 %next.1128.i to i64
  %_157.i = icmp ugt i64 %num_used_symbols.0.lcssa463, %_154.i
  br i1 %_157.i, label %bb67.i, label %panic27.i, !prof !94

bb67.i:                                           ; preds = %bb66.i
  %125 = getelementptr inbounds [288 x { i16, i16 }], [288 x { i16, i16 }]* %new_symbols.sroa.0.098.lcssa107.i.in, i64 0, i64 %_154.i, i32 0
  store i16 %dpth.0131.i, i16* %125, align 2, !alias.scope !110
  %126 = add i32 %next.1128.i, -1
  %127 = add nsw i32 %avbl.1127.i, -1
  %_150.i = icmp sgt i32 %127, %used.1.lcssa.i
  br i1 %_150.i, label %bb66.i, label %bb68.i

panic27.i:                                        ; preds = %bb66.i
; call core::panicking::panic_bounds_check
  call void @_ZN4core9panicking18panic_bounds_check17h12b597476ba48ffaE(i64 %_154.i, i64 %num_used_symbols.0.lcssa463, %"core::panic::location::Location"* noalias readonly align 8 dereferenceable(24) bitcast (<{ i8*, [16 x i8] }>* @alloc1418 to %"core::panic::location::Location"*)) #25, !noalias !110
  unreachable

bb3.i:                                            ; preds = %_ZN11miniz_oxide7deflate4core12HuffmanOxide18radix_sort_symbols17h0b130148a94de2b9E.exit
  %128 = getelementptr inbounds [288 x { i16, i16 }], [288 x { i16, i16 }]* %new_symbols.sroa.0.098.lcssa107.i.in, i64 0, i64 0, i32 0
  store i16 1, i16* %128, align 2, !alias.scope !110
  br label %_ZN11miniz_oxide7deflate4core12HuffmanOxide28calculate_minimum_redundancy17h81d5c12bba9e3ccdE.exit

_ZN11miniz_oxide7deflate4core12HuffmanOxide28calculate_minimum_redundancy17h81d5c12bba9e3ccdE.exit: ; preds = %bb68.i, %_ZN11miniz_oxide7deflate4core12HuffmanOxide18radix_sort_symbols17h0b130148a94de2b9E.exit, %bb3.i
  %num_used_symbols.0.lcssa464 = phi i64 [ %num_used_symbols.0.lcssa461, %_ZN11miniz_oxide7deflate4core12HuffmanOxide18radix_sort_symbols17h0b130148a94de2b9E.exit ], [ 1, %bb3.i ], [ %num_used_symbols.0.lcssa463, %bb68.i ]
  %129 = getelementptr inbounds [288 x { i16, i16 }], [288 x { i16, i16 }]* %new_symbols.sroa.0.098.lcssa107.i.in, i64 0, i64 %num_used_symbols.0.lcssa464, i32 0
  br i1 %_12.i88.i, label %bb36, label %"_ZN91_$LT$core..slice..iter..Iter$LT$T$GT$$u20$as$u20$core..iter..traits..iterator..Iterator$GT$4next17h649500afb50e1ee0E.exit.preheader"

"_ZN91_$LT$core..slice..iter..Iter$LT$T$GT$$u20$as$u20$core..iter..traits..iterator..Iterator$GT$4next17h649500afb50e1ee0E.exit.preheader": ; preds = %_ZN11miniz_oxide7deflate4core12HuffmanOxide28calculate_minimum_redundancy17h81d5c12bba9e3ccdE.exit
  %130 = getelementptr [288 x { i16, i16 }], [288 x { i16, i16 }]* %new_symbols.sroa.0.098.lcssa107.i.in, i64 0, i64 0, i32 0
  br label %"_ZN91_$LT$core..slice..iter..Iter$LT$T$GT$$u20$as$u20$core..iter..traits..iterator..Iterator$GT$4next17h649500afb50e1ee0E.exit"

bb18:                                             ; preds = %bb11, %bb25
  %num_used_symbols.0369 = phi i64 [ %num_used_symbols.1, %bb25 ], [ 0, %bb11 ]
  %iter1.sroa.0.0368 = phi i64 [ %131, %bb25 ], [ 0, %bb11 ]
  %131 = add nuw nsw i64 %iter1.sroa.0.0368, 1
  %exitcond.not = icmp eq i64 %iter1.sroa.0.0368, 288
  br i1 %exitcond.not, label %panic13, label %bb19, !prof !113

bb19:                                             ; preds = %bb18
  %132 = getelementptr inbounds %"deflate::core::HuffmanOxide", %"deflate::core::HuffmanOxide"* %self, i64 0, i32 0, i64 %table_num, i64 %iter1.sroa.0.0368
  %_42 = load i16, i16* %132, align 2
  %133 = icmp eq i16 %_42, 0
  br i1 %133, label %bb25, label %bb22

panic13:                                          ; preds = %bb18
; call core::panicking::panic_bounds_check
  call void @_ZN4core9panicking18panic_bounds_check17h12b597476ba48ffaE(i64 288, i64 288, %"core::panic::location::Location"* noalias readonly align 8 dereferenceable(24) bitcast (<{ i8*, [16 x i8] }>* @alloc1440 to %"core::panic::location::Location"*)) #25
  unreachable

bb22:                                             ; preds = %bb19
  %_61 = icmp ult i64 %num_used_symbols.0369, 288
  br i1 %_61, label %bb23, label %panic16, !prof !94

bb23:                                             ; preds = %bb22
  %_57 = trunc i64 %iter1.sroa.0.0368 to i16
  %134 = getelementptr inbounds [288 x { i16, i16 }], [288 x { i16, i16 }]* %symbols0, i64 0, i64 %num_used_symbols.0369, i32 0
  store i16 %_42, i16* %134, align 2
  %135 = getelementptr inbounds [288 x { i16, i16 }], [288 x { i16, i16 }]* %symbols0, i64 0, i64 %num_used_symbols.0369, i32 1
  store i16 %_57, i16* %135, align 2
  %136 = add nuw nsw i64 %num_used_symbols.0369, 1
  br label %bb25

panic16:                                          ; preds = %bb22
; call core::panicking::panic_bounds_check
  call void @_ZN4core9panicking18panic_bounds_check17h12b597476ba48ffaE(i64 %num_used_symbols.0369, i64 288, %"core::panic::location::Location"* noalias readonly align 8 dereferenceable(24) bitcast (<{ i8*, [16 x i8] }>* @alloc1444 to %"core::panic::location::Location"*)) #25
  unreachable

bb25:                                             ; preds = %bb19, %bb23
  %num_used_symbols.1 = phi i64 [ %num_used_symbols.0369, %bb19 ], [ %136, %bb23 ]
  %exitcond455.not = icmp eq i64 %131, %table_len
  br i1 %exitcond455.not, label %bb17, label %bb18

"_ZN91_$LT$core..slice..iter..Iter$LT$T$GT$$u20$as$u20$core..iter..traits..iterator..Iterator$GT$4next17h649500afb50e1ee0E.exit": ; preds = %"_ZN91_$LT$core..slice..iter..Iter$LT$T$GT$$u20$as$u20$core..iter..traits..iterator..Iterator$GT$4next17h649500afb50e1ee0E.exit.preheader", %bb37
  %iter2.sroa.0.0373 = phi i16* [ %137, %bb37 ], [ %130, %"_ZN91_$LT$core..slice..iter..Iter$LT$T$GT$$u20$as$u20$core..iter..traits..iterator..Iterator$GT$4next17h649500afb50e1ee0E.exit.preheader" ]
  %137 = getelementptr inbounds i16, i16* %iter2.sroa.0.0373, i64 2
  %_87 = load i16, i16* %iter2.sroa.0.0373, align 2
  %_89 = icmp ult i16 %_87, 33
  %_86 = zext i16 %_87 to i64
  br i1 %_89, label %bb37, label %panic17, !prof !94

bb36:                                             ; preds = %bb37, %_ZN11miniz_oxide7deflate4core12HuffmanOxide28calculate_minimum_redundancy17h81d5c12bba9e3ccdE.exit
  %_4.i = icmp ult i64 %num_used_symbols.0.lcssa464, 2
  br i1 %_4.i, label %_ZN11miniz_oxide7deflate4core6memset17ha8b5e0768b0a325eE.exit, label %bb2.i

bb2.i:                                            ; preds = %bb36
  %_12.i119 = add i64 %code_size_limit, 1
  %138 = getelementptr inbounds [33 x i32], [33 x i32]* %num_codes, i64 0, i64 33
  %_12.i4.i.i.i.i = icmp eq i64 %_12.i119, 33
  br i1 %_12.i4.i.i.i.i, label %bb3.i.i.i8.preheader.i.thread, label %bb3.i.i.i.preheader.i

bb3.i.i.i8.preheader.i.thread:                    ; preds = %bb2.i
  %139 = getelementptr inbounds [33 x i32], [33 x i32]* %num_codes, i64 0, i64 %code_size_limit
  %140 = load i32, i32* %139, align 4, !alias.scope !114
  br label %bb3.i.i.i8.bb3.i.i.i8_crit_edge.i.preheader

bb3.i.i.i.preheader.i:                            ; preds = %bb2.i
  %141 = getelementptr inbounds [33 x i32], [33 x i32]* %num_codes, i64 0, i64 %_12.i119
  %.neg = mul i64 %code_size_limit, -4
  %142 = add i64 %.neg, 124
  %143 = lshr exact i64 %142, 2
  %144 = add nuw nsw i64 %143, 1
  %min.iters.check = icmp ult i64 %142, 28
  br i1 %min.iters.check, label %bb3.i.i.i.i120.preheader, label %vector.ph

vector.ph:                                        ; preds = %bb3.i.i.i.preheader.i
  %n.vec = and i64 %144, 9223372036854775800
  %ind.end = getelementptr i32, i32* %141, i64 %n.vec
  %145 = add nsw i64 %n.vec, -8
  %146 = lshr exact i64 %145, 3
  %147 = add nuw nsw i64 %146, 1
  %xtraiter656 = and i64 %147, 3
  %148 = icmp ult i64 %145, 24
  br i1 %148, label %middle.block.unr-lcssa, label %vector.ph.new

vector.ph.new:                                    ; preds = %vector.ph
  %unroll_iter = and i64 %147, 4611686018427387900
  br label %vector.body

vector.body:                                      ; preds = %vector.body, %vector.ph.new
  %index = phi i64 [ 0, %vector.ph.new ], [ %index.next.3, %vector.body ]
  %vec.phi = phi <4 x i32> [ zeroinitializer, %vector.ph.new ], [ %167, %vector.body ]
  %vec.phi574 = phi <4 x i32> [ zeroinitializer, %vector.ph.new ], [ %168, %vector.body ]
  %niter = phi i64 [ %unroll_iter, %vector.ph.new ], [ %niter.nsub.3, %vector.body ]
  %next.gep = getelementptr i32, i32* %141, i64 %index
  %149 = bitcast i32* %next.gep to <4 x i32>*
  %wide.load = load <4 x i32>, <4 x i32>* %149, align 4, !alias.scope !114
  %150 = getelementptr i32, i32* %next.gep, i64 4
  %151 = bitcast i32* %150 to <4 x i32>*
  %wide.load576 = load <4 x i32>, <4 x i32>* %151, align 4, !alias.scope !114
  %152 = add <4 x i32> %wide.load, %vec.phi
  %153 = add <4 x i32> %wide.load576, %vec.phi574
  %index.next = or i64 %index, 8
  %next.gep.1 = getelementptr i32, i32* %141, i64 %index.next
  %154 = bitcast i32* %next.gep.1 to <4 x i32>*
  %wide.load.1 = load <4 x i32>, <4 x i32>* %154, align 4, !alias.scope !114
  %155 = getelementptr i32, i32* %next.gep.1, i64 4
  %156 = bitcast i32* %155 to <4 x i32>*
  %wide.load576.1 = load <4 x i32>, <4 x i32>* %156, align 4, !alias.scope !114
  %157 = add <4 x i32> %wide.load.1, %152
  %158 = add <4 x i32> %wide.load576.1, %153
  %index.next.1 = or i64 %index, 16
  %next.gep.2 = getelementptr i32, i32* %141, i64 %index.next.1
  %159 = bitcast i32* %next.gep.2 to <4 x i32>*
  %wide.load.2 = load <4 x i32>, <4 x i32>* %159, align 4, !alias.scope !114
  %160 = getelementptr i32, i32* %next.gep.2, i64 4
  %161 = bitcast i32* %160 to <4 x i32>*
  %wide.load576.2 = load <4 x i32>, <4 x i32>* %161, align 4, !alias.scope !114
  %162 = add <4 x i32> %wide.load.2, %157
  %163 = add <4 x i32> %wide.load576.2, %158
  %index.next.2 = or i64 %index, 24
  %next.gep.3 = getelementptr i32, i32* %141, i64 %index.next.2
  %164 = bitcast i32* %next.gep.3 to <4 x i32>*
  %wide.load.3 = load <4 x i32>, <4 x i32>* %164, align 4, !alias.scope !114
  %165 = getelementptr i32, i32* %next.gep.3, i64 4
  %166 = bitcast i32* %165 to <4 x i32>*
  %wide.load576.3 = load <4 x i32>, <4 x i32>* %166, align 4, !alias.scope !114
  %167 = add <4 x i32> %wide.load.3, %162
  %168 = add <4 x i32> %wide.load576.3, %163
  %index.next.3 = add nuw i64 %index, 32
  %niter.nsub.3 = add i64 %niter, -4
  %niter.ncmp.3 = icmp eq i64 %niter.nsub.3, 0
  br i1 %niter.ncmp.3, label %middle.block.unr-lcssa, label %vector.body, !llvm.loop !117

middle.block.unr-lcssa:                           ; preds = %vector.body, %vector.ph
  %.lcssa625.ph = phi <4 x i32> [ undef, %vector.ph ], [ %167, %vector.body ]
  %.lcssa624.ph = phi <4 x i32> [ undef, %vector.ph ], [ %168, %vector.body ]
  %index.unr = phi i64 [ 0, %vector.ph ], [ %index.next.3, %vector.body ]
  %vec.phi.unr = phi <4 x i32> [ zeroinitializer, %vector.ph ], [ %167, %vector.body ]
  %vec.phi574.unr = phi <4 x i32> [ zeroinitializer, %vector.ph ], [ %168, %vector.body ]
  %lcmp.mod657.not = icmp eq i64 %xtraiter656, 0
  br i1 %lcmp.mod657.not, label %middle.block, label %vector.body.epil

vector.body.epil:                                 ; preds = %middle.block.unr-lcssa, %vector.body.epil
  %index.epil = phi i64 [ %index.next.epil, %vector.body.epil ], [ %index.unr, %middle.block.unr-lcssa ]
  %vec.phi.epil = phi <4 x i32> [ %172, %vector.body.epil ], [ %vec.phi.unr, %middle.block.unr-lcssa ]
  %vec.phi574.epil = phi <4 x i32> [ %173, %vector.body.epil ], [ %vec.phi574.unr, %middle.block.unr-lcssa ]
  %epil.iter = phi i64 [ %epil.iter.sub, %vector.body.epil ], [ %xtraiter656, %middle.block.unr-lcssa ]
  %next.gep.epil = getelementptr i32, i32* %141, i64 %index.epil
  %169 = bitcast i32* %next.gep.epil to <4 x i32>*
  %wide.load.epil = load <4 x i32>, <4 x i32>* %169, align 4, !alias.scope !114
  %170 = getelementptr i32, i32* %next.gep.epil, i64 4
  %171 = bitcast i32* %170 to <4 x i32>*
  %wide.load576.epil = load <4 x i32>, <4 x i32>* %171, align 4, !alias.scope !114
  %172 = add <4 x i32> %wide.load.epil, %vec.phi.epil
  %173 = add <4 x i32> %wide.load576.epil, %vec.phi574.epil
  %index.next.epil = add nuw i64 %index.epil, 8
  %epil.iter.sub = add i64 %epil.iter, -1
  %epil.iter.cmp.not = icmp eq i64 %epil.iter.sub, 0
  br i1 %epil.iter.cmp.not, label %middle.block, label %vector.body.epil, !llvm.loop !119

middle.block:                                     ; preds = %vector.body.epil, %middle.block.unr-lcssa
  %.lcssa625 = phi <4 x i32> [ %.lcssa625.ph, %middle.block.unr-lcssa ], [ %172, %vector.body.epil ]
  %.lcssa624 = phi <4 x i32> [ %.lcssa624.ph, %middle.block.unr-lcssa ], [ %173, %vector.body.epil ]
  %bin.rdx = add <4 x i32> %.lcssa624, %.lcssa625
  %174 = call i32 @llvm.vector.reduce.add.v4i32(<4 x i32> %bin.rdx)
  %cmp.n = icmp eq i64 %144, %n.vec
  br i1 %cmp.n, label %_ZN4core4iter6traits8iterator8Iterator3sum17h219351d2784225bcE.exit.i, label %bb3.i.i.i.i120.preheader

bb3.i.i.i.i120.preheader:                         ; preds = %bb3.i.i.i.preheader.i, %middle.block
  %accum.06.i.i.i.i.ph = phi i32 [ 0, %bb3.i.i.i.preheader.i ], [ %174, %middle.block ]
  %self.sroa.0.05.i.i.i.i.ph = phi i32* [ %141, %bb3.i.i.i.preheader.i ], [ %ind.end, %middle.block ]
  br label %bb3.i.i.i.i120

bb3.i.i.i.i120:                                   ; preds = %bb3.i.i.i.i120.preheader, %bb3.i.i.i.i120
  %accum.06.i.i.i.i = phi i32 [ %_5.0.i.i.i.i.i.i.i, %bb3.i.i.i.i120 ], [ %accum.06.i.i.i.i.ph, %bb3.i.i.i.i120.preheader ]
  %self.sroa.0.05.i.i.i.i = phi i32* [ %175, %bb3.i.i.i.i120 ], [ %self.sroa.0.05.i.i.i.i.ph, %bb3.i.i.i.i120.preheader ]
  %175 = getelementptr inbounds i32, i32* %self.sroa.0.05.i.i.i.i, i64 1
  %.val.i.i.i.i = load i32, i32* %self.sroa.0.05.i.i.i.i, align 4, !alias.scope !114
  %_5.0.i.i.i.i.i.i.i = add i32 %.val.i.i.i.i, %accum.06.i.i.i.i
  %_12.i.i.i.i.i = icmp eq i32* %175, %138
  br i1 %_12.i.i.i.i.i, label %_ZN4core4iter6traits8iterator8Iterator3sum17h219351d2784225bcE.exit.i, label %bb3.i.i.i.i120, !llvm.loop !121

_ZN4core4iter6traits8iterator8Iterator3sum17h219351d2784225bcE.exit.i: ; preds = %bb3.i.i.i.i120, %middle.block
  %_5.0.i.i.i.i.i.i.i.lcssa = phi i32 [ %174, %middle.block ], [ %_5.0.i.i.i.i.i.i.i, %bb3.i.i.i.i120 ]
  %176 = getelementptr inbounds [33 x i32], [33 x i32]* %num_codes, i64 0, i64 %code_size_limit
  %177 = load i32, i32* %176, align 4, !alias.scope !114
  %178 = add i32 %177, %_5.0.i.i.i.i.i.i.i.lcssa
  store i32 %178, i32* %176, align 4, !alias.scope !114
  %_3.i.i.i = icmp eq i64 %code_size_limit, -1
  br i1 %_3.i.i.i, label %bb2.i.i.i, label %bb2.i.i.i.i

bb2.i.i.i.i:                                      ; preds = %_ZN4core4iter6traits8iterator8Iterator3sum17h219351d2784225bcE.exit.i
  %_8.i.i.i.i121 = icmp ugt i64 %code_size_limit, 32
  br i1 %_8.i.i.i.i121, label %bb3.i.i.i3.i, label %"_ZN4core5slice5index74_$LT$impl$u20$core..ops..index..Index$LT$I$GT$$u20$for$u20$$u5b$T$u5d$$GT$5index17h3756fa0c8da08357E.exit.i"

bb3.i.i.i3.i:                                     ; preds = %bb2.i.i.i.i
; call core::slice::index::slice_end_index_len_fail
  call void @_ZN4core5slice5index24slice_end_index_len_fail17h7d511eec41d6bce9E(i64 %_12.i119, i64 33, %"core::panic::location::Location"* noalias readonly align 8 dereferenceable(24) bitcast (<{ i8*, [16 x i8] }>* @alloc1426 to %"core::panic::location::Location"*)) #25, !noalias !123
  unreachable

bb2.i.i.i:                                        ; preds = %_ZN4core4iter6traits8iterator8Iterator3sum17h219351d2784225bcE.exit.i
; call core::slice::index::slice_end_index_overflow_fail
  call void @_ZN4core5slice5index29slice_end_index_overflow_fail17h01057591af3f0c1aE(%"core::panic::location::Location"* noalias readonly align 8 dereferenceable(24) bitcast (<{ i8*, [16 x i8] }>* @alloc1426 to %"core::panic::location::Location"*)) #25, !noalias !132
  unreachable

"_ZN4core5slice5index74_$LT$impl$u20$core..ops..index..Index$LT$I$GT$$u20$for$u20$$u5b$T$u5d$$GT$5index17h3756fa0c8da08357E.exit.i": ; preds = %bb2.i.i.i.i
  %_12.i4.i.i.i5.i = icmp eq i64 %code_size_limit, 0
  br i1 %_12.i4.i.i.i5.i, label %_ZN11miniz_oxide7deflate4core6memset17ha8b5e0768b0a325eE.exit, label %bb3.i.i.i8.preheader.i

bb3.i.i.i8.preheader.i:                           ; preds = %"_ZN4core5slice5index74_$LT$impl$u20$core..ops..index..Index$LT$I$GT$$u20$for$u20$$u5b$T$u5d$$GT$5index17h3756fa0c8da08357E.exit.i"
  %self.sroa.2.05.i.i.i.add.i374 = add nsw i64 %code_size_limit, -1
  %_12.i.i.i.i7.i375 = icmp eq i64 %self.sroa.2.05.i.i.i.add.i374, 0
  br i1 %_12.i.i.i.i7.i375, label %"_ZN110_$LT$core..iter..adapters..enumerate..Enumerate$LT$I$GT$$u20$as$u20$core..iter..traits..iterator..Iterator$GT$4fold17h8daa80891e356d94E.exit.i", label %bb3.i.i.i8.bb3.i.i.i8_crit_edge.i.preheader

bb3.i.i.i8.bb3.i.i.i8_crit_edge.i.preheader:      ; preds = %bb3.i.i.i8.preheader.i.thread, %bb3.i.i.i8.preheader.i
  %self.sroa.2.05.i.i.i.add.i374467 = phi i64 [ 31, %bb3.i.i.i8.preheader.i.thread ], [ %self.sroa.2.05.i.i.i.add.i374, %bb3.i.i.i8.preheader.i ]
  %179 = phi i32* [ %139, %bb3.i.i.i8.preheader.i.thread ], [ %176, %bb3.i.i.i8.preheader.i ]
  %180 = phi i32 [ %140, %bb3.i.i.i8.preheader.i.thread ], [ %178, %bb3.i.i.i8.preheader.i ]
  %min.iters.check580 = icmp ult i64 %self.sroa.2.05.i.i.i.add.i374467, 8
  br i1 %min.iters.check580, label %bb3.i.i.i8.bb3.i.i.i8_crit_edge.i.preheader619, label %vector.ph581

vector.ph581:                                     ; preds = %bb3.i.i.i8.bb3.i.i.i8_crit_edge.i.preheader
  %n.vec583 = and i64 %self.sroa.2.05.i.i.i.add.i374467, -8
  %ind.end587 = and i64 %self.sroa.2.05.i.i.i.add.i374467, 7
  %181 = insertelement <4 x i32> <i32 poison, i32 0, i32 0, i32 0>, i32 %180, i32 0
  br label %vector.body579

vector.body579:                                   ; preds = %vector.body579, %vector.ph581
  %index584 = phi i64 [ 0, %vector.ph581 ], [ %index.next585, %vector.body579 ]
  %vec.phi590 = phi <4 x i32> [ %181, %vector.ph581 ], [ %195, %vector.body579 ]
  %vec.phi591 = phi <4 x i32> [ zeroinitializer, %vector.ph581 ], [ %196, %vector.body579 ]
  %vec.ind = phi <4 x i64> [ <i64 0, i64 1, i64 2, i64 3>, %vector.ph581 ], [ %vec.ind.next, %vector.body579 ]
  %offset.idx = sub i64 %self.sroa.2.05.i.i.i.add.i374467, %index584
  %182 = getelementptr inbounds [33 x i32], [33 x i32]* %num_codes, i64 0, i64 %offset.idx
  %183 = getelementptr inbounds i32, i32* %182, i64 -3
  %184 = bitcast i32* %183 to <4 x i32>*
  %wide.load593 = load <4 x i32>, <4 x i32>* %184, align 4, !alias.scope !114
  %reverse = shufflevector <4 x i32> %wide.load593, <4 x i32> poison, <4 x i32> <i32 3, i32 2, i32 1, i32 0>
  %185 = getelementptr inbounds i32, i32* %182, i64 -7
  %186 = bitcast i32* %185 to <4 x i32>*
  %wide.load594 = load <4 x i32>, <4 x i32>* %186, align 4, !alias.scope !114
  %reverse595 = shufflevector <4 x i32> %wide.load594, <4 x i32> poison, <4 x i32> <i32 3, i32 2, i32 1, i32 0>
  %187 = trunc <4 x i64> %vec.ind to <4 x i32>
  %188 = add <4 x i32> %187, <i32 1, i32 1, i32 1, i32 1>
  %189 = trunc <4 x i64> %vec.ind to <4 x i32>
  %190 = add <4 x i32> %189, <i32 5, i32 5, i32 5, i32 5>
  %191 = and <4 x i32> %188, <i32 31, i32 31, i32 31, i32 31>
  %192 = and <4 x i32> %190, <i32 31, i32 31, i32 31, i32 31>
  %193 = shl <4 x i32> %reverse, %191
  %194 = shl <4 x i32> %reverse595, %192
  %195 = add <4 x i32> %193, %vec.phi590
  %196 = add <4 x i32> %194, %vec.phi591
  %index.next585 = add nuw i64 %index584, 8
  %vec.ind.next = add <4 x i64> %vec.ind, <i64 8, i64 8, i64 8, i64 8>
  %197 = icmp eq i64 %index.next585, %n.vec583
  br i1 %197, label %middle.block577, label %vector.body579, !llvm.loop !133

middle.block577:                                  ; preds = %vector.body579
  %bin.rdx596 = add <4 x i32> %196, %195
  %198 = call i32 @llvm.vector.reduce.add.v4i32(<4 x i32> %bin.rdx596)
  %cmp.n589 = icmp eq i64 %self.sroa.2.05.i.i.i.add.i374467, %n.vec583
  br i1 %cmp.n589, label %"_ZN110_$LT$core..iter..adapters..enumerate..Enumerate$LT$I$GT$$u20$as$u20$core..iter..traits..iterator..Iterator$GT$4fold17h8daa80891e356d94E.exit.i", label %bb3.i.i.i8.bb3.i.i.i8_crit_edge.i.preheader619

bb3.i.i.i8.bb3.i.i.i8_crit_edge.i.preheader619:   ; preds = %bb3.i.i.i8.bb3.i.i.i8_crit_edge.i.preheader, %middle.block577
  %.ph = phi i32 [ %180, %bb3.i.i.i8.bb3.i.i.i8_crit_edge.i.preheader ], [ %198, %middle.block577 ]
  %self.sroa.2.05.i.i.i.add.i377.ph = phi i64 [ %self.sroa.2.05.i.i.i.add.i374467, %bb3.i.i.i8.bb3.i.i.i8_crit_edge.i.preheader ], [ %ind.end587, %middle.block577 ]
  %f.06.i.i.i.i376.ph = phi i64 [ 0, %bb3.i.i.i8.bb3.i.i.i8_crit_edge.i.preheader ], [ %n.vec583, %middle.block577 ]
  br label %bb3.i.i.i8.bb3.i.i.i8_crit_edge.i

bb3.i.i.i8.bb3.i.i.i8_crit_edge.i:                ; preds = %bb3.i.i.i8.bb3.i.i.i8_crit_edge.i.preheader619, %bb3.i.i.i8.bb3.i.i.i8_crit_edge.i
  %199 = phi i32 [ %202, %bb3.i.i.i8.bb3.i.i.i8_crit_edge.i ], [ %.ph, %bb3.i.i.i8.bb3.i.i.i8_crit_edge.i.preheader619 ]
  %self.sroa.2.05.i.i.i.add.i377 = phi i64 [ %self.sroa.2.05.i.i.i.add.i, %bb3.i.i.i8.bb3.i.i.i8_crit_edge.i ], [ %self.sroa.2.05.i.i.i.add.i377.ph, %bb3.i.i.i8.bb3.i.i.i8_crit_edge.i.preheader619 ]
  %f.06.i.i.i.i376 = phi i64 [ %_10.0.i.i.i.i.i, %bb3.i.i.i8.bb3.i.i.i8_crit_edge.i ], [ %f.06.i.i.i.i376.ph, %bb3.i.i.i8.bb3.i.i.i8_crit_edge.i.preheader619 ]
  %_10.0.i.i.i.i.i = add nuw nsw i64 %f.06.i.i.i.i376, 1
  %.ptr.phi.trans.insert.i = getelementptr inbounds [33 x i32], [33 x i32]* %num_codes, i64 0, i64 %self.sroa.2.05.i.i.i.add.i377
  %.val.i.i.i6.pre.i = load i32, i32* %.ptr.phi.trans.insert.i, align 4, !alias.scope !114
  %self.sroa.2.05.i.i.i.add.i = add nsw i64 %self.sroa.2.05.i.i.i.add.i377, -1
  %200 = trunc i64 %_10.0.i.i.i.i.i to i32
  %201 = and i32 %200, 31
  %_7.i.i.i.i.i.i = shl i32 %.val.i.i.i6.pre.i, %201
  %202 = add i32 %_7.i.i.i.i.i.i, %199
  %_12.i.i.i.i7.i = icmp eq i64 %self.sroa.2.05.i.i.i.add.i, 0
  br i1 %_12.i.i.i.i7.i, label %"_ZN110_$LT$core..iter..adapters..enumerate..Enumerate$LT$I$GT$$u20$as$u20$core..iter..traits..iterator..Iterator$GT$4fold17h8daa80891e356d94E.exit.i", label %bb3.i.i.i8.bb3.i.i.i8_crit_edge.i, !llvm.loop !134

"_ZN110_$LT$core..iter..adapters..enumerate..Enumerate$LT$I$GT$$u20$as$u20$core..iter..traits..iterator..Iterator$GT$4fold17h8daa80891e356d94E.exit.i": ; preds = %bb3.i.i.i8.bb3.i.i.i8_crit_edge.i, %middle.block577, %bb3.i.i.i8.preheader.i
  %203 = phi i32* [ %176, %bb3.i.i.i8.preheader.i ], [ %179, %middle.block577 ], [ %179, %bb3.i.i.i8.bb3.i.i.i8_crit_edge.i ]
  %204 = phi i32 [ %178, %bb3.i.i.i8.preheader.i ], [ %180, %middle.block577 ], [ %180, %bb3.i.i.i8.bb3.i.i.i8_crit_edge.i ]
  %.lcssa330 = phi i32 [ %178, %bb3.i.i.i8.preheader.i ], [ %198, %middle.block577 ], [ %202, %bb3.i.i.i8.bb3.i.i.i8_crit_edge.i ]
  %205 = trunc i64 %code_size_limit to i32
  %206 = and i32 %205, 31
  %_29.i122 = shl nuw i32 1, %206
  %207 = icmp ult i32 %_29.i122, %.lcssa330
  br i1 %207, label %bb19.i124, label %_ZN11miniz_oxide7deflate4core6memset17ha8b5e0768b0a325eE.exit

bb19.i124:                                        ; preds = %"_ZN110_$LT$core..iter..adapters..enumerate..Enumerate$LT$I$GT$$u20$as$u20$core..iter..traits..iterator..Iterator$GT$4fold17h8daa80891e356d94E.exit.i", %bb31.bb19_crit_edge.i
  %208 = phi i32 [ %.pre.i, %bb31.bb19_crit_edge.i ], [ %204, %"_ZN110_$LT$core..iter..adapters..enumerate..Enumerate$LT$I$GT$$u20$as$u20$core..iter..traits..iterator..Iterator$GT$4fold17h8daa80891e356d94E.exit.i" ]
  %iter.sroa.0.038.i = phi i32 [ %209, %bb31.bb19_crit_edge.i ], [ %_29.i122, %"_ZN110_$LT$core..iter..adapters..enumerate..Enumerate$LT$I$GT$$u20$as$u20$core..iter..traits..iterator..Iterator$GT$4fold17h8daa80891e356d94E.exit.i" ]
  %209 = add i32 %iter.sroa.0.038.i, 1
  %210 = add i32 %208, -1
  store i32 %210, i32* %203, align 4, !alias.scope !114
  br label %bb22.i125

bb22.i125:                                        ; preds = %bb26.i128, %bb19.i124
  %iter1.sroa.4.0.i = phi i64 [ %code_size_limit, %bb19.i124 ], [ %212, %bb26.i128 ]
  %211 = icmp ugt i64 %iter1.sroa.4.0.i, 1
  br i1 %211, label %bb24.i127, label %bb31.i

bb31.i:                                           ; preds = %bb22.i125, %bb29.i129
  %exitcond.not.i126 = icmp eq i32 %209, %.lcssa330
  br i1 %exitcond.not.i126, label %_ZN11miniz_oxide7deflate4core6memset17ha8b5e0768b0a325eE.exit, label %bb31.bb19_crit_edge.i

bb31.bb19_crit_edge.i:                            ; preds = %bb31.i
  %.pre.i = load i32, i32* %203, align 4, !alias.scope !114
  br label %bb19.i124

bb24.i127:                                        ; preds = %bb22.i125
  %212 = add i64 %iter1.sroa.4.0.i, -1
  %_53.i = icmp ult i64 %212, 33
  br i1 %_53.i, label %bb26.i128, label %panic3.i, !prof !94

bb26.i128:                                        ; preds = %bb24.i127
  %213 = getelementptr inbounds [33 x i32], [33 x i32]* %num_codes, i64 0, i64 %212
  %_50.i = load i32, i32* %213, align 4, !alias.scope !114
  %214 = icmp eq i32 %_50.i, 0
  br i1 %214, label %bb22.i125, label %bb28.i

panic3.i:                                         ; preds = %bb24.i127
; call core::panicking::panic_bounds_check
  call void @_ZN4core9panicking18panic_bounds_check17h12b597476ba48ffaE(i64 %212, i64 33, %"core::panic::location::Location"* noalias readonly align 8 dereferenceable(24) bitcast (<{ i8*, [16 x i8] }>* @alloc1430 to %"core::panic::location::Location"*)) #25
  unreachable

bb28.i:                                           ; preds = %bb26.i128
  %215 = getelementptr inbounds [33 x i32], [33 x i32]* %num_codes, i64 0, i64 %212
  %216 = add i32 %_50.i, -1
  store i32 %216, i32* %215, align 4, !alias.scope !114
  %_60.i = icmp ult i64 %iter1.sroa.4.0.i, 33
  br i1 %_60.i, label %bb29.i129, label %panic5.i130, !prof !94

bb29.i129:                                        ; preds = %bb28.i
  %217 = getelementptr inbounds [33 x i32], [33 x i32]* %num_codes, i64 0, i64 %iter1.sroa.4.0.i
  %218 = load i32, i32* %217, align 4, !alias.scope !114
  %219 = add i32 %218, 2
  store i32 %219, i32* %217, align 4, !alias.scope !114
  br label %bb31.i

panic5.i130:                                      ; preds = %bb28.i
; call core::panicking::panic_bounds_check
  call void @_ZN4core9panicking18panic_bounds_check17h12b597476ba48ffaE(i64 33, i64 33, %"core::panic::location::Location"* noalias readonly align 8 dereferenceable(24) bitcast (<{ i8*, [16 x i8] }>* @alloc1434 to %"core::panic::location::Location"*)) #25
  unreachable

_ZN11miniz_oxide7deflate4core6memset17ha8b5e0768b0a325eE.exit: ; preds = %bb31.i, %bb36, %"_ZN4core5slice5index74_$LT$impl$u20$core..ops..index..Index$LT$I$GT$$u20$for$u20$$u5b$T$u5d$$GT$5index17h3756fa0c8da08357E.exit.i", %"_ZN110_$LT$core..iter..adapters..enumerate..Enumerate$LT$I$GT$$u20$as$u20$core..iter..traits..iterator..Iterator$GT$4fold17h8daa80891e356d94E.exit.i"
  %slice.09.i = getelementptr inbounds %"deflate::core::HuffmanOxide", %"deflate::core::HuffmanOxide"* %self, i64 0, i32 2, i64 %table_num, i64 0
  call void @llvm.memset.p0i8.i64(i8* noundef nonnull align 2 dereferenceable(288) %slice.09.i, i8 0, i64 288, i1 false) #24, !alias.scope !135
  %_109 = getelementptr inbounds %"deflate::core::HuffmanOxide", %"deflate::core::HuffmanOxide"* %self, i64 0, i32 1, i64 %table_num
  %slice.07.i = bitcast [288 x i16]* %_109 to i8*
  call void @llvm.memset.p0i8.i64(i8* noundef nonnull align 2 dereferenceable(576) %slice.07.i, i8 0, i64 576, i1 false) #24, !alias.scope !138
  %.not.i.i.i382 = icmp eq i64 %code_size_limit, 0
  br i1 %.not.i.i.i382, label %bb51, label %bb3.i.i

bb37:                                             ; preds = %"_ZN91_$LT$core..slice..iter..Iter$LT$T$GT$$u20$as$u20$core..iter..traits..iterator..Iterator$GT$4next17h649500afb50e1ee0E.exit"
  %220 = getelementptr inbounds [33 x i32], [33 x i32]* %num_codes, i64 0, i64 %_86
  %221 = load i32, i32* %220, align 4
  %222 = add i32 %221, 1
  store i32 %222, i32* %220, align 4
  %_12.i116 = icmp eq i16* %137, %129
  br i1 %_12.i116, label %bb36, label %"_ZN91_$LT$core..slice..iter..Iter$LT$T$GT$$u20$as$u20$core..iter..traits..iterator..Iterator$GT$4next17h649500afb50e1ee0E.exit"

panic17:                                          ; preds = %"_ZN91_$LT$core..slice..iter..Iter$LT$T$GT$$u20$as$u20$core..iter..traits..iterator..Iterator$GT$4next17h649500afb50e1ee0E.exit"
  %_86.le = zext i16 %_87 to i64
; call core::panicking::panic_bounds_check
  call void @_ZN4core9panicking18panic_bounds_check17h12b597476ba48ffaE(i64 %_86.le, i64 33, %"core::panic::location::Location"* noalias readonly align 8 dereferenceable(24) bitcast (<{ i8*, [16 x i8] }>* @alloc1450 to %"core::panic::location::Location"*)) #25
  unreachable

bb47.loopexit:                                    ; preds = %bb61, %"_ZN4core5slice5index74_$LT$impl$u20$core..ops..index..Index$LT$I$GT$$u20$for$u20$$u5b$T$u5d$$GT$5index17hbb809f97bac578faE.exit"
  %.not.i.i.i = icmp ugt i64 %spec.select, %code_size_limit
  %.0.i.i.i = select i1 %not., i1 true, i1 %.not.i.i.i
  br i1 %.0.i.i.i, label %bb51, label %bb3.i.i

bb3.i.i:                                          ; preds = %_ZN11miniz_oxide7deflate4core6memset17ha8b5e0768b0a325eE.exit, %bb47.loopexit
  %last.0384 = phi i64 [ %first, %bb47.loopexit ], [ %num_used_symbols.0.lcssa464, %_ZN11miniz_oxide7deflate4core6memset17ha8b5e0768b0a325eE.exit ]
  %iter3.sroa.0.0383 = phi i64 [ %spec.select, %bb47.loopexit ], [ 1, %_ZN11miniz_oxide7deflate4core6memset17ha8b5e0768b0a325eE.exit ]
  %223 = icmp ult i64 %iter3.sroa.0.0383, %code_size_limit
  %224 = zext i1 %223 to i64
  %spec.select = add nuw i64 %iter3.sroa.0.0383, %224
  %not. = xor i1 %223, true
  %_130 = icmp ult i64 %iter3.sroa.0.0383, 33
  br i1 %_130, label %bb52, label %panic21, !prof !94

bb51:                                             ; preds = %bb47.loopexit, %_ZN11miniz_oxide7deflate4core6memset17ha8b5e0768b0a325eE.exit
  call void @llvm.lifetime.end.p0i8(i64 1152, i8* nonnull %symbols1454)
  call void @llvm.lifetime.end.p0i8(i64 1152, i8* nonnull %symbols0453)
  br label %bb62

bb52:                                             ; preds = %bb3.i.i
  %225 = getelementptr inbounds [33 x i32], [33 x i32]* %num_codes, i64 0, i64 %iter3.sroa.0.0383
  %_127 = load i32, i32* %225, align 4
  %_126 = sext i32 %_127 to i64
  %first = sub i64 %last.0384, %_126
  %_3.i.i134 = icmp ult i64 %last.0384, %_126
  br i1 %_3.i.i134, label %bb1.i.i, label %bb2.i.i135

bb2.i.i135:                                       ; preds = %bb52
  %_8.i.i = icmp ugt i64 %last.0384, %num_used_symbols.0.lcssa464
  br i1 %_8.i.i, label %bb3.i.i136, label %"_ZN4core5slice5index74_$LT$impl$u20$core..ops..index..Index$LT$I$GT$$u20$for$u20$$u5b$T$u5d$$GT$5index17hbb809f97bac578faE.exit"

bb1.i.i:                                          ; preds = %bb52
; call core::slice::index::slice_index_order_fail
  call void @_ZN4core5slice5index22slice_index_order_fail17hc4ad2046b2bce8e8E(i64 %first, i64 %last.0384, %"core::panic::location::Location"* noalias readonly align 8 dereferenceable(24) bitcast (<{ i8*, [16 x i8] }>* @alloc1458 to %"core::panic::location::Location"*)) #25, !noalias !141
  unreachable

bb3.i.i136:                                       ; preds = %bb2.i.i135
; call core::slice::index::slice_end_index_len_fail
  call void @_ZN4core5slice5index24slice_end_index_len_fail17h7d511eec41d6bce9E(i64 %last.0384, i64 %num_used_symbols.0.lcssa464, %"core::panic::location::Location"* noalias readonly align 8 dereferenceable(24) bitcast (<{ i8*, [16 x i8] }>* @alloc1458 to %"core::panic::location::Location"*)) #25, !noalias !141
  unreachable

"_ZN4core5slice5index74_$LT$impl$u20$core..ops..index..Index$LT$I$GT$$u20$for$u20$$u5b$T$u5d$$GT$5index17hbb809f97bac578faE.exit": ; preds = %bb2.i.i135
  %226 = getelementptr inbounds [288 x { i16, i16 }], [288 x { i16, i16 }]* %new_symbols.sroa.0.098.lcssa107.i.in, i64 0, i64 %last.0384, i32 0
  %227 = trunc i64 %iter3.sroa.0.0383 to i8
  %_12.i139380 = icmp eq i32 %_127, 0
  br i1 %_12.i139380, label %bb47.loopexit, label %"_ZN91_$LT$core..slice..iter..Iter$LT$T$GT$$u20$as$u20$core..iter..traits..iterator..Iterator$GT$4next17h649500afb50e1ee0E.exit142.preheader"

"_ZN91_$LT$core..slice..iter..Iter$LT$T$GT$$u20$as$u20$core..iter..traits..iterator..Iterator$GT$4next17h649500afb50e1ee0E.exit142.preheader": ; preds = %"_ZN4core5slice5index74_$LT$impl$u20$core..ops..index..Index$LT$I$GT$$u20$for$u20$$u5b$T$u5d$$GT$5index17hbb809f97bac578faE.exit"
  %228 = getelementptr inbounds [288 x { i16, i16 }], [288 x { i16, i16 }]* %new_symbols.sroa.0.098.lcssa107.i.in, i64 0, i64 %first, i32 0
  br label %"_ZN91_$LT$core..slice..iter..Iter$LT$T$GT$$u20$as$u20$core..iter..traits..iterator..Iterator$GT$4next17h649500afb50e1ee0E.exit142"

panic21:                                          ; preds = %bb3.i.i
; call core::panicking::panic_bounds_check
  call void @_ZN4core9panicking18panic_bounds_check17h12b597476ba48ffaE(i64 %iter3.sroa.0.0383, i64 33, %"core::panic::location::Location"* noalias readonly align 8 dereferenceable(24) bitcast (<{ i8*, [16 x i8] }>* @alloc1456 to %"core::panic::location::Location"*)) #25
  unreachable

"_ZN91_$LT$core..slice..iter..Iter$LT$T$GT$$u20$as$u20$core..iter..traits..iterator..Iterator$GT$4next17h649500afb50e1ee0E.exit142": ; preds = %"_ZN91_$LT$core..slice..iter..Iter$LT$T$GT$$u20$as$u20$core..iter..traits..iterator..Iterator$GT$4next17h649500afb50e1ee0E.exit142.preheader", %bb61
  %iter4.sroa.0.0381 = phi i16* [ %229, %bb61 ], [ %228, %"_ZN91_$LT$core..slice..iter..Iter$LT$T$GT$$u20$as$u20$core..iter..traits..iterator..Iterator$GT$4next17h649500afb50e1ee0E.exit142.preheader" ]
  %229 = getelementptr inbounds i16, i16* %iter4.sroa.0.0381, i64 2
  %230 = getelementptr inbounds i16, i16* %iter4.sroa.0.0381, i64 1
  %_149 = load i16, i16* %230, align 2
  %_151 = icmp ult i16 %_149, 288
  %_148 = zext i16 %_149 to i64
  br i1 %_151, label %bb61, label %panic24, !prof !94

bb61:                                             ; preds = %"_ZN91_$LT$core..slice..iter..Iter$LT$T$GT$$u20$as$u20$core..iter..traits..iterator..Iterator$GT$4next17h649500afb50e1ee0E.exit142"
  %231 = getelementptr inbounds %"deflate::core::HuffmanOxide", %"deflate::core::HuffmanOxide"* %self, i64 0, i32 2, i64 %table_num, i64 %_148
  store i8 %227, i8* %231, align 1
  %_12.i139 = icmp eq i16* %229, %226
  br i1 %_12.i139, label %bb47.loopexit, label %"_ZN91_$LT$core..slice..iter..Iter$LT$T$GT$$u20$as$u20$core..iter..traits..iterator..Iterator$GT$4next17h649500afb50e1ee0E.exit142"

panic24:                                          ; preds = %"_ZN91_$LT$core..slice..iter..Iter$LT$T$GT$$u20$as$u20$core..iter..traits..iterator..Iterator$GT$4next17h649500afb50e1ee0E.exit142"
  %_148.le = zext i16 %_149 to i64
; call core::panicking::panic_bounds_check
  call void @_ZN4core9panicking18panic_bounds_check17h12b597476ba48ffaE(i64 %_148.le, i64 288, %"core::panic::location::Location"* noalias readonly align 8 dereferenceable(24) bitcast (<{ i8*, [16 x i8] }>* @alloc1460 to %"core::panic::location::Location"*)) #25
  unreachable

bb3.i.i152:                                       ; preds = %bb62, %bb71
  %j.0389 = phi i32 [ %239, %bb71 ], [ 0, %bb62 ]
  %iter5.sroa.0.0388 = phi i64 [ %spec.select309, %bb71 ], [ 2, %bb62 ]
  %232 = icmp ult i64 %iter5.sroa.0.0388, %code_size_limit
  %233 = zext i1 %232 to i64
  %spec.select309 = add nuw i64 %iter5.sroa.0.0388, %233
  %not.311 = xor i1 %232, true
  %_167 = add i64 %iter5.sroa.0.0388, -1
  %_170 = icmp ult i64 %_167, 33
  br i1 %_170, label %bb70, label %panic26, !prof !94

bb69:                                             ; preds = %bb71, %bb62
  %234 = getelementptr inbounds %"deflate::core::HuffmanOxide", %"deflate::core::HuffmanOxide"* %self, i64 0, i32 2, i64 %table_num, i64 288
  %235 = icmp eq i64 %table_len, 0
  br i1 %235, label %bb84, label %bb1.i.i.i.preheader

bb1.i.i.i.preheader:                              ; preds = %bb69
  %236 = getelementptr inbounds %"deflate::core::HuffmanOxide", %"deflate::core::HuffmanOxide"* %self, i64 0, i32 1, i64 %table_num, i64 0
  %237 = getelementptr inbounds %"deflate::core::HuffmanOxide", %"deflate::core::HuffmanOxide"* %self, i64 0, i32 2, i64 %table_num, i64 0
  br label %bb1.i.i.i

bb70:                                             ; preds = %bb3.i.i152
  %238 = getelementptr inbounds [33 x i32], [33 x i32]* %num_codes, i64 0, i64 %_167
  %_166 = load i32, i32* %238, align 4
  %_164 = add i32 %_166, %j.0389
  %239 = shl i32 %_164, 1
  %_174 = icmp ult i64 %iter5.sroa.0.0388, 33
  br i1 %_174, label %bb71, label %panic27, !prof !94

panic26:                                          ; preds = %bb3.i.i152
; call core::panicking::panic_bounds_check
  call void @_ZN4core9panicking18panic_bounds_check17h12b597476ba48ffaE(i64 %_167, i64 33, %"core::panic::location::Location"* noalias readonly align 8 dereferenceable(24) bitcast (<{ i8*, [16 x i8] }>* @alloc1462 to %"core::panic::location::Location"*)) #25
  unreachable

bb71:                                             ; preds = %bb70
  %240 = getelementptr inbounds [33 x i32], [33 x i32]* %next_code, i64 0, i64 %iter5.sroa.0.0388
  store i32 %239, i32* %240, align 4
  %.not.i.i.i150 = icmp ugt i64 %spec.select309, %code_size_limit
  %.0.i.i.i151 = select i1 %not.311, i1 true, i1 %.not.i.i.i150
  br i1 %.0.i.i.i151, label %bb69, label %bb3.i.i152

panic27:                                          ; preds = %bb70
; call core::panicking::panic_bounds_check
  call void @_ZN4core9panicking18panic_bounds_check17h12b597476ba48ffaE(i64 %iter5.sroa.0.0388, i64 33, %"core::panic::location::Location"* noalias readonly align 8 dereferenceable(24) bitcast (<{ i8*, [16 x i8] }>* @alloc1464 to %"core::panic::location::Location"*)) #25
  unreachable

bb1.i.i.i:                                        ; preds = %bb1.i.i.i.preheader, %bb80.backedge
  %iter6.sroa.15.0397 = phi i64 [ %241, %bb80.backedge ], [ %table_len, %bb1.i.i.i.preheader ]
  %iter6.sroa.10.0396 = phi i16* [ %243, %bb80.backedge ], [ %236, %bb1.i.i.i.preheader ]
  %iter6.sroa.0.0394 = phi i8* [ %242, %bb80.backedge ], [ %237, %bb1.i.i.i.preheader ]
  %241 = add i64 %iter6.sroa.15.0397, -1
  %_12.i.i.i.i = icmp eq i8* %iter6.sroa.0.0394, %234
  br i1 %_12.i.i.i.i, label %bb84, label %bb82

bb84:                                             ; preds = %bb1.i.i.i, %bb80.backedge, %bb69
  call void @llvm.lifetime.end.p0i8(i64 132, i8* nonnull %1)
  call void @llvm.lifetime.end.p0i8(i64 132, i8* nonnull %0)
  ret void

bb82:                                             ; preds = %bb1.i.i.i
  %242 = getelementptr inbounds i8, i8* %iter6.sroa.0.0394, i64 1
  %243 = getelementptr inbounds i16, i16* %iter6.sroa.10.0396, i64 1
  %code_size30 = load i8, i8* %iter6.sroa.0.0394, align 1
  %244 = icmp eq i8 %code_size30, 0
  br i1 %244, label %bb80.backedge, label %bb85

bb85:                                             ; preds = %bb82
  %_205 = icmp ult i8 %code_size30, 33
  %_202 = zext i8 %code_size30 to i64
  br i1 %_205, label %bb86, label %panic31, !prof !94

bb86:                                             ; preds = %bb85
  %245 = getelementptr inbounds [33 x i32], [33 x i32]* %next_code, i64 0, i64 %_202
  %246 = load i32, i32* %245, align 4
  %247 = add i32 %246, 1
  store i32 %247, i32* %245, align 4
  %248 = add i8 %code_size30, -1
  %xtraiter660 = and i8 %code_size30, 3
  %249 = icmp ult i8 %248, 3
  br i1 %249, label %bb89.bb93_crit_edge.unr-lcssa, label %bb86.new

bb86.new:                                         ; preds = %bb86
  %unroll_iter664 = and i8 %code_size30, -4
  br label %bb91

panic31:                                          ; preds = %bb85
  %_202.le = zext i8 %code_size30 to i64
; call core::panicking::panic_bounds_check
  call void @_ZN4core9panicking18panic_bounds_check17h12b597476ba48ffaE(i64 %_202.le, i64 33, %"core::panic::location::Location"* noalias readonly align 8 dereferenceable(24) bitcast (<{ i8*, [16 x i8] }>* @alloc1470 to %"core::panic::location::Location"*)) #25
  unreachable

bb89.bb93_crit_edge.unr-lcssa:                    ; preds = %bb91, %bb86
  %.lcssa.ph = phi i32 [ undef, %bb86 ], [ %260, %bb91 ]
  %rev_code.0392.unr = phi i32 [ 0, %bb86 ], [ %260, %bb91 ]
  %code.0391.unr = phi i32 [ %246, %bb86 ], [ %261, %bb91 ]
  %lcmp.mod662.not = icmp eq i8 %xtraiter660, 0
  br i1 %lcmp.mod662.not, label %bb89.bb93_crit_edge, label %bb91.epil

bb91.epil:                                        ; preds = %bb89.bb93_crit_edge.unr-lcssa, %bb91.epil
  %rev_code.0392.epil = phi i32 [ %250, %bb91.epil ], [ %rev_code.0392.unr, %bb89.bb93_crit_edge.unr-lcssa ]
  %code.0391.epil = phi i32 [ %251, %bb91.epil ], [ %code.0391.unr, %bb89.bb93_crit_edge.unr-lcssa ]
  %epil.iter661 = phi i8 [ %epil.iter661.sub, %bb91.epil ], [ %xtraiter660, %bb89.bb93_crit_edge.unr-lcssa ]
  %_219.epil = shl i32 %rev_code.0392.epil, 1
  %_221.epil = and i32 %code.0391.epil, 1
  %250 = or i32 %_219.epil, %_221.epil
  %251 = lshr i32 %code.0391.epil, 1
  %epil.iter661.sub = add i8 %epil.iter661, -1
  %epil.iter661.cmp.not = icmp eq i8 %epil.iter661.sub, 0
  br i1 %epil.iter661.cmp.not, label %bb89.bb93_crit_edge, label %bb91.epil, !llvm.loop !146

bb89.bb93_crit_edge:                              ; preds = %bb91.epil, %bb89.bb93_crit_edge.unr-lcssa
  %.lcssa = phi i32 [ %.lcssa.ph, %bb89.bb93_crit_edge.unr-lcssa ], [ %250, %bb91.epil ]
  %252 = trunc i32 %.lcssa to i16
  store i16 %252, i16* %iter6.sroa.10.0396, align 2
  br label %bb80.backedge

bb80.backedge:                                    ; preds = %bb89.bb93_crit_edge, %bb82
  %253 = icmp eq i64 %241, 0
  br i1 %253, label %bb84, label %bb1.i.i.i

bb91:                                             ; preds = %bb91, %bb86.new
  %rev_code.0392 = phi i32 [ 0, %bb86.new ], [ %260, %bb91 ]
  %code.0391 = phi i32 [ %246, %bb86.new ], [ %261, %bb91 ]
  %niter665 = phi i8 [ %unroll_iter664, %bb86.new ], [ %niter665.nsub.3, %bb91 ]
  %254 = shl i32 %rev_code.0392, 3
  %_221 = shl i32 %code.0391, 2
  %255 = and i32 %_221, 4
  %_219.1 = or i32 %254, %255
  %_221.1 = and i32 %code.0391, 2
  %256 = or i32 %_219.1, %_221.1
  %257 = lshr i32 %code.0391, 2
  %_221.2 = and i32 %257, 1
  %258 = or i32 %256, %_221.2
  %259 = lshr i32 %code.0391, 3
  %_219.3 = shl i32 %258, 1
  %_221.3 = and i32 %259, 1
  %260 = or i32 %_219.3, %_221.3
  %261 = lshr i32 %code.0391, 4
  %niter665.nsub.3 = add i8 %niter665, -4
  %niter665.ncmp.3 = icmp eq i8 %niter665.nsub.3, 0
  br i1 %niter665.ncmp.3, label %bb89.bb93_crit_edge.unr-lcssa, label %bb91
}

; miniz_oxide::deflate::core::DictOxide::new
; Function Attrs: nounwind nonlazybind uwtable
define void @_ZN11miniz_oxide7deflate4core9DictOxide3new17haec1f541b35c3153E(%"deflate::core::DictOxide"* noalias nocapture sret(%"deflate::core::DictOxide") dereferenceable(48) %0, i32 %flags) unnamed_addr #9 personality i32 (...)* @rust_eh_personality {
start:
  %_5.i = and i32 %flags, 4095
  %1 = tail call dereferenceable_or_null(164098) i8* @__rust_alloc(i64 164098, i64 2) #24
  %2 = icmp eq i8* %1, null
  br i1 %2, label %bb3.i.i, label %"_ZN69_$LT$alloc..boxed..Box$LT$T$GT$$u20$as$u20$core..default..Default$GT$7default17h60a8a7fa47971c50E.exit"

bb3.i.i:                                          ; preds = %start
; call alloc::alloc::handle_alloc_error
  tail call void @_ZN5alloc5alloc18handle_alloc_error17h2d5c084c39e97fa4E(i64 164098, i64 2) #26
  unreachable

"_ZN69_$LT$alloc..boxed..Box$LT$T$GT$$u20$as$u20$core..default..Default$GT$7default17h60a8a7fa47971c50E.exit": ; preds = %start
  %_10.i = lshr i32 %_5.i, 2
  %3 = trunc i32 %_10.i to i16
  %_8.lhs.trunc.i = add nuw nsw i16 %3, 2
  %_82.i = udiv i16 %_8.lhs.trunc.i, 3
  %narrow3.i = add nuw nsw i16 %_82.i, 1
  %.sroa.2.0.insert.ext.i = zext i16 %narrow3.i to i64
  %.sroa.2.0.insert.shift.i = shl nuw nsw i64 %.sroa.2.0.insert.ext.i, 32
  %4 = trunc i32 %_5.i to i16
  %_3.lhs.trunc.i = add nuw nsw i16 %4, 2
  %_31.i = udiv i16 %_3.lhs.trunc.i, 3
  %narrow.i = add nuw nsw i16 %_31.i, 1
  %.sroa.0.0.insert.ext.i = zext i16 %narrow.i to i64
  %.sroa.0.0.insert.insert.i = or i64 %.sroa.2.0.insert.shift.i, %.sroa.0.0.insert.ext.i
  tail call void @llvm.memset.p0i8.i64(i8* noundef nonnull align 2 dereferenceable(164098) %1, i8 0, i64 164098, i1 false)
  %_2.sroa.0.0..sroa_idx = getelementptr inbounds %"deflate::core::DictOxide", %"deflate::core::DictOxide"* %0, i64 0, i32 5
  %_2.sroa.0.0..sroa_cast = bitcast [2 x i32]* %_2.sroa.0.0..sroa_idx to i64*
  store i64 %.sroa.0.0.insert.insert.i, i64* %_2.sroa.0.0..sroa_cast, align 8
  %5 = bitcast %"deflate::core::DictOxide"* %0 to i8**
  store i8* %1, i8** %5, align 8
  %6 = getelementptr inbounds %"deflate::core::DictOxide", %"deflate::core::DictOxide"* %0, i64 0, i32 1
  %7 = bitcast i64* %6 to i8*
  call void @llvm.memset.p0i8.i64(i8* noundef nonnull align 8 dereferenceable(32) %7, i8 0, i64 32, i1 false)
  ret void
}

; miniz_oxide::deflate::core::ParamsOxide::new
; Function Attrs: nounwind nonlazybind uwtable
define void @_ZN11miniz_oxide7deflate4core11ParamsOxide3new17h7a96c62762a07e44E(%"deflate::core::ParamsOxide"* noalias nocapture sret(%"deflate::core::ParamsOxide") dereferenceable(72) %0, i32 %flags) unnamed_addr #9 personality i32 (...)* @rust_eh_personality {
start:
  %1 = tail call dereferenceable_or_null(85196) i8* @__rust_alloc(i64 85196, i64 1) #24
  %2 = icmp eq i8* %1, null
  br i1 %2, label %bb3.i.i, label %"_ZN69_$LT$alloc..boxed..Box$LT$T$GT$$u20$as$u20$core..default..Default$GT$7default17hf10b2c8c02d16a1dE.exit"

bb3.i.i:                                          ; preds = %start
; call alloc::alloc::handle_alloc_error
  tail call void @_ZN5alloc5alloc18handle_alloc_error17h2d5c084c39e97fa4E(i64 85196, i64 1) #26
  unreachable

"_ZN69_$LT$alloc..boxed..Box$LT$T$GT$$u20$as$u20$core..default..Default$GT$7default17hf10b2c8c02d16a1dE.exit": ; preds = %start
  %3 = bitcast i8* %1 to %"deflate::buffer::LocalBuf"*
  %4 = getelementptr inbounds %"deflate::buffer::LocalBuf", %"deflate::buffer::LocalBuf"* %3, i64 0, i32 0, i64 0
  tail call void @llvm.memset.p0i8.i64(i8* noundef nonnull align 1 dereferenceable(85196) %4, i8 0, i64 85196, i1 false) #24, !alias.scope !147
  %5 = getelementptr inbounds %"deflate::core::ParamsOxide", %"deflate::core::ParamsOxide"* %0, i64 0, i32 3
  store i32 %flags, i32* %5, align 8
  %6 = getelementptr inbounds %"deflate::core::ParamsOxide", %"deflate::core::ParamsOxide"* %0, i64 0, i32 13
  %_4 = lshr i32 %flags, 14
  %7 = trunc i32 %_4 to i8
  %8 = and i8 %7, 1
  store i8 %8, i8* %6, align 8
  %9 = getelementptr inbounds %"deflate::core::ParamsOxide", %"deflate::core::ParamsOxide"* %0, i64 0, i32 4
  %10 = getelementptr inbounds %"deflate::core::ParamsOxide", %"deflate::core::ParamsOxide"* %0, i64 0, i32 14
  store i8 0, i8* %10, align 1
  %11 = getelementptr inbounds %"deflate::core::ParamsOxide", %"deflate::core::ParamsOxide"* %0, i64 0, i32 15
  store i8 0, i8* %11, align 2
  %12 = getelementptr inbounds %"deflate::core::ParamsOxide", %"deflate::core::ParamsOxide"* %0, i64 0, i32 16
  store i8 0, i8* %12, align 1
  %13 = getelementptr inbounds %"deflate::core::ParamsOxide", %"deflate::core::ParamsOxide"* %0, i64 0, i32 9
  %14 = bitcast i32* %9 to i8*
  call void @llvm.memset.p0i8.i64(i8* noundef nonnull align 4 dereferenceable(20) %14, i8 0, i64 20, i1 false)
  %15 = bitcast i32* %13 to <4 x i32>*
  store <4 x i32> <i32 1, i32 0, i32 0, i32 0>, <4 x i32>* %15, align 8
  %16 = getelementptr inbounds %"deflate::core::ParamsOxide", %"deflate::core::ParamsOxide"* %0, i64 0, i32 2
  %17 = bitcast %"deflate::buffer::LocalBuf"** %16 to i8**
  %18 = bitcast %"deflate::core::ParamsOxide"* %0 to i8*
  call void @llvm.memset.p0i8.i64(i8* noundef nonnull align 8 dereferenceable(16) %18, i8 0, i64 16, i1 false)
  store i8* %1, i8** %17, align 8
  ret void
}

; miniz_oxide::deflate::core::LZOxide::new
; Function Attrs: mustprogress nofree nosync nounwind nonlazybind uwtable willreturn
define void @_ZN11miniz_oxide7deflate4core7LZOxide3new17h7d50d3d377744a55E(%"deflate::core::LZOxide"* noalias nocapture sret(%"deflate::core::LZOxide") dereferenceable(65560) %0) unnamed_addr #2 {
start:
  %1 = getelementptr inbounds %"deflate::core::LZOxide", %"deflate::core::LZOxide"* %0, i64 0, i32 4, i64 0
  call void @llvm.memset.p0i8.i64(i8* noundef nonnull align 8 dereferenceable(65536) %1, i8 0, i64 65536, i1 false)
  %2 = bitcast %"deflate::core::LZOxide"* %0 to <2 x i64>*
  store <2 x i64> <i64 1, i64 0>, <2 x i64>* %2, align 8
  %3 = getelementptr inbounds %"deflate::core::LZOxide", %"deflate::core::LZOxide"* %0, i64 0, i32 2
  store i32 0, i32* %3, align 8
  %4 = getelementptr inbounds %"deflate::core::LZOxide", %"deflate::core::LZOxide"* %0, i64 0, i32 3
  store i32 8, i32* %4, align 4
  ret void
}

; miniz_oxide::deflate::core::compress_block
; Function Attrs: nonlazybind uwtable
define internal fastcc i8 @_ZN11miniz_oxide7deflate4core14compress_block17hd2f0725292b9a3a8E(%"deflate::core::HuffmanOxide"* noalias align 2 dereferenceable(4320) %huff, %"deflate::core::OutputBufferOxide"* noalias nocapture align 8 dereferenceable(40) %output, %"deflate::core::LZOxide"* noalias readonly align 8 dereferenceable(65560) %lz, i1 zeroext %static_block) unnamed_addr #1 personality i32 (...)* @rust_eh_personality {
start:
  %_34.i260.i = alloca [3 x i8], align 1
  %_34.i107.i = alloca [3 x i8], align 1
  %_34.i.i = alloca [3 x i8], align 1
  %_301.i = alloca [3 x i32], align 4
  %packed_code_sizes.i = alloca [320 x i8], align 1
  %code_sizes_to_pack.i = alloca [320 x i8], align 1
  br i1 %static_block, label %bb1, label %bb3

bb3:                                              ; preds = %start
  tail call void @llvm.experimental.noalias.scope.decl(metadata !150)
  tail call void @llvm.experimental.noalias.scope.decl(metadata !153)
  %0 = getelementptr inbounds %"deflate::core::HuffmanOxide", %"deflate::core::HuffmanOxide"* %huff, i64 0, i32 0, i64 0, i64 256
  store i16 1, i16* %0, align 2, !alias.scope !150, !noalias !153
; call miniz_oxide::deflate::core::HuffmanOxide::optimize_table
  tail call fastcc void @_ZN11miniz_oxide7deflate4core12HuffmanOxide14optimize_table17h097662b6d766e228E(%"deflate::core::HuffmanOxide"* noalias nonnull align 2 dereferenceable(4320) %huff, i64 0, i64 288, i64 15, i1 zeroext false), !noalias !153
; call miniz_oxide::deflate::core::HuffmanOxide::optimize_table
  tail call fastcc void @_ZN11miniz_oxide7deflate4core12HuffmanOxide14optimize_table17h097662b6d766e228E(%"deflate::core::HuffmanOxide"* noalias nonnull align 2 dereferenceable(4320) %huff, i64 1, i64 32, i64 15, i1 zeroext false), !noalias !153
  %1 = getelementptr inbounds %"deflate::core::HuffmanOxide", %"deflate::core::HuffmanOxide"* %huff, i64 0, i32 2, i64 0, i64 285
  %x.val.val.i.i.i.i.i.i.i = load i8, i8* %1, align 1, !alias.scope !155, !noalias !158
  %2 = icmp eq i8 %x.val.val.i.i.i.i.i.i.i, 0
  br i1 %2, label %"_ZN115_$LT$core..iter..adapters..take_while..TakeWhile$LT$I$C$P$GT$$u20$as$u20$core..iter..traits..iterator..Iterator$GT$8try_fold5check28_$u7b$$u7b$closure$u7d$$u7d$17hcb76db5b60366586E.exit.i.i.i.i.i.i", label %bb3.i.preheader.i.i.i.i65.i

"_ZN115_$LT$core..iter..adapters..take_while..TakeWhile$LT$I$C$P$GT$$u20$as$u20$core..iter..traits..iterator..Iterator$GT$8try_fold5check28_$u7b$$u7b$closure$u7d$$u7d$17hcb76db5b60366586E.exit.i.i.i.i.i.i": ; preds = %bb3
  %3 = getelementptr inbounds %"deflate::core::HuffmanOxide", %"deflate::core::HuffmanOxide"* %huff, i64 0, i32 2, i64 0, i64 284
  %x.val.val.i.i.i.i.i.i.1.i = load i8, i8* %3, align 2, !alias.scope !155, !noalias !158
  %4 = icmp eq i8 %x.val.val.i.i.i.i.i.i.1.i, 0
  br i1 %4, label %"_ZN115_$LT$core..iter..adapters..take_while..TakeWhile$LT$I$C$P$GT$$u20$as$u20$core..iter..traits..iterator..Iterator$GT$8try_fold5check28_$u7b$$u7b$closure$u7d$$u7d$17hcb76db5b60366586E.exit.i.i.i.i.i.1.i", label %bb3.i.preheader.i.i.i.i65.i

bb3.i.preheader.i.i.i.i65.i:                      ; preds = %"_ZN115_$LT$core..iter..adapters..take_while..TakeWhile$LT$I$C$P$GT$$u20$as$u20$core..iter..traits..iterator..Iterator$GT$8try_fold5check28_$u7b$$u7b$closure$u7d$$u7d$17hcb76db5b60366586E.exit.i.i.i.i.i.27.i", %"_ZN115_$LT$core..iter..adapters..take_while..TakeWhile$LT$I$C$P$GT$$u20$as$u20$core..iter..traits..iterator..Iterator$GT$8try_fold5check28_$u7b$$u7b$closure$u7d$$u7d$17hcb76db5b60366586E.exit.i.i.i.i.i.26.i", %"_ZN115_$LT$core..iter..adapters..take_while..TakeWhile$LT$I$C$P$GT$$u20$as$u20$core..iter..traits..iterator..Iterator$GT$8try_fold5check28_$u7b$$u7b$closure$u7d$$u7d$17hcb76db5b60366586E.exit.i.i.i.i.i.25.i", %"_ZN115_$LT$core..iter..adapters..take_while..TakeWhile$LT$I$C$P$GT$$u20$as$u20$core..iter..traits..iterator..Iterator$GT$8try_fold5check28_$u7b$$u7b$closure$u7d$$u7d$17hcb76db5b60366586E.exit.i.i.i.i.i.24.i", %"_ZN115_$LT$core..iter..adapters..take_while..TakeWhile$LT$I$C$P$GT$$u20$as$u20$core..iter..traits..iterator..Iterator$GT$8try_fold5check28_$u7b$$u7b$closure$u7d$$u7d$17hcb76db5b60366586E.exit.i.i.i.i.i.23.i", %"_ZN115_$LT$core..iter..adapters..take_while..TakeWhile$LT$I$C$P$GT$$u20$as$u20$core..iter..traits..iterator..Iterator$GT$8try_fold5check28_$u7b$$u7b$closure$u7d$$u7d$17hcb76db5b60366586E.exit.i.i.i.i.i.22.i", %"_ZN115_$LT$core..iter..adapters..take_while..TakeWhile$LT$I$C$P$GT$$u20$as$u20$core..iter..traits..iterator..Iterator$GT$8try_fold5check28_$u7b$$u7b$closure$u7d$$u7d$17hcb76db5b60366586E.exit.i.i.i.i.i.21.i", %"_ZN115_$LT$core..iter..adapters..take_while..TakeWhile$LT$I$C$P$GT$$u20$as$u20$core..iter..traits..iterator..Iterator$GT$8try_fold5check28_$u7b$$u7b$closure$u7d$$u7d$17hcb76db5b60366586E.exit.i.i.i.i.i.20.i", %"_ZN115_$LT$core..iter..adapters..take_while..TakeWhile$LT$I$C$P$GT$$u20$as$u20$core..iter..traits..iterator..Iterator$GT$8try_fold5check28_$u7b$$u7b$closure$u7d$$u7d$17hcb76db5b60366586E.exit.i.i.i.i.i.19.i", %"_ZN115_$LT$core..iter..adapters..take_while..TakeWhile$LT$I$C$P$GT$$u20$as$u20$core..iter..traits..iterator..Iterator$GT$8try_fold5check28_$u7b$$u7b$closure$u7d$$u7d$17hcb76db5b60366586E.exit.i.i.i.i.i.18.i", %"_ZN115_$LT$core..iter..adapters..take_while..TakeWhile$LT$I$C$P$GT$$u20$as$u20$core..iter..traits..iterator..Iterator$GT$8try_fold5check28_$u7b$$u7b$closure$u7d$$u7d$17hcb76db5b60366586E.exit.i.i.i.i.i.17.i", %"_ZN115_$LT$core..iter..adapters..take_while..TakeWhile$LT$I$C$P$GT$$u20$as$u20$core..iter..traits..iterator..Iterator$GT$8try_fold5check28_$u7b$$u7b$closure$u7d$$u7d$17hcb76db5b60366586E.exit.i.i.i.i.i.16.i", %"_ZN115_$LT$core..iter..adapters..take_while..TakeWhile$LT$I$C$P$GT$$u20$as$u20$core..iter..traits..iterator..Iterator$GT$8try_fold5check28_$u7b$$u7b$closure$u7d$$u7d$17hcb76db5b60366586E.exit.i.i.i.i.i.15.i", %"_ZN115_$LT$core..iter..adapters..take_while..TakeWhile$LT$I$C$P$GT$$u20$as$u20$core..iter..traits..iterator..Iterator$GT$8try_fold5check28_$u7b$$u7b$closure$u7d$$u7d$17hcb76db5b60366586E.exit.i.i.i.i.i.14.i", %"_ZN115_$LT$core..iter..adapters..take_while..TakeWhile$LT$I$C$P$GT$$u20$as$u20$core..iter..traits..iterator..Iterator$GT$8try_fold5check28_$u7b$$u7b$closure$u7d$$u7d$17hcb76db5b60366586E.exit.i.i.i.i.i.13.i", %"_ZN115_$LT$core..iter..adapters..take_while..TakeWhile$LT$I$C$P$GT$$u20$as$u20$core..iter..traits..iterator..Iterator$GT$8try_fold5check28_$u7b$$u7b$closure$u7d$$u7d$17hcb76db5b60366586E.exit.i.i.i.i.i.12.i", %"_ZN115_$LT$core..iter..adapters..take_while..TakeWhile$LT$I$C$P$GT$$u20$as$u20$core..iter..traits..iterator..Iterator$GT$8try_fold5check28_$u7b$$u7b$closure$u7d$$u7d$17hcb76db5b60366586E.exit.i.i.i.i.i.11.i", %"_ZN115_$LT$core..iter..adapters..take_while..TakeWhile$LT$I$C$P$GT$$u20$as$u20$core..iter..traits..iterator..Iterator$GT$8try_fold5check28_$u7b$$u7b$closure$u7d$$u7d$17hcb76db5b60366586E.exit.i.i.i.i.i.10.i", %"_ZN115_$LT$core..iter..adapters..take_while..TakeWhile$LT$I$C$P$GT$$u20$as$u20$core..iter..traits..iterator..Iterator$GT$8try_fold5check28_$u7b$$u7b$closure$u7d$$u7d$17hcb76db5b60366586E.exit.i.i.i.i.i.9.i", %"_ZN115_$LT$core..iter..adapters..take_while..TakeWhile$LT$I$C$P$GT$$u20$as$u20$core..iter..traits..iterator..Iterator$GT$8try_fold5check28_$u7b$$u7b$closure$u7d$$u7d$17hcb76db5b60366586E.exit.i.i.i.i.i.8.i", %"_ZN115_$LT$core..iter..adapters..take_while..TakeWhile$LT$I$C$P$GT$$u20$as$u20$core..iter..traits..iterator..Iterator$GT$8try_fold5check28_$u7b$$u7b$closure$u7d$$u7d$17hcb76db5b60366586E.exit.i.i.i.i.i.7.i", %"_ZN115_$LT$core..iter..adapters..take_while..TakeWhile$LT$I$C$P$GT$$u20$as$u20$core..iter..traits..iterator..Iterator$GT$8try_fold5check28_$u7b$$u7b$closure$u7d$$u7d$17hcb76db5b60366586E.exit.i.i.i.i.i.6.i", %"_ZN115_$LT$core..iter..adapters..take_while..TakeWhile$LT$I$C$P$GT$$u20$as$u20$core..iter..traits..iterator..Iterator$GT$8try_fold5check28_$u7b$$u7b$closure$u7d$$u7d$17hcb76db5b60366586E.exit.i.i.i.i.i.5.i", %"_ZN115_$LT$core..iter..adapters..take_while..TakeWhile$LT$I$C$P$GT$$u20$as$u20$core..iter..traits..iterator..Iterator$GT$8try_fold5check28_$u7b$$u7b$closure$u7d$$u7d$17hcb76db5b60366586E.exit.i.i.i.i.i.4.i", %"_ZN115_$LT$core..iter..adapters..take_while..TakeWhile$LT$I$C$P$GT$$u20$as$u20$core..iter..traits..iterator..Iterator$GT$8try_fold5check28_$u7b$$u7b$closure$u7d$$u7d$17hcb76db5b60366586E.exit.i.i.i.i.i.3.i", %"_ZN115_$LT$core..iter..adapters..take_while..TakeWhile$LT$I$C$P$GT$$u20$as$u20$core..iter..traits..iterator..Iterator$GT$8try_fold5check28_$u7b$$u7b$closure$u7d$$u7d$17hcb76db5b60366586E.exit.i.i.i.i.i.2.i", %"_ZN115_$LT$core..iter..adapters..take_while..TakeWhile$LT$I$C$P$GT$$u20$as$u20$core..iter..traits..iterator..Iterator$GT$8try_fold5check28_$u7b$$u7b$closure$u7d$$u7d$17hcb76db5b60366586E.exit.i.i.i.i.i.1.i", %"_ZN115_$LT$core..iter..adapters..take_while..TakeWhile$LT$I$C$P$GT$$u20$as$u20$core..iter..traits..iterator..Iterator$GT$8try_fold5check28_$u7b$$u7b$closure$u7d$$u7d$17hcb76db5b60366586E.exit.i.i.i.i.i.i", %bb3
  %.0.i.i.i.neg.i = phi i64 [ 286, %bb3 ], [ 285, %"_ZN115_$LT$core..iter..adapters..take_while..TakeWhile$LT$I$C$P$GT$$u20$as$u20$core..iter..traits..iterator..Iterator$GT$8try_fold5check28_$u7b$$u7b$closure$u7d$$u7d$17hcb76db5b60366586E.exit.i.i.i.i.i.i" ], [ 284, %"_ZN115_$LT$core..iter..adapters..take_while..TakeWhile$LT$I$C$P$GT$$u20$as$u20$core..iter..traits..iterator..Iterator$GT$8try_fold5check28_$u7b$$u7b$closure$u7d$$u7d$17hcb76db5b60366586E.exit.i.i.i.i.i.1.i" ], [ 283, %"_ZN115_$LT$core..iter..adapters..take_while..TakeWhile$LT$I$C$P$GT$$u20$as$u20$core..iter..traits..iterator..Iterator$GT$8try_fold5check28_$u7b$$u7b$closure$u7d$$u7d$17hcb76db5b60366586E.exit.i.i.i.i.i.2.i" ], [ 282, %"_ZN115_$LT$core..iter..adapters..take_while..TakeWhile$LT$I$C$P$GT$$u20$as$u20$core..iter..traits..iterator..Iterator$GT$8try_fold5check28_$u7b$$u7b$closure$u7d$$u7d$17hcb76db5b60366586E.exit.i.i.i.i.i.3.i" ], [ 281, %"_ZN115_$LT$core..iter..adapters..take_while..TakeWhile$LT$I$C$P$GT$$u20$as$u20$core..iter..traits..iterator..Iterator$GT$8try_fold5check28_$u7b$$u7b$closure$u7d$$u7d$17hcb76db5b60366586E.exit.i.i.i.i.i.4.i" ], [ 280, %"_ZN115_$LT$core..iter..adapters..take_while..TakeWhile$LT$I$C$P$GT$$u20$as$u20$core..iter..traits..iterator..Iterator$GT$8try_fold5check28_$u7b$$u7b$closure$u7d$$u7d$17hcb76db5b60366586E.exit.i.i.i.i.i.5.i" ], [ 279, %"_ZN115_$LT$core..iter..adapters..take_while..TakeWhile$LT$I$C$P$GT$$u20$as$u20$core..iter..traits..iterator..Iterator$GT$8try_fold5check28_$u7b$$u7b$closure$u7d$$u7d$17hcb76db5b60366586E.exit.i.i.i.i.i.6.i" ], [ 278, %"_ZN115_$LT$core..iter..adapters..take_while..TakeWhile$LT$I$C$P$GT$$u20$as$u20$core..iter..traits..iterator..Iterator$GT$8try_fold5check28_$u7b$$u7b$closure$u7d$$u7d$17hcb76db5b60366586E.exit.i.i.i.i.i.7.i" ], [ 277, %"_ZN115_$LT$core..iter..adapters..take_while..TakeWhile$LT$I$C$P$GT$$u20$as$u20$core..iter..traits..iterator..Iterator$GT$8try_fold5check28_$u7b$$u7b$closure$u7d$$u7d$17hcb76db5b60366586E.exit.i.i.i.i.i.8.i" ], [ 276, %"_ZN115_$LT$core..iter..adapters..take_while..TakeWhile$LT$I$C$P$GT$$u20$as$u20$core..iter..traits..iterator..Iterator$GT$8try_fold5check28_$u7b$$u7b$closure$u7d$$u7d$17hcb76db5b60366586E.exit.i.i.i.i.i.9.i" ], [ 275, %"_ZN115_$LT$core..iter..adapters..take_while..TakeWhile$LT$I$C$P$GT$$u20$as$u20$core..iter..traits..iterator..Iterator$GT$8try_fold5check28_$u7b$$u7b$closure$u7d$$u7d$17hcb76db5b60366586E.exit.i.i.i.i.i.10.i" ], [ 274, %"_ZN115_$LT$core..iter..adapters..take_while..TakeWhile$LT$I$C$P$GT$$u20$as$u20$core..iter..traits..iterator..Iterator$GT$8try_fold5check28_$u7b$$u7b$closure$u7d$$u7d$17hcb76db5b60366586E.exit.i.i.i.i.i.11.i" ], [ 273, %"_ZN115_$LT$core..iter..adapters..take_while..TakeWhile$LT$I$C$P$GT$$u20$as$u20$core..iter..traits..iterator..Iterator$GT$8try_fold5check28_$u7b$$u7b$closure$u7d$$u7d$17hcb76db5b60366586E.exit.i.i.i.i.i.12.i" ], [ 272, %"_ZN115_$LT$core..iter..adapters..take_while..TakeWhile$LT$I$C$P$GT$$u20$as$u20$core..iter..traits..iterator..Iterator$GT$8try_fold5check28_$u7b$$u7b$closure$u7d$$u7d$17hcb76db5b60366586E.exit.i.i.i.i.i.13.i" ], [ 271, %"_ZN115_$LT$core..iter..adapters..take_while..TakeWhile$LT$I$C$P$GT$$u20$as$u20$core..iter..traits..iterator..Iterator$GT$8try_fold5check28_$u7b$$u7b$closure$u7d$$u7d$17hcb76db5b60366586E.exit.i.i.i.i.i.14.i" ], [ 270, %"_ZN115_$LT$core..iter..adapters..take_while..TakeWhile$LT$I$C$P$GT$$u20$as$u20$core..iter..traits..iterator..Iterator$GT$8try_fold5check28_$u7b$$u7b$closure$u7d$$u7d$17hcb76db5b60366586E.exit.i.i.i.i.i.15.i" ], [ 269, %"_ZN115_$LT$core..iter..adapters..take_while..TakeWhile$LT$I$C$P$GT$$u20$as$u20$core..iter..traits..iterator..Iterator$GT$8try_fold5check28_$u7b$$u7b$closure$u7d$$u7d$17hcb76db5b60366586E.exit.i.i.i.i.i.16.i" ], [ 268, %"_ZN115_$LT$core..iter..adapters..take_while..TakeWhile$LT$I$C$P$GT$$u20$as$u20$core..iter..traits..iterator..Iterator$GT$8try_fold5check28_$u7b$$u7b$closure$u7d$$u7d$17hcb76db5b60366586E.exit.i.i.i.i.i.17.i" ], [ 267, %"_ZN115_$LT$core..iter..adapters..take_while..TakeWhile$LT$I$C$P$GT$$u20$as$u20$core..iter..traits..iterator..Iterator$GT$8try_fold5check28_$u7b$$u7b$closure$u7d$$u7d$17hcb76db5b60366586E.exit.i.i.i.i.i.18.i" ], [ 266, %"_ZN115_$LT$core..iter..adapters..take_while..TakeWhile$LT$I$C$P$GT$$u20$as$u20$core..iter..traits..iterator..Iterator$GT$8try_fold5check28_$u7b$$u7b$closure$u7d$$u7d$17hcb76db5b60366586E.exit.i.i.i.i.i.19.i" ], [ 265, %"_ZN115_$LT$core..iter..adapters..take_while..TakeWhile$LT$I$C$P$GT$$u20$as$u20$core..iter..traits..iterator..Iterator$GT$8try_fold5check28_$u7b$$u7b$closure$u7d$$u7d$17hcb76db5b60366586E.exit.i.i.i.i.i.20.i" ], [ 264, %"_ZN115_$LT$core..iter..adapters..take_while..TakeWhile$LT$I$C$P$GT$$u20$as$u20$core..iter..traits..iterator..Iterator$GT$8try_fold5check28_$u7b$$u7b$closure$u7d$$u7d$17hcb76db5b60366586E.exit.i.i.i.i.i.21.i" ], [ 263, %"_ZN115_$LT$core..iter..adapters..take_while..TakeWhile$LT$I$C$P$GT$$u20$as$u20$core..iter..traits..iterator..Iterator$GT$8try_fold5check28_$u7b$$u7b$closure$u7d$$u7d$17hcb76db5b60366586E.exit.i.i.i.i.i.22.i" ], [ 262, %"_ZN115_$LT$core..iter..adapters..take_while..TakeWhile$LT$I$C$P$GT$$u20$as$u20$core..iter..traits..iterator..Iterator$GT$8try_fold5check28_$u7b$$u7b$closure$u7d$$u7d$17hcb76db5b60366586E.exit.i.i.i.i.i.23.i" ], [ 261, %"_ZN115_$LT$core..iter..adapters..take_while..TakeWhile$LT$I$C$P$GT$$u20$as$u20$core..iter..traits..iterator..Iterator$GT$8try_fold5check28_$u7b$$u7b$closure$u7d$$u7d$17hcb76db5b60366586E.exit.i.i.i.i.i.24.i" ], [ 260, %"_ZN115_$LT$core..iter..adapters..take_while..TakeWhile$LT$I$C$P$GT$$u20$as$u20$core..iter..traits..iterator..Iterator$GT$8try_fold5check28_$u7b$$u7b$closure$u7d$$u7d$17hcb76db5b60366586E.exit.i.i.i.i.i.25.i" ], [ 259, %"_ZN115_$LT$core..iter..adapters..take_while..TakeWhile$LT$I$C$P$GT$$u20$as$u20$core..iter..traits..iterator..Iterator$GT$8try_fold5check28_$u7b$$u7b$closure$u7d$$u7d$17hcb76db5b60366586E.exit.i.i.i.i.i.26.i" ], [ %spec.select.i, %"_ZN115_$LT$core..iter..adapters..take_while..TakeWhile$LT$I$C$P$GT$$u20$as$u20$core..iter..traits..iterator..Iterator$GT$8try_fold5check28_$u7b$$u7b$closure$u7d$$u7d$17hcb76db5b60366586E.exit.i.i.i.i.i.27.i" ]
  %5 = getelementptr inbounds %"deflate::core::HuffmanOxide", %"deflate::core::HuffmanOxide"* %huff, i64 0, i32 2, i64 1, i64 29
  %x.val.val.i.i.i.i.i.i68.i = load i8, i8* %5, align 1, !alias.scope !172, !noalias !175
  %6 = icmp eq i8 %x.val.val.i.i.i.i.i.i68.i, 0
  br i1 %6, label %"_ZN115_$LT$core..iter..adapters..take_while..TakeWhile$LT$I$C$P$GT$$u20$as$u20$core..iter..traits..iterator..Iterator$GT$8try_fold5check28_$u7b$$u7b$closure$u7d$$u7d$17h3be0e49c882e097dE.exit.i.i.i.i.i.i", label %"_ZN91_$LT$core..slice..iter..Iter$LT$T$GT$$u20$as$u20$core..iter..traits..iterator..Iterator$GT$4next17h5efc847fe07af0a1E.exit.preheader.i"

"_ZN115_$LT$core..iter..adapters..take_while..TakeWhile$LT$I$C$P$GT$$u20$as$u20$core..iter..traits..iterator..Iterator$GT$8try_fold5check28_$u7b$$u7b$closure$u7d$$u7d$17h3be0e49c882e097dE.exit.i.i.i.i.i.i": ; preds = %bb3.i.preheader.i.i.i.i65.i
  %7 = getelementptr inbounds %"deflate::core::HuffmanOxide", %"deflate::core::HuffmanOxide"* %huff, i64 0, i32 2, i64 1, i64 28
  %x.val.val.i.i.i.i.i.i68.1.i = load i8, i8* %7, align 2, !alias.scope !172, !noalias !175
  %8 = icmp eq i8 %x.val.val.i.i.i.i.i.i68.1.i, 0
  br i1 %8, label %"_ZN115_$LT$core..iter..adapters..take_while..TakeWhile$LT$I$C$P$GT$$u20$as$u20$core..iter..traits..iterator..Iterator$GT$8try_fold5check28_$u7b$$u7b$closure$u7d$$u7d$17h3be0e49c882e097dE.exit.i.i.i.i.i.1.i", label %"_ZN91_$LT$core..slice..iter..Iter$LT$T$GT$$u20$as$u20$core..iter..traits..iterator..Iterator$GT$4next17h5efc847fe07af0a1E.exit.preheader.i"

"_ZN91_$LT$core..slice..iter..Iter$LT$T$GT$$u20$as$u20$core..iter..traits..iterator..Iterator$GT$4next17h5efc847fe07af0a1E.exit.preheader.i": ; preds = %"_ZN115_$LT$core..iter..adapters..take_while..TakeWhile$LT$I$C$P$GT$$u20$as$u20$core..iter..traits..iterator..Iterator$GT$8try_fold5check28_$u7b$$u7b$closure$u7d$$u7d$17h3be0e49c882e097dE.exit.i.i.i.i.i.27.i", %"_ZN115_$LT$core..iter..adapters..take_while..TakeWhile$LT$I$C$P$GT$$u20$as$u20$core..iter..traits..iterator..Iterator$GT$8try_fold5check28_$u7b$$u7b$closure$u7d$$u7d$17h3be0e49c882e097dE.exit.i.i.i.i.i.26.i", %"_ZN115_$LT$core..iter..adapters..take_while..TakeWhile$LT$I$C$P$GT$$u20$as$u20$core..iter..traits..iterator..Iterator$GT$8try_fold5check28_$u7b$$u7b$closure$u7d$$u7d$17h3be0e49c882e097dE.exit.i.i.i.i.i.25.i", %"_ZN115_$LT$core..iter..adapters..take_while..TakeWhile$LT$I$C$P$GT$$u20$as$u20$core..iter..traits..iterator..Iterator$GT$8try_fold5check28_$u7b$$u7b$closure$u7d$$u7d$17h3be0e49c882e097dE.exit.i.i.i.i.i.24.i", %"_ZN115_$LT$core..iter..adapters..take_while..TakeWhile$LT$I$C$P$GT$$u20$as$u20$core..iter..traits..iterator..Iterator$GT$8try_fold5check28_$u7b$$u7b$closure$u7d$$u7d$17h3be0e49c882e097dE.exit.i.i.i.i.i.23.i", %"_ZN115_$LT$core..iter..adapters..take_while..TakeWhile$LT$I$C$P$GT$$u20$as$u20$core..iter..traits..iterator..Iterator$GT$8try_fold5check28_$u7b$$u7b$closure$u7d$$u7d$17h3be0e49c882e097dE.exit.i.i.i.i.i.22.i", %"_ZN115_$LT$core..iter..adapters..take_while..TakeWhile$LT$I$C$P$GT$$u20$as$u20$core..iter..traits..iterator..Iterator$GT$8try_fold5check28_$u7b$$u7b$closure$u7d$$u7d$17h3be0e49c882e097dE.exit.i.i.i.i.i.21.i", %"_ZN115_$LT$core..iter..adapters..take_while..TakeWhile$LT$I$C$P$GT$$u20$as$u20$core..iter..traits..iterator..Iterator$GT$8try_fold5check28_$u7b$$u7b$closure$u7d$$u7d$17h3be0e49c882e097dE.exit.i.i.i.i.i.20.i", %"_ZN115_$LT$core..iter..adapters..take_while..TakeWhile$LT$I$C$P$GT$$u20$as$u20$core..iter..traits..iterator..Iterator$GT$8try_fold5check28_$u7b$$u7b$closure$u7d$$u7d$17h3be0e49c882e097dE.exit.i.i.i.i.i.19.i", %"_ZN115_$LT$core..iter..adapters..take_while..TakeWhile$LT$I$C$P$GT$$u20$as$u20$core..iter..traits..iterator..Iterator$GT$8try_fold5check28_$u7b$$u7b$closure$u7d$$u7d$17h3be0e49c882e097dE.exit.i.i.i.i.i.18.i", %"_ZN115_$LT$core..iter..adapters..take_while..TakeWhile$LT$I$C$P$GT$$u20$as$u20$core..iter..traits..iterator..Iterator$GT$8try_fold5check28_$u7b$$u7b$closure$u7d$$u7d$17h3be0e49c882e097dE.exit.i.i.i.i.i.17.i", %"_ZN115_$LT$core..iter..adapters..take_while..TakeWhile$LT$I$C$P$GT$$u20$as$u20$core..iter..traits..iterator..Iterator$GT$8try_fold5check28_$u7b$$u7b$closure$u7d$$u7d$17h3be0e49c882e097dE.exit.i.i.i.i.i.16.i", %"_ZN115_$LT$core..iter..adapters..take_while..TakeWhile$LT$I$C$P$GT$$u20$as$u20$core..iter..traits..iterator..Iterator$GT$8try_fold5check28_$u7b$$u7b$closure$u7d$$u7d$17h3be0e49c882e097dE.exit.i.i.i.i.i.15.i", %"_ZN115_$LT$core..iter..adapters..take_while..TakeWhile$LT$I$C$P$GT$$u20$as$u20$core..iter..traits..iterator..Iterator$GT$8try_fold5check28_$u7b$$u7b$closure$u7d$$u7d$17h3be0e49c882e097dE.exit.i.i.i.i.i.14.i", %"_ZN115_$LT$core..iter..adapters..take_while..TakeWhile$LT$I$C$P$GT$$u20$as$u20$core..iter..traits..iterator..Iterator$GT$8try_fold5check28_$u7b$$u7b$closure$u7d$$u7d$17h3be0e49c882e097dE.exit.i.i.i.i.i.13.i", %"_ZN115_$LT$core..iter..adapters..take_while..TakeWhile$LT$I$C$P$GT$$u20$as$u20$core..iter..traits..iterator..Iterator$GT$8try_fold5check28_$u7b$$u7b$closure$u7d$$u7d$17h3be0e49c882e097dE.exit.i.i.i.i.i.12.i", %"_ZN115_$LT$core..iter..adapters..take_while..TakeWhile$LT$I$C$P$GT$$u20$as$u20$core..iter..traits..iterator..Iterator$GT$8try_fold5check28_$u7b$$u7b$closure$u7d$$u7d$17h3be0e49c882e097dE.exit.i.i.i.i.i.11.i", %"_ZN115_$LT$core..iter..adapters..take_while..TakeWhile$LT$I$C$P$GT$$u20$as$u20$core..iter..traits..iterator..Iterator$GT$8try_fold5check28_$u7b$$u7b$closure$u7d$$u7d$17h3be0e49c882e097dE.exit.i.i.i.i.i.10.i", %"_ZN115_$LT$core..iter..adapters..take_while..TakeWhile$LT$I$C$P$GT$$u20$as$u20$core..iter..traits..iterator..Iterator$GT$8try_fold5check28_$u7b$$u7b$closure$u7d$$u7d$17h3be0e49c882e097dE.exit.i.i.i.i.i.9.i", %"_ZN115_$LT$core..iter..adapters..take_while..TakeWhile$LT$I$C$P$GT$$u20$as$u20$core..iter..traits..iterator..Iterator$GT$8try_fold5check28_$u7b$$u7b$closure$u7d$$u7d$17h3be0e49c882e097dE.exit.i.i.i.i.i.8.i", %"_ZN115_$LT$core..iter..adapters..take_while..TakeWhile$LT$I$C$P$GT$$u20$as$u20$core..iter..traits..iterator..Iterator$GT$8try_fold5check28_$u7b$$u7b$closure$u7d$$u7d$17h3be0e49c882e097dE.exit.i.i.i.i.i.7.i", %"_ZN115_$LT$core..iter..adapters..take_while..TakeWhile$LT$I$C$P$GT$$u20$as$u20$core..iter..traits..iterator..Iterator$GT$8try_fold5check28_$u7b$$u7b$closure$u7d$$u7d$17h3be0e49c882e097dE.exit.i.i.i.i.i.6.i", %"_ZN115_$LT$core..iter..adapters..take_while..TakeWhile$LT$I$C$P$GT$$u20$as$u20$core..iter..traits..iterator..Iterator$GT$8try_fold5check28_$u7b$$u7b$closure$u7d$$u7d$17h3be0e49c882e097dE.exit.i.i.i.i.i.5.i", %"_ZN115_$LT$core..iter..adapters..take_while..TakeWhile$LT$I$C$P$GT$$u20$as$u20$core..iter..traits..iterator..Iterator$GT$8try_fold5check28_$u7b$$u7b$closure$u7d$$u7d$17h3be0e49c882e097dE.exit.i.i.i.i.i.4.i", %"_ZN115_$LT$core..iter..adapters..take_while..TakeWhile$LT$I$C$P$GT$$u20$as$u20$core..iter..traits..iterator..Iterator$GT$8try_fold5check28_$u7b$$u7b$closure$u7d$$u7d$17h3be0e49c882e097dE.exit.i.i.i.i.i.3.i", %"_ZN115_$LT$core..iter..adapters..take_while..TakeWhile$LT$I$C$P$GT$$u20$as$u20$core..iter..traits..iterator..Iterator$GT$8try_fold5check28_$u7b$$u7b$closure$u7d$$u7d$17h3be0e49c882e097dE.exit.i.i.i.i.i.2.i", %"_ZN115_$LT$core..iter..adapters..take_while..TakeWhile$LT$I$C$P$GT$$u20$as$u20$core..iter..traits..iterator..Iterator$GT$8try_fold5check28_$u7b$$u7b$closure$u7d$$u7d$17h3be0e49c882e097dE.exit.i.i.i.i.i.1.i", %"_ZN115_$LT$core..iter..adapters..take_while..TakeWhile$LT$I$C$P$GT$$u20$as$u20$core..iter..traits..iterator..Iterator$GT$8try_fold5check28_$u7b$$u7b$closure$u7d$$u7d$17h3be0e49c882e097dE.exit.i.i.i.i.i.i", %bb3.i.preheader.i.i.i.i65.i
  %.0.i.i.i72.neg.i = phi i64 [ 30, %bb3.i.preheader.i.i.i.i65.i ], [ 29, %"_ZN115_$LT$core..iter..adapters..take_while..TakeWhile$LT$I$C$P$GT$$u20$as$u20$core..iter..traits..iterator..Iterator$GT$8try_fold5check28_$u7b$$u7b$closure$u7d$$u7d$17h3be0e49c882e097dE.exit.i.i.i.i.i.i" ], [ 28, %"_ZN115_$LT$core..iter..adapters..take_while..TakeWhile$LT$I$C$P$GT$$u20$as$u20$core..iter..traits..iterator..Iterator$GT$8try_fold5check28_$u7b$$u7b$closure$u7d$$u7d$17h3be0e49c882e097dE.exit.i.i.i.i.i.1.i" ], [ 27, %"_ZN115_$LT$core..iter..adapters..take_while..TakeWhile$LT$I$C$P$GT$$u20$as$u20$core..iter..traits..iterator..Iterator$GT$8try_fold5check28_$u7b$$u7b$closure$u7d$$u7d$17h3be0e49c882e097dE.exit.i.i.i.i.i.2.i" ], [ 26, %"_ZN115_$LT$core..iter..adapters..take_while..TakeWhile$LT$I$C$P$GT$$u20$as$u20$core..iter..traits..iterator..Iterator$GT$8try_fold5check28_$u7b$$u7b$closure$u7d$$u7d$17h3be0e49c882e097dE.exit.i.i.i.i.i.3.i" ], [ 25, %"_ZN115_$LT$core..iter..adapters..take_while..TakeWhile$LT$I$C$P$GT$$u20$as$u20$core..iter..traits..iterator..Iterator$GT$8try_fold5check28_$u7b$$u7b$closure$u7d$$u7d$17h3be0e49c882e097dE.exit.i.i.i.i.i.4.i" ], [ 24, %"_ZN115_$LT$core..iter..adapters..take_while..TakeWhile$LT$I$C$P$GT$$u20$as$u20$core..iter..traits..iterator..Iterator$GT$8try_fold5check28_$u7b$$u7b$closure$u7d$$u7d$17h3be0e49c882e097dE.exit.i.i.i.i.i.5.i" ], [ 23, %"_ZN115_$LT$core..iter..adapters..take_while..TakeWhile$LT$I$C$P$GT$$u20$as$u20$core..iter..traits..iterator..Iterator$GT$8try_fold5check28_$u7b$$u7b$closure$u7d$$u7d$17h3be0e49c882e097dE.exit.i.i.i.i.i.6.i" ], [ 22, %"_ZN115_$LT$core..iter..adapters..take_while..TakeWhile$LT$I$C$P$GT$$u20$as$u20$core..iter..traits..iterator..Iterator$GT$8try_fold5check28_$u7b$$u7b$closure$u7d$$u7d$17h3be0e49c882e097dE.exit.i.i.i.i.i.7.i" ], [ 21, %"_ZN115_$LT$core..iter..adapters..take_while..TakeWhile$LT$I$C$P$GT$$u20$as$u20$core..iter..traits..iterator..Iterator$GT$8try_fold5check28_$u7b$$u7b$closure$u7d$$u7d$17h3be0e49c882e097dE.exit.i.i.i.i.i.8.i" ], [ 20, %"_ZN115_$LT$core..iter..adapters..take_while..TakeWhile$LT$I$C$P$GT$$u20$as$u20$core..iter..traits..iterator..Iterator$GT$8try_fold5check28_$u7b$$u7b$closure$u7d$$u7d$17h3be0e49c882e097dE.exit.i.i.i.i.i.9.i" ], [ 19, %"_ZN115_$LT$core..iter..adapters..take_while..TakeWhile$LT$I$C$P$GT$$u20$as$u20$core..iter..traits..iterator..Iterator$GT$8try_fold5check28_$u7b$$u7b$closure$u7d$$u7d$17h3be0e49c882e097dE.exit.i.i.i.i.i.10.i" ], [ 18, %"_ZN115_$LT$core..iter..adapters..take_while..TakeWhile$LT$I$C$P$GT$$u20$as$u20$core..iter..traits..iterator..Iterator$GT$8try_fold5check28_$u7b$$u7b$closure$u7d$$u7d$17h3be0e49c882e097dE.exit.i.i.i.i.i.11.i" ], [ 17, %"_ZN115_$LT$core..iter..adapters..take_while..TakeWhile$LT$I$C$P$GT$$u20$as$u20$core..iter..traits..iterator..Iterator$GT$8try_fold5check28_$u7b$$u7b$closure$u7d$$u7d$17h3be0e49c882e097dE.exit.i.i.i.i.i.12.i" ], [ 16, %"_ZN115_$LT$core..iter..adapters..take_while..TakeWhile$LT$I$C$P$GT$$u20$as$u20$core..iter..traits..iterator..Iterator$GT$8try_fold5check28_$u7b$$u7b$closure$u7d$$u7d$17h3be0e49c882e097dE.exit.i.i.i.i.i.13.i" ], [ 15, %"_ZN115_$LT$core..iter..adapters..take_while..TakeWhile$LT$I$C$P$GT$$u20$as$u20$core..iter..traits..iterator..Iterator$GT$8try_fold5check28_$u7b$$u7b$closure$u7d$$u7d$17h3be0e49c882e097dE.exit.i.i.i.i.i.14.i" ], [ 14, %"_ZN115_$LT$core..iter..adapters..take_while..TakeWhile$LT$I$C$P$GT$$u20$as$u20$core..iter..traits..iterator..Iterator$GT$8try_fold5check28_$u7b$$u7b$closure$u7d$$u7d$17h3be0e49c882e097dE.exit.i.i.i.i.i.15.i" ], [ 13, %"_ZN115_$LT$core..iter..adapters..take_while..TakeWhile$LT$I$C$P$GT$$u20$as$u20$core..iter..traits..iterator..Iterator$GT$8try_fold5check28_$u7b$$u7b$closure$u7d$$u7d$17h3be0e49c882e097dE.exit.i.i.i.i.i.16.i" ], [ 12, %"_ZN115_$LT$core..iter..adapters..take_while..TakeWhile$LT$I$C$P$GT$$u20$as$u20$core..iter..traits..iterator..Iterator$GT$8try_fold5check28_$u7b$$u7b$closure$u7d$$u7d$17h3be0e49c882e097dE.exit.i.i.i.i.i.17.i" ], [ 11, %"_ZN115_$LT$core..iter..adapters..take_while..TakeWhile$LT$I$C$P$GT$$u20$as$u20$core..iter..traits..iterator..Iterator$GT$8try_fold5check28_$u7b$$u7b$closure$u7d$$u7d$17h3be0e49c882e097dE.exit.i.i.i.i.i.18.i" ], [ 10, %"_ZN115_$LT$core..iter..adapters..take_while..TakeWhile$LT$I$C$P$GT$$u20$as$u20$core..iter..traits..iterator..Iterator$GT$8try_fold5check28_$u7b$$u7b$closure$u7d$$u7d$17h3be0e49c882e097dE.exit.i.i.i.i.i.19.i" ], [ 9, %"_ZN115_$LT$core..iter..adapters..take_while..TakeWhile$LT$I$C$P$GT$$u20$as$u20$core..iter..traits..iterator..Iterator$GT$8try_fold5check28_$u7b$$u7b$closure$u7d$$u7d$17h3be0e49c882e097dE.exit.i.i.i.i.i.20.i" ], [ 8, %"_ZN115_$LT$core..iter..adapters..take_while..TakeWhile$LT$I$C$P$GT$$u20$as$u20$core..iter..traits..iterator..Iterator$GT$8try_fold5check28_$u7b$$u7b$closure$u7d$$u7d$17h3be0e49c882e097dE.exit.i.i.i.i.i.21.i" ], [ 7, %"_ZN115_$LT$core..iter..adapters..take_while..TakeWhile$LT$I$C$P$GT$$u20$as$u20$core..iter..traits..iterator..Iterator$GT$8try_fold5check28_$u7b$$u7b$closure$u7d$$u7d$17h3be0e49c882e097dE.exit.i.i.i.i.i.22.i" ], [ 6, %"_ZN115_$LT$core..iter..adapters..take_while..TakeWhile$LT$I$C$P$GT$$u20$as$u20$core..iter..traits..iterator..Iterator$GT$8try_fold5check28_$u7b$$u7b$closure$u7d$$u7d$17h3be0e49c882e097dE.exit.i.i.i.i.i.23.i" ], [ 5, %"_ZN115_$LT$core..iter..adapters..take_while..TakeWhile$LT$I$C$P$GT$$u20$as$u20$core..iter..traits..iterator..Iterator$GT$8try_fold5check28_$u7b$$u7b$closure$u7d$$u7d$17h3be0e49c882e097dE.exit.i.i.i.i.i.24.i" ], [ 4, %"_ZN115_$LT$core..iter..adapters..take_while..TakeWhile$LT$I$C$P$GT$$u20$as$u20$core..iter..traits..iterator..Iterator$GT$8try_fold5check28_$u7b$$u7b$closure$u7d$$u7d$17h3be0e49c882e097dE.exit.i.i.i.i.i.25.i" ], [ 3, %"_ZN115_$LT$core..iter..adapters..take_while..TakeWhile$LT$I$C$P$GT$$u20$as$u20$core..iter..traits..iterator..Iterator$GT$8try_fold5check28_$u7b$$u7b$closure$u7d$$u7d$17h3be0e49c882e097dE.exit.i.i.i.i.i.26.i" ], [ %spec.select714.i, %"_ZN115_$LT$core..iter..adapters..take_while..TakeWhile$LT$I$C$P$GT$$u20$as$u20$core..iter..traits..iterator..Iterator$GT$8try_fold5check28_$u7b$$u7b$closure$u7d$$u7d$17h3be0e49c882e097dE.exit.i.i.i.i.i.27.i" ]
  %9 = getelementptr inbounds [320 x i8], [320 x i8]* %code_sizes_to_pack.i, i64 0, i64 0
  call void @llvm.lifetime.start.p0i8(i64 320, i8* nonnull %9), !noalias !189
  %10 = getelementptr inbounds [320 x i8], [320 x i8]* %packed_code_sizes.i, i64 0, i64 0
  call void @llvm.lifetime.start.p0i8(i64 320, i8* nonnull %10), !noalias !189
  call void @llvm.memset.p0i8.i64(i8* noundef nonnull align 1 dereferenceable(320) %10, i8 0, i64 320, i1 false), !noalias !189
  %total_code_sizes_to_pack.i = add nuw nsw i64 %.0.i.i.i72.neg.i, %.0.i.i.i.neg.i
  %11 = getelementptr inbounds %"deflate::core::HuffmanOxide", %"deflate::core::HuffmanOxide"* %huff, i64 0, i32 2, i64 0, i64 0
  %12 = sub nuw nsw i64 320, %.0.i.i.i.neg.i
  %13 = getelementptr [320 x i8], [320 x i8]* %code_sizes_to_pack.i, i64 0, i64 %.0.i.i.i.neg.i
  call void @llvm.memset.p0i8.i64(i8* align 1 %13, i8 0, i64 %12, i1 false), !noalias !189
  call void @llvm.memcpy.p0i8.p0i8.i64(i8* noundef nonnull align 1 %9, i8* noundef nonnull align 2 %11, i64 %.0.i.i.i.neg.i, i1 false) #24, !alias.scope !190, !noalias !194
  %14 = getelementptr inbounds %"deflate::core::HuffmanOxide", %"deflate::core::HuffmanOxide"* %huff, i64 0, i32 2, i64 1, i64 0
  call void @llvm.memcpy.p0i8.p0i8.i64(i8* noundef nonnull align 1 %13, i8* noundef nonnull align 2 %14, i64 %.0.i.i.i72.neg.i, i1 false) #24, !alias.scope !196, !noalias !200
  %_70.i = getelementptr inbounds %"deflate::core::HuffmanOxide", %"deflate::core::HuffmanOxide"* %huff, i64 0, i32 0, i64 2
  %slice.07.i.i = bitcast [288 x i16]* %_70.i to i8*
  tail call void @llvm.memset.p0i8.i64(i8* noundef nonnull align 2 dereferenceable(38) %slice.07.i.i, i8 0, i64 38, i1 false) #24, !alias.scope !202, !noalias !153
  %15 = getelementptr inbounds [320 x i8], [320 x i8]* %code_sizes_to_pack.i, i64 0, i64 %total_code_sizes_to_pack.i
  %16 = getelementptr inbounds %"deflate::core::HuffmanOxide", %"deflate::core::HuffmanOxide"* %huff, i64 0, i32 0, i64 2, i64 18
  %17 = getelementptr inbounds %"deflate::core::HuffmanOxide", %"deflate::core::HuffmanOxide"* %huff, i64 0, i32 0, i64 2, i64 17
  %18 = getelementptr inbounds %"deflate::core::HuffmanOxide", %"deflate::core::HuffmanOxide"* %huff, i64 0, i32 0, i64 2, i64 0
  %19 = getelementptr inbounds %"deflate::core::HuffmanOxide", %"deflate::core::HuffmanOxide"* %huff, i64 0, i32 0, i64 2, i64 16
  %_34.i107.i.0.sroa_idx211 = getelementptr inbounds [3 x i8], [3 x i8]* %_34.i107.i, i64 0, i64 0
  %_34.i107.i.1.sroa_idx214 = getelementptr inbounds [3 x i8], [3 x i8]* %_34.i107.i, i64 0, i64 1
  %_34.i107.i.2.sroa_idx215 = getelementptr inbounds [3 x i8], [3 x i8]* %_34.i107.i, i64 0, i64 2
  %_34.i.i.0.sroa_idx205 = getelementptr inbounds [3 x i8], [3 x i8]* %_34.i.i, i64 0, i64 0
  %_34.i.i.1.sroa_idx208 = getelementptr inbounds [3 x i8], [3 x i8]* %_34.i.i, i64 0, i64 1
  %_34.i.i.2.sroa_idx209 = getelementptr inbounds [3 x i8], [3 x i8]* %_34.i.i, i64 0, i64 2
  br label %"_ZN91_$LT$core..slice..iter..Iter$LT$T$GT$$u20$as$u20$core..iter..traits..iterator..Iterator$GT$4next17h5efc847fe07af0a1E.exit.i"

"_ZN91_$LT$core..slice..iter..Iter$LT$T$GT$$u20$as$u20$core..iter..traits..iterator..Iterator$GT$4next17h5efc847fe07af0a1E.exit.i": ; preds = %bb80.i, %"_ZN91_$LT$core..slice..iter..Iter$LT$T$GT$$u20$as$u20$core..iter..traits..iterator..Iterator$GT$4next17h5efc847fe07af0a1E.exit.preheader.i"
  %iter.sroa.0.0596.i = phi i8* [ %20, %bb80.i ], [ %9, %"_ZN91_$LT$core..slice..iter..Iter$LT$T$GT$$u20$as$u20$core..iter..traits..iterator..Iterator$GT$4next17h5efc847fe07af0a1E.exit.preheader.i" ]
  %packed_pos.0595.i = phi i64 [ %packed_pos.9.i, %bb80.i ], [ 0, %"_ZN91_$LT$core..slice..iter..Iter$LT$T$GT$$u20$as$u20$core..iter..traits..iterator..Iterator$GT$4next17h5efc847fe07af0a1E.exit.preheader.i" ]
  %rle.sroa.24.0594.i = phi i8 [ %code_size.i, %bb80.i ], [ -1, %"_ZN91_$LT$core..slice..iter..Iter$LT$T$GT$$u20$as$u20$core..iter..traits..iterator..Iterator$GT$4next17h5efc847fe07af0a1E.exit.preheader.i" ]
  %rle.sroa.12.0593.i = phi i32 [ %rle.sroa.12.4.i, %bb80.i ], [ 0, %"_ZN91_$LT$core..slice..iter..Iter$LT$T$GT$$u20$as$u20$core..iter..traits..iterator..Iterator$GT$4next17h5efc847fe07af0a1E.exit.preheader.i" ]
  %rle.sroa.0.0592.i = phi i32 [ %rle.sroa.0.2.i, %bb80.i ], [ 0, %"_ZN91_$LT$core..slice..iter..Iter$LT$T$GT$$u20$as$u20$core..iter..traits..iterator..Iterator$GT$4next17h5efc847fe07af0a1E.exit.preheader.i" ]
  %20 = getelementptr inbounds i8, i8* %iter.sroa.0.0596.i, i64 1
  %code_size.i = load i8, i8* %iter.sroa.0.0596.i, align 1, !noalias !189
  %21 = icmp eq i8 %code_size.i, 0
  br i1 %21, label %bb30.i, label %bb46.i

bb29.i:                                           ; preds = %bb80.i
  %22 = icmp eq i32 %rle.sroa.12.4.i, 0
  br i1 %22, label %bb82.i, label %bb1.i263.i

bb30.i:                                           ; preds = %"_ZN91_$LT$core..slice..iter..Iter$LT$T$GT$$u20$as$u20$core..iter..traits..iterator..Iterator$GT$4next17h5efc847fe07af0a1E.exit.i"
  call void @llvm.experimental.noalias.scope.decl(metadata !205)
  call void @llvm.experimental.noalias.scope.decl(metadata !208)
  %23 = icmp eq i32 %rle.sroa.12.0593.i, 0
  br i1 %23, label %bb33.i, label %bb1.i88.i

bb1.i88.i:                                        ; preds = %bb30.i
  %_11.i87.i = icmp ult i32 %rle.sroa.12.0593.i, 3
  br i1 %_11.i87.i, label %bb2.i.i, label %bb13.i.i

bb13.i.i:                                         ; preds = %bb1.i88.i
  %_46.i.i = load i16, i16* %19, align 2, !alias.scope !210, !noalias !211
  %24 = add i16 %_46.i.i, 1
  store i16 %24, i16* %19, align 2, !alias.scope !210, !noalias !211
  %_9.i.i.i89.i = add i64 %packed_pos.0595.i, 2
  %_4.i.i.i.i.i.i = icmp ugt i64 %packed_pos.0595.i, -3
  %_7.i.i.i.i.i.i = icmp ugt i64 %_9.i.i.i89.i, 320
  %_3.0.i.i.i.i.i.i = or i1 %_4.i.i.i.i.i.i, %_7.i.i.i.i.i.i
  br i1 %_3.0.i.i.i.i.i.i, label %bb8, label %bb18.i.i

bb2.i.i:                                          ; preds = %bb1.i88.i
  %_15.i90.i = zext i8 %rle.sroa.24.0594.i to i64
  %25 = getelementptr inbounds %"deflate::core::HuffmanOxide", %"deflate::core::HuffmanOxide"* %huff, i64 0, i32 0, i64 2, i64 %_15.i90.i
  %_14.i.i = load i16, i16* %25, align 2, !alias.scope !210, !noalias !211
  %_19.i.i = trunc i32 %rle.sroa.12.0593.i to i16
  %26 = add i16 %_14.i.i, %_19.i.i
  store i16 %26, i16* %25, align 2, !alias.scope !210, !noalias !211
  call void @llvm.lifetime.start.p0i8(i64 3, i8* nonnull %_34.i.i.0.sroa_idx205)
  store i8 %rle.sroa.24.0594.i, i8* %_34.i.i.0.sroa_idx205, align 1, !noalias !214
  store i8 %rle.sroa.24.0594.i, i8* %_34.i.i.1.sroa_idx208, align 1, !noalias !214
  store i8 %rle.sroa.24.0594.i, i8* %_34.i.i.2.sroa_idx209, align 1, !noalias !214
  %_39.i.i = zext i32 %rle.sroa.12.0593.i to i64
  %_9.i.i7.i.i = add i64 %packed_pos.0595.i, %_39.i.i
  %_4.i.i.i.i8.i.i = icmp ult i64 %_9.i.i7.i.i, %packed_pos.0595.i
  %_7.i.i.i.i9.i.i = icmp ugt i64 %_9.i.i7.i.i, 320
  %_3.0.i.i.i.i10.i.i = or i1 %_4.i.i.i.i8.i.i, %_7.i.i.i.i9.i.i
  br i1 %_3.0.i.i.i.i10.i.i, label %bb11.i.i, label %bb9.i.i

bb9.i.i:                                          ; preds = %bb2.i.i
  %27 = getelementptr inbounds [320 x i8], [320 x i8]* %packed_code_sizes.i, i64 0, i64 %packed_pos.0595.i
  call void @llvm.memcpy.p0i8.p0i8.i64(i8* nonnull align 1 %27, i8* nonnull align 1 %_34.i.i.0.sroa_idx205, i64 %_39.i.i, i1 false) #24, !alias.scope !215, !noalias !222
  call void @llvm.lifetime.end.p0i8(i64 3, i8* nonnull %_34.i.i.0.sroa_idx205)
  br label %bb33.i

bb11.i.i:                                         ; preds = %bb2.i.i
  call void @llvm.lifetime.end.p0i8(i64 3, i8* nonnull %_34.i.i.0.sroa_idx205)
  br label %bb8

bb18.i.i:                                         ; preds = %bb13.i.i
  %28 = trunc i32 %rle.sroa.12.0593.i to i16
  %29 = getelementptr inbounds [320 x i8], [320 x i8]* %packed_code_sizes.i, i64 0, i64 %packed_pos.0595.i
  %30 = bitcast i8* %29 to i16*
  %_58.i.i = shl i16 %28, 8
  %_57.sroa.0.0.insert.insert.i.i = add i16 %_58.i.i, -752
  store i16 %_57.sroa.0.0.insert.insert.i.i, i16* %30, align 1, !alias.scope !205, !noalias !227
  br label %bb33.i

bb46.i:                                           ; preds = %"_ZN91_$LT$core..slice..iter..Iter$LT$T$GT$$u20$as$u20$core..iter..traits..iterator..Iterator$GT$4next17h5efc847fe07af0a1E.exit.i"
  call void @llvm.experimental.noalias.scope.decl(metadata !228)
  call void @llvm.experimental.noalias.scope.decl(metadata !231)
  %31 = icmp eq i32 %rle.sroa.0.0592.i, 0
  br i1 %31, label %bb49.i, label %bb1.i93.i

bb1.i93.i:                                        ; preds = %bb46.i
  %_11.i92.i = icmp ult i32 %rle.sroa.0.0592.i, 3
  br i1 %_11.i92.i, label %bb2.i103.i, label %bb11.i95.i

bb11.i95.i:                                       ; preds = %bb1.i93.i
  %_34.i94.i = icmp ult i32 %rle.sroa.0.0592.i, 11
  br i1 %_34.i94.i, label %bb12.i105.i, label %bb21.i.i

bb2.i103.i:                                       ; preds = %bb1.i93.i
  %_14.i96.i = load i16, i16* %18, align 2, !alias.scope !233, !noalias !234
  %_16.i97.i = trunc i32 %rle.sroa.0.0592.i to i16
  %32 = add i16 %_14.i96.i, %_16.i97.i
  store i16 %32, i16* %18, align 2, !alias.scope !233, !noalias !234
  %_28.i.i = zext i32 %rle.sroa.0.0592.i to i64
  %_9.i.i.i99.i = add i64 %packed_pos.0595.i, %_28.i.i
  %_4.i.i.i.i.i100.i = icmp ult i64 %_9.i.i.i99.i, %packed_pos.0595.i
  %_7.i.i.i.i.i101.i = icmp ugt i64 %_9.i.i.i99.i, 320
  %_3.0.i.i.i.i.i102.i = or i1 %_4.i.i.i.i.i100.i, %_7.i.i.i.i.i101.i
  br i1 %_3.0.i.i.i.i.i102.i, label %bb8, label %"_ZN11miniz_oxide7deflate4core3RLE14zero_code_size28_$u7b$$u7b$closure$u7d$$u7d$17he5463bf7204cbfe5E.exit.i.i"

"_ZN11miniz_oxide7deflate4core3RLE14zero_code_size28_$u7b$$u7b$closure$u7d$$u7d$17he5463bf7204cbfe5E.exit.i.i": ; preds = %bb2.i103.i
  %33 = getelementptr inbounds [320 x i8], [320 x i8]* %packed_code_sizes.i, i64 0, i64 %packed_pos.0595.i
  call void @llvm.memset.p0i8.i64(i8* nonnull align 1 %33, i8 0, i64 %_28.i.i, i1 false), !alias.scope !228, !noalias !237
  br label %bb49.i

bb21.i.i:                                         ; preds = %bb11.i95.i
  %_58.i104.i = load i16, i16* %16, align 2, !alias.scope !233, !noalias !234
  %34 = add i16 %_58.i104.i, 1
  store i16 %34, i16* %16, align 2, !alias.scope !233, !noalias !234
  %_9.i.i6.i.i = add i64 %packed_pos.0595.i, 2
  %_4.i.i.i.i7.i.i = icmp ugt i64 %packed_pos.0595.i, -3
  %_7.i.i.i.i8.i.i = icmp ugt i64 %_9.i.i6.i.i, 320
  %_3.0.i.i.i.i9.i.i = or i1 %_4.i.i.i.i7.i.i, %_7.i.i.i.i8.i.i
  br i1 %_3.0.i.i.i.i9.i.i, label %bb8, label %bb26.i.i

bb12.i105.i:                                      ; preds = %bb11.i95.i
  %_37.i.i = load i16, i16* %17, align 2, !alias.scope !233, !noalias !234
  %35 = add i16 %_37.i.i, 1
  store i16 %35, i16* %17, align 2, !alias.scope !233, !noalias !234
  %_9.i.i18.i.i = add i64 %packed_pos.0595.i, 2
  %_4.i.i.i.i19.i.i = icmp ugt i64 %packed_pos.0595.i, -3
  %_7.i.i.i.i20.i.i = icmp ugt i64 %_9.i.i18.i.i, 320
  %_3.0.i.i.i.i21.i.i = or i1 %_4.i.i.i.i19.i.i, %_7.i.i.i.i20.i.i
  br i1 %_3.0.i.i.i.i21.i.i, label %bb8, label %bb17.i.i

bb17.i.i:                                         ; preds = %bb12.i105.i
  %36 = trunc i32 %rle.sroa.0.0592.i to i16
  %37 = getelementptr inbounds [320 x i8], [320 x i8]* %packed_code_sizes.i, i64 0, i64 %packed_pos.0595.i
  %38 = bitcast i8* %37 to i16*
  %_49.i.i = shl nuw nsw i16 %36, 8
  %_48.sroa.0.0.insert.insert.i.i = add nsw i16 %_49.i.i, -751
  store i16 %_48.sroa.0.0.insert.insert.i.i, i16* %38, align 1, !alias.scope !228, !noalias !237
  br label %bb49.i

bb26.i.i:                                         ; preds = %bb21.i.i
  %39 = trunc i32 %rle.sroa.0.0592.i to i16
  %40 = getelementptr inbounds [320 x i8], [320 x i8]* %packed_code_sizes.i, i64 0, i64 %packed_pos.0595.i
  %41 = bitcast i8* %40 to i16*
  %_70.i.i = shl i16 %39, 8
  %_69.sroa.0.0.insert.insert.i.i = add i16 %_70.i.i, -2798
  store i16 %_69.sroa.0.0.insert.insert.i.i, i16* %41, align 1, !alias.scope !228, !noalias !237
  br label %bb49.i

bb49.i:                                           ; preds = %bb26.i.i, %bb17.i.i, %"_ZN11miniz_oxide7deflate4core3RLE14zero_code_size28_$u7b$$u7b$closure$u7d$$u7d$17he5463bf7204cbfe5E.exit.i.i", %bb46.i
  %packed_pos.3.ph.i = phi i64 [ %_9.i.i6.i.i, %bb26.i.i ], [ %_9.i.i18.i.i, %bb17.i.i ], [ %_9.i.i.i99.i, %"_ZN11miniz_oxide7deflate4core3RLE14zero_code_size28_$u7b$$u7b$closure$u7d$$u7d$17he5463bf7204cbfe5E.exit.i.i" ], [ %packed_pos.0595.i, %bb46.i ]
  %_127.not.i = icmp eq i8 %code_size.i, %rle.sroa.24.0594.i
  br i1 %_127.not.i, label %bb54.i, label %bb53.i

bb54.i:                                           ; preds = %bb49.i
  %42 = add i32 %rle.sroa.12.0593.i, 1
  %43 = icmp eq i32 %42, 6
  br i1 %43, label %bb13.i153.i, label %bb80.i

bb53.i:                                           ; preds = %bb49.i
  call void @llvm.experimental.noalias.scope.decl(metadata !238)
  call void @llvm.experimental.noalias.scope.decl(metadata !241)
  %44 = icmp eq i32 %rle.sroa.12.0593.i, 0
  br i1 %44, label %bb57.i, label %bb1.i110.i

bb1.i110.i:                                       ; preds = %bb53.i
  %_11.i109.i = icmp ult i32 %rle.sroa.12.0593.i, 3
  br i1 %_11.i109.i, label %bb2.i131.i, label %bb13.i117.i

bb13.i117.i:                                      ; preds = %bb1.i110.i
  %_46.i111.i = load i16, i16* %19, align 2, !alias.scope !243, !noalias !244
  %45 = add i16 %_46.i111.i, 1
  store i16 %45, i16* %19, align 2, !alias.scope !243, !noalias !244
  %_9.i.i.i113.i = add i64 %packed_pos.3.ph.i, 2
  %_4.i.i.i.i.i114.i = icmp ugt i64 %packed_pos.3.ph.i, -3
  %_7.i.i.i.i.i115.i = icmp ugt i64 %_9.i.i.i113.i, 320
  %_3.0.i.i.i.i.i116.i = or i1 %_4.i.i.i.i.i114.i, %_7.i.i.i.i.i115.i
  br i1 %_3.0.i.i.i.i.i116.i, label %bb8, label %bb18.i138.i

bb2.i131.i:                                       ; preds = %bb1.i110.i
  %_15.i119.i = zext i8 %rle.sroa.24.0594.i to i64
  %46 = getelementptr inbounds %"deflate::core::HuffmanOxide", %"deflate::core::HuffmanOxide"* %huff, i64 0, i32 0, i64 2, i64 %_15.i119.i
  %_14.i120.i = load i16, i16* %46, align 2, !alias.scope !243, !noalias !244
  %_19.i121.i = trunc i32 %rle.sroa.12.0593.i to i16
  %47 = add i16 %_14.i120.i, %_19.i121.i
  store i16 %47, i16* %46, align 2, !alias.scope !243, !noalias !244
  call void @llvm.lifetime.start.p0i8(i64 3, i8* nonnull %_34.i107.i.0.sroa_idx211)
  store i8 %rle.sroa.24.0594.i, i8* %_34.i107.i.0.sroa_idx211, align 1, !noalias !247
  store i8 %rle.sroa.24.0594.i, i8* %_34.i107.i.1.sroa_idx214, align 1, !noalias !247
  store i8 %rle.sroa.24.0594.i, i8* %_34.i107.i.2.sroa_idx215, align 1, !noalias !247
  %_39.i125.i = zext i32 %rle.sroa.12.0593.i to i64
  %_9.i.i7.i127.i = add i64 %packed_pos.3.ph.i, %_39.i125.i
  %_4.i.i.i.i8.i128.i = icmp ult i64 %_9.i.i7.i127.i, %packed_pos.3.ph.i
  %_7.i.i.i.i9.i129.i = icmp ugt i64 %_9.i.i7.i127.i, 320
  %_3.0.i.i.i.i10.i130.i = or i1 %_4.i.i.i.i8.i128.i, %_7.i.i.i.i9.i129.i
  br i1 %_3.0.i.i.i.i10.i130.i, label %bb11.i133.i, label %bb9.i132.i

bb9.i132.i:                                       ; preds = %bb2.i131.i
  %48 = getelementptr inbounds [320 x i8], [320 x i8]* %packed_code_sizes.i, i64 0, i64 %packed_pos.3.ph.i
  call void @llvm.memcpy.p0i8.p0i8.i64(i8* nonnull align 1 %48, i8* nonnull align 1 %_34.i107.i.0.sroa_idx211, i64 %_39.i125.i, i1 false) #24, !alias.scope !248, !noalias !255
  call void @llvm.lifetime.end.p0i8(i64 3, i8* nonnull %_34.i107.i.0.sroa_idx211)
  br label %bb57.i

bb11.i133.i:                                      ; preds = %bb2.i131.i
  call void @llvm.lifetime.end.p0i8(i64 3, i8* nonnull %_34.i107.i.0.sroa_idx211)
  br label %bb8

bb18.i138.i:                                      ; preds = %bb13.i117.i
  %49 = trunc i32 %rle.sroa.12.0593.i to i16
  %50 = getelementptr inbounds [320 x i8], [320 x i8]* %packed_code_sizes.i, i64 0, i64 %packed_pos.3.ph.i
  %51 = bitcast i8* %50 to i16*
  %_58.i135.i = shl i16 %49, 8
  %_57.sroa.0.0.insert.insert.i137.i = add i16 %_58.i135.i, -752
  store i16 %_57.sroa.0.0.insert.insert.i137.i, i16* %51, align 1, !alias.scope !238, !noalias !260
  br label %bb57.i

bb57.i:                                           ; preds = %bb18.i138.i, %bb9.i132.i, %bb53.i
  %packed_pos.5.ph.i = phi i64 [ %_9.i.i.i113.i, %bb18.i138.i ], [ %_9.i.i7.i127.i, %bb9.i132.i ], [ %packed_pos.3.ph.i, %bb53.i ]
  %_146.i = zext i8 %code_size.i to i64
  %52 = getelementptr inbounds %"deflate::core::HuffmanOxide", %"deflate::core::HuffmanOxide"* %huff, i64 0, i32 0, i64 2, i64 %_146.i
  %_144.i = load i16, i16* %52, align 2, !alias.scope !150, !noalias !153
  %53 = add i16 %_144.i, 1
  store i16 %53, i16* %52, align 2, !alias.scope !150, !noalias !153
  %_9.i.i = add i64 %packed_pos.5.ph.i, 1
  %_4.i.i.i142.i = icmp eq i64 %packed_pos.5.ph.i, -1
  %_7.i.i.i.i = icmp ugt i64 %_9.i.i, 320
  %_3.0.i.i.i.i = or i1 %_4.i.i.i142.i, %_7.i.i.i.i
  br i1 %_3.0.i.i.i.i, label %bb8, label %bb66.i

bb66.i:                                           ; preds = %bb57.i
  %54 = getelementptr inbounds [320 x i8], [320 x i8]* %packed_code_sizes.i, i64 0, i64 %packed_pos.5.ph.i
  store i8 %code_size.i, i8* %54, align 1, !alias.scope !261, !noalias !268
  br label %bb80.i

bb13.i153.i:                                      ; preds = %bb54.i
  call void @llvm.experimental.noalias.scope.decl(metadata !271)
  call void @llvm.experimental.noalias.scope.decl(metadata !274)
  %_46.i147.i = load i16, i16* %19, align 2, !alias.scope !276, !noalias !277
  %55 = add i16 %_46.i147.i, 1
  store i16 %55, i16* %19, align 2, !alias.scope !276, !noalias !277
  %_9.i.i.i149.i = add i64 %packed_pos.3.ph.i, 2
  %_4.i.i.i.i.i150.i = icmp ugt i64 %packed_pos.3.ph.i, -3
  %_7.i.i.i.i.i151.i = icmp ugt i64 %_9.i.i.i149.i, 320
  %_3.0.i.i.i.i.i152.i = or i1 %_4.i.i.i.i.i150.i, %_7.i.i.i.i.i151.i
  br i1 %_3.0.i.i.i.i.i152.i, label %bb8, label %_ZN11miniz_oxide7deflate4core3RLE14prev_code_size17h5928b8449181384dE.exit177.i

_ZN11miniz_oxide7deflate4core3RLE14prev_code_size17h5928b8449181384dE.exit177.i: ; preds = %bb13.i153.i
  %56 = getelementptr inbounds [320 x i8], [320 x i8]* %packed_code_sizes.i, i64 0, i64 %packed_pos.3.ph.i
  %57 = bitcast i8* %56 to i16*
  store i16 784, i16* %57, align 1, !alias.scope !271, !noalias !280
  br label %bb80.i

bb80.i:                                           ; preds = %_ZN11miniz_oxide7deflate4core3RLE14zero_code_size17h858669b2efca0a68E.exit218.i, %bb33.i, %_ZN11miniz_oxide7deflate4core3RLE14prev_code_size17h5928b8449181384dE.exit177.i, %bb66.i, %bb54.i
  %rle.sroa.0.2.i = phi i32 [ 0, %_ZN11miniz_oxide7deflate4core3RLE14zero_code_size17h858669b2efca0a68E.exit218.i ], [ %58, %bb33.i ], [ 0, %_ZN11miniz_oxide7deflate4core3RLE14prev_code_size17h5928b8449181384dE.exit177.i ], [ 0, %bb54.i ], [ 0, %bb66.i ]
  %rle.sroa.12.4.i = phi i32 [ 0, %_ZN11miniz_oxide7deflate4core3RLE14zero_code_size17h858669b2efca0a68E.exit218.i ], [ 0, %bb33.i ], [ 0, %_ZN11miniz_oxide7deflate4core3RLE14prev_code_size17h5928b8449181384dE.exit177.i ], [ %42, %bb54.i ], [ 0, %bb66.i ]
  %packed_pos.9.i = phi i64 [ %_9.i.i6.i197.i, %_ZN11miniz_oxide7deflate4core3RLE14zero_code_size17h858669b2efca0a68E.exit218.i ], [ %packed_pos.2.ph.i, %bb33.i ], [ %_9.i.i.i149.i, %_ZN11miniz_oxide7deflate4core3RLE14prev_code_size17h5928b8449181384dE.exit177.i ], [ %packed_pos.3.ph.i, %bb54.i ], [ %_9.i.i, %bb66.i ]
  %_12.i.i = icmp eq i8* %20, %15
  br i1 %_12.i.i, label %bb29.i, label %"_ZN91_$LT$core..slice..iter..Iter$LT$T$GT$$u20$as$u20$core..iter..traits..iterator..Iterator$GT$4next17h5efc847fe07af0a1E.exit.i"

bb33.i:                                           ; preds = %bb18.i.i, %bb9.i.i, %bb30.i
  %packed_pos.2.ph.i = phi i64 [ %_9.i.i.i89.i, %bb18.i.i ], [ %_9.i.i7.i.i, %bb9.i.i ], [ %packed_pos.0595.i, %bb30.i ]
  %58 = add i32 %rle.sroa.0.0592.i, 1
  %59 = icmp eq i32 %58, 138
  br i1 %59, label %bb21.i201.i, label %bb80.i

bb21.i201.i:                                      ; preds = %bb33.i
  call void @llvm.experimental.noalias.scope.decl(metadata !281)
  call void @llvm.experimental.noalias.scope.decl(metadata !284)
  %_58.i195.i = load i16, i16* %16, align 2, !alias.scope !286, !noalias !287
  %60 = add i16 %_58.i195.i, 1
  store i16 %60, i16* %16, align 2, !alias.scope !286, !noalias !287
  %_9.i.i6.i197.i = add i64 %packed_pos.2.ph.i, 2
  %_4.i.i.i.i7.i198.i = icmp ugt i64 %packed_pos.2.ph.i, -3
  %_7.i.i.i.i8.i199.i = icmp ugt i64 %_9.i.i6.i197.i, 320
  %_3.0.i.i.i.i9.i200.i = or i1 %_4.i.i.i.i7.i198.i, %_7.i.i.i.i8.i199.i
  br i1 %_3.0.i.i.i.i9.i200.i, label %bb8, label %_ZN11miniz_oxide7deflate4core3RLE14zero_code_size17h858669b2efca0a68E.exit218.i

_ZN11miniz_oxide7deflate4core3RLE14zero_code_size17h858669b2efca0a68E.exit218.i: ; preds = %bb21.i201.i
  %61 = getelementptr inbounds [320 x i8], [320 x i8]* %packed_code_sizes.i, i64 0, i64 %packed_pos.2.ph.i
  %62 = bitcast i8* %61 to i16*
  store i16 32530, i16* %62, align 1, !alias.scope !281, !noalias !290
  br label %bb80.i

bb82.i:                                           ; preds = %bb29.i
  call void @llvm.experimental.noalias.scope.decl(metadata !291)
  call void @llvm.experimental.noalias.scope.decl(metadata !294)
  %63 = icmp eq i32 %rle.sroa.0.2.i, 0
  br i1 %63, label %bb95.i, label %bb1.i221.i

bb1.i221.i:                                       ; preds = %bb82.i
  %_11.i220.i = icmp ult i32 %rle.sroa.0.2.i, 3
  br i1 %_11.i220.i, label %bb2.i232.i, label %bb11.i223.i

bb11.i223.i:                                      ; preds = %bb1.i221.i
  %_34.i222.i = icmp ult i32 %rle.sroa.0.2.i, 11
  br i1 %_34.i222.i, label %bb12.i249.i, label %bb21.i242.i

bb2.i232.i:                                       ; preds = %bb1.i221.i
  %_14.i224.i = load i16, i16* %18, align 2, !alias.scope !296, !noalias !297
  %_16.i225.i = trunc i32 %rle.sroa.0.2.i to i16
  %64 = add i16 %_14.i224.i, %_16.i225.i
  store i16 %64, i16* %18, align 2, !alias.scope !296, !noalias !297
  %_28.i226.i = zext i32 %rle.sroa.0.2.i to i64
  %_9.i.i.i228.i = add i64 %packed_pos.9.i, %_28.i226.i
  %_4.i.i.i.i.i229.i = icmp ult i64 %_9.i.i.i228.i, %packed_pos.9.i
  %_7.i.i.i.i.i230.i = icmp ugt i64 %_9.i.i.i228.i, 320
  %_3.0.i.i.i.i.i231.i = or i1 %_4.i.i.i.i.i229.i, %_7.i.i.i.i.i230.i
  br i1 %_3.0.i.i.i.i.i231.i, label %bb8, label %"_ZN11miniz_oxide7deflate4core3RLE14zero_code_size28_$u7b$$u7b$closure$u7d$$u7d$17he5463bf7204cbfe5E.exit.i233.i"

"_ZN11miniz_oxide7deflate4core3RLE14zero_code_size28_$u7b$$u7b$closure$u7d$$u7d$17he5463bf7204cbfe5E.exit.i233.i": ; preds = %bb2.i232.i
  %65 = getelementptr inbounds [320 x i8], [320 x i8]* %packed_code_sizes.i, i64 0, i64 %packed_pos.9.i
  call void @llvm.memset.p0i8.i64(i8* nonnull align 1 %65, i8 0, i64 %_28.i226.i, i1 false), !alias.scope !291, !noalias !300
  br label %bb95.i

bb21.i242.i:                                      ; preds = %bb11.i223.i
  %_58.i236.i = load i16, i16* %16, align 2, !alias.scope !296, !noalias !297
  %66 = add i16 %_58.i236.i, 1
  store i16 %66, i16* %16, align 2, !alias.scope !296, !noalias !297
  %_9.i.i6.i238.i = add i64 %packed_pos.9.i, 2
  %_4.i.i.i.i7.i239.i = icmp ugt i64 %packed_pos.9.i, -3
  %_7.i.i.i.i8.i240.i = icmp ugt i64 %_9.i.i6.i238.i, 320
  %_3.0.i.i.i.i9.i241.i = or i1 %_4.i.i.i.i7.i239.i, %_7.i.i.i.i8.i240.i
  br i1 %_3.0.i.i.i.i9.i241.i, label %bb8, label %bb26.i257.i

bb12.i249.i:                                      ; preds = %bb11.i223.i
  %_37.i243.i = load i16, i16* %17, align 2, !alias.scope !296, !noalias !297
  %67 = add i16 %_37.i243.i, 1
  store i16 %67, i16* %17, align 2, !alias.scope !296, !noalias !297
  %_9.i.i18.i245.i = add i64 %packed_pos.9.i, 2
  %_4.i.i.i.i19.i246.i = icmp ugt i64 %packed_pos.9.i, -3
  %_7.i.i.i.i20.i247.i = icmp ugt i64 %_9.i.i18.i245.i, 320
  %_3.0.i.i.i.i21.i248.i = or i1 %_4.i.i.i.i19.i246.i, %_7.i.i.i.i20.i247.i
  br i1 %_3.0.i.i.i.i21.i248.i, label %bb8, label %bb17.i253.i

bb17.i253.i:                                      ; preds = %bb12.i249.i
  %68 = trunc i32 %rle.sroa.0.2.i to i16
  %69 = getelementptr inbounds [320 x i8], [320 x i8]* %packed_code_sizes.i, i64 0, i64 %packed_pos.9.i
  %70 = bitcast i8* %69 to i16*
  %_49.i250.i = shl nuw nsw i16 %68, 8
  %_48.sroa.0.0.insert.insert.i252.i = add nsw i16 %_49.i250.i, -751
  store i16 %_48.sroa.0.0.insert.insert.i252.i, i16* %70, align 1, !alias.scope !291, !noalias !300
  br label %bb95.i

bb26.i257.i:                                      ; preds = %bb21.i242.i
  %71 = trunc i32 %rle.sroa.0.2.i to i16
  %72 = getelementptr inbounds [320 x i8], [320 x i8]* %packed_code_sizes.i, i64 0, i64 %packed_pos.9.i
  %73 = bitcast i8* %72 to i16*
  %_70.i254.i = shl i16 %71, 8
  %_69.sroa.0.0.insert.insert.i256.i = add i16 %_70.i254.i, -2798
  store i16 %_69.sroa.0.0.insert.insert.i256.i, i16* %73, align 1, !alias.scope !291, !noalias !300
  br label %bb95.i

bb1.i263.i:                                       ; preds = %bb29.i
  call void @llvm.experimental.noalias.scope.decl(metadata !301)
  call void @llvm.experimental.noalias.scope.decl(metadata !304)
  %_11.i262.i = icmp ult i32 %rle.sroa.12.4.i, 3
  br i1 %_11.i262.i, label %bb2.i284.i, label %bb13.i270.i

bb13.i270.i:                                      ; preds = %bb1.i263.i
  %_46.i264.i = load i16, i16* %19, align 2, !alias.scope !306, !noalias !307
  %74 = add i16 %_46.i264.i, 1
  store i16 %74, i16* %19, align 2, !alias.scope !306, !noalias !307
  %_9.i.i.i266.i = add i64 %packed_pos.9.i, 2
  %_4.i.i.i.i.i267.i = icmp ugt i64 %packed_pos.9.i, -3
  %_7.i.i.i.i.i268.i = icmp ugt i64 %_9.i.i.i266.i, 320
  %_3.0.i.i.i.i.i269.i = or i1 %_4.i.i.i.i.i267.i, %_7.i.i.i.i.i268.i
  br i1 %_3.0.i.i.i.i.i269.i, label %bb8, label %bb18.i291.i

bb2.i284.i:                                       ; preds = %bb1.i263.i
  %_15.i272.i = zext i8 %code_size.i to i64
  %75 = getelementptr inbounds %"deflate::core::HuffmanOxide", %"deflate::core::HuffmanOxide"* %huff, i64 0, i32 0, i64 2, i64 %_15.i272.i
  %_14.i273.i = load i16, i16* %75, align 2, !alias.scope !306, !noalias !307
  %_19.i274.i = trunc i32 %rle.sroa.12.4.i to i16
  %76 = add i16 %_14.i273.i, %_19.i274.i
  store i16 %76, i16* %75, align 2, !alias.scope !306, !noalias !307
  %_34.i260.i.0.sroa_idx217 = getelementptr inbounds [3 x i8], [3 x i8]* %_34.i260.i, i64 0, i64 0
  call void @llvm.lifetime.start.p0i8(i64 3, i8* nonnull %_34.i260.i.0.sroa_idx217)
  store i8 %code_size.i, i8* %_34.i260.i.0.sroa_idx217, align 1, !noalias !310
  %_34.i260.i.1.sroa_idx220 = getelementptr inbounds [3 x i8], [3 x i8]* %_34.i260.i, i64 0, i64 1
  store i8 %code_size.i, i8* %_34.i260.i.1.sroa_idx220, align 1, !noalias !310
  %_34.i260.i.2.sroa_idx221 = getelementptr inbounds [3 x i8], [3 x i8]* %_34.i260.i, i64 0, i64 2
  store i8 %code_size.i, i8* %_34.i260.i.2.sroa_idx221, align 1, !noalias !310
  %_39.i278.i = zext i32 %rle.sroa.12.4.i to i64
  %_9.i.i7.i280.i = add i64 %packed_pos.9.i, %_39.i278.i
  %_4.i.i.i.i8.i281.i = icmp ult i64 %_9.i.i7.i280.i, %packed_pos.9.i
  %_7.i.i.i.i9.i282.i = icmp ugt i64 %_9.i.i7.i280.i, 320
  %_3.0.i.i.i.i10.i283.i = or i1 %_4.i.i.i.i8.i281.i, %_7.i.i.i.i9.i282.i
  br i1 %_3.0.i.i.i.i10.i283.i, label %bb11.i286.i, label %bb9.i285.i

bb9.i285.i:                                       ; preds = %bb2.i284.i
  %77 = getelementptr inbounds [320 x i8], [320 x i8]* %packed_code_sizes.i, i64 0, i64 %packed_pos.9.i
  call void @llvm.memcpy.p0i8.p0i8.i64(i8* nonnull align 1 %77, i8* nonnull align 1 %_34.i260.i.0.sroa_idx217, i64 %_39.i278.i, i1 false) #24, !alias.scope !311, !noalias !318
  call void @llvm.lifetime.end.p0i8(i64 3, i8* nonnull %_34.i260.i.0.sroa_idx217)
  br label %bb95.i

bb11.i286.i:                                      ; preds = %bb2.i284.i
  call void @llvm.lifetime.end.p0i8(i64 3, i8* nonnull %_34.i260.i.0.sroa_idx217)
  br label %bb8

bb18.i291.i:                                      ; preds = %bb13.i270.i
  %78 = trunc i32 %rle.sroa.12.4.i to i16
  %79 = getelementptr inbounds [320 x i8], [320 x i8]* %packed_code_sizes.i, i64 0, i64 %packed_pos.9.i
  %80 = bitcast i8* %79 to i16*
  %_58.i288.i = shl i16 %78, 8
  %_57.sroa.0.0.insert.insert.i290.i = add i16 %_58.i288.i, -752
  store i16 %_57.sroa.0.0.insert.insert.i290.i, i16* %80, align 1, !alias.scope !301, !noalias !323
  br label %bb95.i

bb95.i:                                           ; preds = %bb18.i291.i, %bb9.i285.i, %bb26.i257.i, %bb17.i253.i, %"_ZN11miniz_oxide7deflate4core3RLE14zero_code_size28_$u7b$$u7b$closure$u7d$$u7d$17he5463bf7204cbfe5E.exit.i233.i", %bb82.i
  %packed_pos.14.i = phi i64 [ %_9.i.i7.i280.i, %bb9.i285.i ], [ %_9.i.i.i266.i, %bb18.i291.i ], [ %_9.i.i6.i238.i, %bb26.i257.i ], [ %_9.i.i18.i245.i, %bb17.i253.i ], [ %_9.i.i.i228.i, %"_ZN11miniz_oxide7deflate4core3RLE14zero_code_size28_$u7b$$u7b$closure$u7d$$u7d$17he5463bf7204cbfe5E.exit.i233.i" ], [ %packed_pos.9.i, %bb82.i ]
; call miniz_oxide::deflate::core::HuffmanOxide::optimize_table
  call fastcc void @_ZN11miniz_oxide7deflate4core12HuffmanOxide14optimize_table17h097662b6d766e228E(%"deflate::core::HuffmanOxide"* noalias nonnull align 2 dereferenceable(4320) %huff, i64 2, i64 19, i64 7, i1 zeroext false), !noalias !153
  call void @llvm.experimental.noalias.scope.decl(metadata !324)
  %81 = getelementptr inbounds %"deflate::core::OutputBufferOxide", %"deflate::core::OutputBufferOxide"* %output, i64 0, i32 3
  %_12.i295.i = load i32, i32* %81, align 4, !alias.scope !327, !noalias !150
  %82 = and i32 %_12.i295.i, 31
  %_10.i296.i = shl i32 2, %82
  %83 = getelementptr inbounds %"deflate::core::OutputBufferOxide", %"deflate::core::OutputBufferOxide"* %output, i64 0, i32 2
  %84 = load i32, i32* %83, align 8, !alias.scope !327, !noalias !150
  %85 = or i32 %_10.i296.i, %84
  store i32 %85, i32* %83, align 8, !alias.scope !327, !noalias !150
  %86 = add i32 %_12.i295.i, 2
  %87 = getelementptr inbounds %"deflate::core::OutputBufferOxide", %"deflate::core::OutputBufferOxide"* %output, i64 0, i32 1
  %88 = getelementptr inbounds %"deflate::core::OutputBufferOxide", %"deflate::core::OutputBufferOxide"* %output, i64 0, i32 0, i32 1
  %_18.i.i = load i64, i64* %88, align 8, !alias.scope !327, !noalias !150
  %89 = getelementptr inbounds %"deflate::core::OutputBufferOxide", %"deflate::core::OutputBufferOxide"* %output, i64 0, i32 0, i32 0
  %90 = load [0 x i8]*, [0 x i8]** %89, align 8, !alias.scope !327, !noalias !150
  %_142.i.i = icmp ugt i32 %86, 7
  br i1 %_142.i.i, label %bb4.preheader.i298.i, label %bb2.i307.i

bb4.preheader.i298.i:                             ; preds = %bb95.i
  %_17.pre.i.i = load i64, i64* %87, align 8, !alias.scope !327, !noalias !150
  %umax.i = call i64 @llvm.umax.i64(i64 %_18.i.i, i64 %_17.pre.i.i)
  br label %bb4.i301.i

bb4.i301.i:                                       ; preds = %bb5.i.i, %bb4.preheader.i298.i
  %_16.i299.i = phi i32 [ %94, %bb5.i.i ], [ %85, %bb4.preheader.i298.i ]
  %_17.i.i = phi i64 [ %93, %bb5.i.i ], [ %_17.pre.i.i, %bb4.preheader.i298.i ]
  %storemerge3.i.i = phi i32 [ %95, %bb5.i.i ], [ %86, %bb4.preheader.i298.i ]
  %exitcond.not.i = icmp eq i64 %_17.i.i, %umax.i
  br i1 %exitcond.not.i, label %panic.i.i, label %bb5.i.i, !prof !113

bb5.i.i:                                          ; preds = %bb4.i301.i
  %91 = getelementptr inbounds [0 x i8], [0 x i8]* %90, i64 0, i64 %_17.i.i
  %92 = trunc i32 %_16.i299.i to i8
  store i8 %92, i8* %91, align 1, !noalias !327
  %93 = add i64 %_17.i.i, 1
  store i64 %93, i64* %87, align 8, !alias.scope !327, !noalias !150
  %94 = lshr i32 %_16.i299.i, 8
  store i32 %94, i32* %83, align 8, !alias.scope !327, !noalias !150
  %95 = add i32 %storemerge3.i.i, -8
  %_14.i302.i = icmp ugt i32 %95, 7
  br i1 %_14.i302.i, label %bb4.i301.i, label %bb2.i307.i

panic.i.i:                                        ; preds = %bb4.i301.i
  store i32 %storemerge3.i.i, i32* %81, align 4, !alias.scope !327, !noalias !150
; call core::panicking::panic_bounds_check
  call void @_ZN4core9panicking18panic_bounds_check17h12b597476ba48ffaE(i64 %umax.i, i64 %_18.i.i, %"core::panic::location::Location"* noalias readonly align 8 dereferenceable(24) bitcast (<{ i8*, [16 x i8] }>* @alloc1326 to %"core::panic::location::Location"*)) #25, !noalias !327
  unreachable

bb2.i307.i:                                       ; preds = %bb5.i.i, %bb95.i
  %96 = phi i32 [ %85, %bb95.i ], [ %94, %bb5.i.i ]
  %storemerge.lcssa.i.i = phi i32 [ %86, %bb95.i ], [ %95, %bb5.i.i ]
  store i32 %storemerge.lcssa.i.i, i32* %81, align 4, !alias.scope !327, !noalias !150
  call void @llvm.experimental.noalias.scope.decl(metadata !328)
  %97 = trunc i64 %.0.i.i.i.neg.i to i32
  %_219.i = add nsw i32 %97, -257
  %_10.i304.i = shl i32 %_219.i, %storemerge.lcssa.i.i
  %98 = or i32 %_10.i304.i, %96
  store i32 %98, i32* %83, align 8, !alias.scope !331, !noalias !150
  %99 = add nuw nsw i32 %storemerge.lcssa.i.i, 5
  %_142.i306.i = icmp ugt i32 %storemerge.lcssa.i.i, 2
  br i1 %_142.i306.i, label %bb4.preheader.i309.i, label %bb2.i327.i

bb4.preheader.i309.i:                             ; preds = %bb2.i307.i
  %_17.pre.i308.i = load i64, i64* %87, align 8, !alias.scope !331, !noalias !150
  %umax642.i = call i64 @llvm.umax.i64(i64 %_18.i.i, i64 %_17.pre.i308.i)
  br label %bb4.i316.i

bb4.i316.i:                                       ; preds = %bb5.i318.i, %bb4.preheader.i309.i
  %_16.i312.i = phi i32 [ %103, %bb5.i318.i ], [ %98, %bb4.preheader.i309.i ]
  %_17.i313.i = phi i64 [ %102, %bb5.i318.i ], [ %_17.pre.i308.i, %bb4.preheader.i309.i ]
  %storemerge3.i314.i = phi i32 [ %104, %bb5.i318.i ], [ %99, %bb4.preheader.i309.i ]
  %exitcond644.not.i = icmp eq i64 %_17.i313.i, %umax642.i
  br i1 %exitcond644.not.i, label %panic.i319.i, label %bb5.i318.i, !prof !113

