; ModuleID = 'rustc_demangle.8f6d20a0-cgu.0'
source_filename = "rustc_demangle.8f6d20a0-cgu.0"
target datalayout = "e-m:e-p270:32:32-p271:32:32-p272:64:64-i64:64-f80:128-n8:16:32:64-S128"
target triple = "x86_64-unknown-linux-gnu"

%"SizeLimitedFmtAdapter<&mut core::fmt::Formatter>" = type { { i64, i64 }, %"core::fmt::Formatter"* }
%"core::fmt::Formatter" = type { { i64, i64 }, { i64, i64 }, { {}*, [3 x i64]* }, i32, i32, i8, [7 x i8] }
%"legacy::Demangle" = type { { [0 x i8]*, i64 }, i64 }
%"core::str::pattern::CharSearcher" = type { { [0 x i8]*, i64 }, i64, i64, i64, i32, [4 x i8] }
%"core::option::Option<(usize, usize)>" = type { i64, [2 x i64] }
%"core::panic::location::Location" = type { { [0 x i8]*, i64 }, i32, i32 }
%"v0::Printer" = type { %"core::result::Result<v0::Parser, v0::ParseError>", i64*, i32, [1 x i32] }
%"core::result::Result<v0::Parser, v0::ParseError>" = type { i8, [39 x i8] }
%"v0::Ident" = type { { [0 x i8]*, i64 }, { [0 x i8]*, i64 } }
%"core::str::pattern::SearchStep" = type { i64, [2 x i64] }
%"core::str::pattern::StrSearcher" = type { { [0 x i8]*, i64 }, { [0 x i8]*, i64 }, %"core::str::pattern::StrSearcherImpl" }
%"core::str::pattern::StrSearcherImpl" = type { i64, [8 x i64] }
%"core::result::Result<v0::HexNibbles, v0::ParseError>" = type { i8, [23 x i8] }
%"v0::Parser" = type { { [0 x i8]*, i64 }, i64, i32, [1 x i32] }
%"core::result::Result<v0::Ident, v0::ParseError>" = type { i8, [39 x i8] }
%"core::fmt::Error" = type {}
%"core::char::EscapeDebug" = type { %"core::char::EscapeDefault" }
%"core::char::EscapeDefault" = type { %"core::char::EscapeDefaultState" }
%"core::char::EscapeDefaultState" = type { i32, [5 x i32] }
%"core::result::Result<v0::Ident, v0::ParseError>::Ok" = type { [1 x i64], %"v0::Ident" }
%"core::str::iter::Split<char>" = type { %"core::str::iter::SplitInternal<char>" }
%"core::str::iter::SplitInternal<char>" = type { i64, i64, %"core::str::pattern::CharSearcher", i8, i8, [6 x i8] }
%"core::result::Result<v0::HexNibbles, v0::ParseError>::Ok" = type { [1 x i64], { i8*, i64 } }
%"core::iter::adapters::map::Map<core::iter::sources::from_fn::FromFn<[closure@/home/alwagner/.cargo/registry/src/github.com-1ecc6299db9ec823/rustc-demangle-0.1.21/src/v0.rs:312:35: 357:10]>, fn(core::result::Result<char, ()>) -> char {core::result::Result::<char, ()>::unwrap}>" = type { {}, %"core::iter::sources::from_fn::FromFn<[closure@/home/alwagner/.cargo/registry/src/github.com-1ecc6299db9ec823/rustc-demangle-0.1.21/src/v0.rs:312:35: 357:10]>" }
%"core::iter::sources::from_fn::FromFn<[closure@/home/alwagner/.cargo/registry/src/github.com-1ecc6299db9ec823/rustc-demangle-0.1.21/src/v0.rs:312:35: 357:10]>" = type { %"[closure@/home/alwagner/.cargo/registry/src/github.com-1ecc6299db9ec823/rustc-demangle-0.1.21/src/v0.rs:312:35: 357:10]" }
%"[closure@/home/alwagner/.cargo/registry/src/github.com-1ecc6299db9ec823/rustc-demangle-0.1.21/src/v0.rs:312:35: 357:10]" = type { %"core::iter::adapters::map::Map<core::iter::adapters::map::Map<core::slice::iter::ChunksExact<u8>, [closure@/home/alwagner/.cargo/registry/src/github.com-1ecc6299db9ec823/rustc-demangle-0.1.21/src/v0.rs:303:18: 306:14]>, [closure@/home/alwagner/.cargo/registry/src/github.com-1ecc6299db9ec823/rustc-demangle-0.1.21/src/v0.rs:307:18: 310:14]>" }
%"core::iter::adapters::map::Map<core::iter::adapters::map::Map<core::slice::iter::ChunksExact<u8>, [closure@/home/alwagner/.cargo/registry/src/github.com-1ecc6299db9ec823/rustc-demangle-0.1.21/src/v0.rs:303:18: 306:14]>, [closure@/home/alwagner/.cargo/registry/src/github.com-1ecc6299db9ec823/rustc-demangle-0.1.21/src/v0.rs:307:18: 310:14]>" = type { %"[closure@/home/alwagner/.cargo/registry/src/github.com-1ecc6299db9ec823/rustc-demangle-0.1.21/src/v0.rs:307:18: 310:14]", %"core::iter::adapters::map::Map<core::slice::iter::ChunksExact<u8>, [closure@/home/alwagner/.cargo/registry/src/github.com-1ecc6299db9ec823/rustc-demangle-0.1.21/src/v0.rs:303:18: 306:14]>" }
%"[closure@/home/alwagner/.cargo/registry/src/github.com-1ecc6299db9ec823/rustc-demangle-0.1.21/src/v0.rs:307:18: 310:14]" = type {}
%"core::iter::adapters::map::Map<core::slice::iter::ChunksExact<u8>, [closure@/home/alwagner/.cargo/registry/src/github.com-1ecc6299db9ec823/rustc-demangle-0.1.21/src/v0.rs:303:18: 306:14]>" = type { %"[closure@/home/alwagner/.cargo/registry/src/github.com-1ecc6299db9ec823/rustc-demangle-0.1.21/src/v0.rs:303:18: 306:14]", %"core::slice::iter::ChunksExact<u8>" }
%"[closure@/home/alwagner/.cargo/registry/src/github.com-1ecc6299db9ec823/rustc-demangle-0.1.21/src/v0.rs:303:18: 306:14]" = type {}
%"core::slice::iter::ChunksExact<u8>" = type { { [0 x i8]*, i64 }, { [0 x i8]*, i64 }, i64 }
%Demangle = type { %"core::option::Option<DemangleStyle>", { [0 x i8]*, i64 }, { [0 x i8]*, i64 } }
%"core::option::Option<DemangleStyle>" = type { i64, [3 x i64] }
%"core::result::Result<Demangle, TryDemangleError>" = type { i64, [7 x i64] }
%DemangleStyle = type { i64, [3 x i64] }
%SizeLimitExhausted = type {}
%"core::fmt::Arguments" = type { { [0 x { [0 x i8]*, i64 }]*, i64 }, { i64*, i64 }, { [0 x { i8*, i64* }]*, i64 } }
%TryDemangleError = type { {} }
%"core::fmt::builders::DebugStruct" = type { %"core::fmt::Formatter"*, i8, i8, [6 x i8] }
%"core::result::Result<&str, core::str::error::Utf8Error>" = type { i64, [2 x i64] }
%"core::str::pattern::EmptyNeedle" = type { i64, i64, i8, i8, i8, [5 x i8] }
%"core::fmt::builders::DebugList" = type { %"core::fmt::builders::DebugInner" }
%"core::fmt::builders::DebugInner" = type { %"core::fmt::Formatter"*, i8, i8, [6 x i8] }

@alloc729 = private unnamed_addr constant <{ [120 x i8] }> <{ [120 x i8] c"/home/alwagner/.rustup/toolchains/nightly-x86_64-unknown-linux-gnu/lib/rustlib/src/rust/library/core/src/ops/function.rs" }>, align 1
@alloc730 = private unnamed_addr constant <{ i8*, [16 x i8] }> <{ i8* getelementptr inbounds (<{ [120 x i8] }>, <{ [120 x i8] }>* @alloc729, i32 0, i32 0, i32 0), [16 x i8] c"x\00\00\00\00\00\00\00\96\00\00\00\05\00\00\00" }>, align 8
@alloc731 = private unnamed_addr constant <{ [3 x i8] }> <{ [3 x i8] c"_ZN" }>, align 1
@alloc814 = private unnamed_addr constant <{ [98 x i8] }> <{ [98 x i8] c"/home/alwagner/.cargo/registry/src/github.com-1ecc6299db9ec823/rustc-demangle-0.1.21/src/legacy.rs" }>, align 1
@alloc733 = private unnamed_addr constant <{ i8*, [16 x i8] }> <{ i8* getelementptr inbounds (<{ [98 x i8] }>, <{ [98 x i8] }>* @alloc814, i32 0, i32 0, i32 0), [16 x i8] c"b\00\00\00\00\00\00\006\00\00\00\0A\00\00\00" }>, align 8
@alloc734 = private unnamed_addr constant <{ [2 x i8] }> <{ [2 x i8] c"ZN" }>, align 1
@alloc736 = private unnamed_addr constant <{ i8*, [16 x i8] }> <{ i8* getelementptr inbounds (<{ [98 x i8] }>, <{ [98 x i8] }>* @alloc814, i32 0, i32 0, i32 0), [16 x i8] c"b\00\00\00\00\00\00\00:\00\00\00\0A\00\00\00" }>, align 8
@alloc737 = private unnamed_addr constant <{ [4 x i8] }> <{ [4 x i8] c"__ZN" }>, align 1
@alloc739 = private unnamed_addr constant <{ i8*, [16 x i8] }> <{ i8* getelementptr inbounds (<{ [98 x i8] }>, <{ [98 x i8] }>* @alloc814, i32 0, i32 0, i32 0), [16 x i8] c"b\00\00\00\00\00\00\00=\00\00\00\0A\00\00\00" }>, align 8
@alloc749 = private unnamed_addr constant <{ i8*, [16 x i8] }> <{ i8* getelementptr inbounds (<{ [98 x i8] }>, <{ [98 x i8] }>* @alloc814, i32 0, i32 0, i32 0), [16 x i8] c"b\00\00\00\00\00\00\00f\00\00\00\1B\00\00\00" }>, align 8
@alloc751 = private unnamed_addr constant <{ i8*, [16 x i8] }> <{ i8* getelementptr inbounds (<{ [98 x i8] }>, <{ [98 x i8] }>* @alloc814, i32 0, i32 0, i32 0), [16 x i8] c"b\00\00\00\00\00\00\00o\00\00\00'\00\00\00" }>, align 8
@alloc753 = private unnamed_addr constant <{ i8*, [16 x i8] }> <{ i8* getelementptr inbounds (<{ [98 x i8] }>, <{ [98 x i8] }>* @alloc814, i32 0, i32 0, i32 0), [16 x i8] c"b\00\00\00\00\00\00\00p\00\00\00\19\00\00\00" }>, align 8
@alloc755 = private unnamed_addr constant <{ i8*, [16 x i8] }> <{ i8* getelementptr inbounds (<{ [98 x i8] }>, <{ [98 x i8] }>* @alloc814, i32 0, i32 0, i32 0), [16 x i8] c"b\00\00\00\00\00\00\00r\00\00\00\1C\00\00\00" }>, align 8
@alloc757 = private unnamed_addr constant <{ i8*, [16 x i8] }> <{ i8* getelementptr inbounds (<{ [98 x i8] }>, <{ [98 x i8] }>* @alloc814, i32 0, i32 0, i32 0), [16 x i8] c"b\00\00\00\00\00\00\00r\00\00\00H\00\00\00" }>, align 8
@alloc759 = private unnamed_addr constant <{ i8*, [16 x i8] }> <{ i8* getelementptr inbounds (<{ [98 x i8] }>, <{ [98 x i8] }>* @alloc814, i32 0, i32 0, i32 0), [16 x i8] c"b\00\00\00\00\00\00\00s\00\00\00\16\00\00\00" }>, align 8
@alloc761 = private unnamed_addr constant <{ i8*, [16 x i8] }> <{ i8* getelementptr inbounds (<{ [98 x i8] }>, <{ [98 x i8] }>* @alloc814, i32 0, i32 0, i32 0), [16 x i8] c"b\00\00\00\00\00\00\00t\00\00\00\15\00\00\00" }>, align 8
@alloc1091 = private unnamed_addr constant <{ [2 x i8] }> <{ [2 x i8] c"::" }>, align 1
@alloc765 = private unnamed_addr constant <{ [2 x i8] }> <{ [2 x i8] c"_$" }>, align 1
@alloc767 = private unnamed_addr constant <{ i8*, [16 x i8] }> <{ i8* getelementptr inbounds (<{ [98 x i8] }>, <{ [98 x i8] }>* @alloc814, i32 0, i32 0, i32 0), [16 x i8] c"b\00\00\00\00\00\00\00~\00\00\00\19\00\00\00" }>, align 8
@alloc769 = private unnamed_addr constant <{ i8*, [16 x i8] }> <{ i8* getelementptr inbounds (<{ [98 x i8] }>, <{ [98 x i8] }>* @alloc814, i32 0, i32 0, i32 0), [16 x i8] c"b\00\00\00\00\00\00\00\82\00\00\00(\00\00\00" }>, align 8
@alloc770 = private unnamed_addr constant <{ [1 x i8] }> <{ [1 x i8] c"." }>, align 1
@alloc774 = private unnamed_addr constant <{ i8*, [16 x i8] }> <{ i8* getelementptr inbounds (<{ [98 x i8] }>, <{ [98 x i8] }>* @alloc814, i32 0, i32 0, i32 0), [16 x i8] c"b\00\00\00\00\00\00\00\87\00\00\00!\00\00\00" }>, align 8
@alloc779 = private unnamed_addr constant <{ i8*, [16 x i8] }> <{ i8* getelementptr inbounds (<{ [98 x i8] }>, <{ [98 x i8] }>* @alloc814, i32 0, i32 0, i32 0), [16 x i8] c"b\00\00\00\00\00\00\00\84\00\00\00!\00\00\00" }>, align 8
@alloc781 = private unnamed_addr constant <{ i8*, [16 x i8] }> <{ i8* getelementptr inbounds (<{ [98 x i8] }>, <{ [98 x i8] }>* @alloc814, i32 0, i32 0, i32 0), [16 x i8] c"b\00\00\00\00\00\00\00\8A\00\00\00E\00\00\00" }>, align 8
@alloc783 = private unnamed_addr constant <{ i8*, [16 x i8] }> <{ i8* getelementptr inbounds (<{ [98 x i8] }>, <{ [98 x i8] }>* @alloc814, i32 0, i32 0, i32 0), [16 x i8] c"b\00\00\00\00\00\00\00\8B\00\00\00\1B\00\00\00" }>, align 8
@alloc785 = private unnamed_addr constant <{ i8*, [16 x i8] }> <{ i8* getelementptr inbounds (<{ [98 x i8] }>, <{ [98 x i8] }>* @alloc814, i32 0, i32 0, i32 0), [16 x i8] c"b\00\00\00\00\00\00\00\8B\00\00\00+\00\00\00" }>, align 8
@alloc786 = private unnamed_addr constant <{ [2 x i8] }> <{ [2 x i8] c"SP" }>, align 1
@alloc787 = private unnamed_addr constant <{ [1 x i8] }> <{ [1 x i8] c"@" }>, align 1
@alloc788 = private unnamed_addr constant <{ [2 x i8] }> <{ [2 x i8] c"BP" }>, align 1
@alloc1346 = private unnamed_addr constant <{ [1 x i8] }> <{ [1 x i8] c"*" }>, align 1
@alloc790 = private unnamed_addr constant <{ [2 x i8] }> <{ [2 x i8] c"RF" }>, align 1
@alloc1336 = private unnamed_addr constant <{ [1 x i8] }> <{ [1 x i8] c"&" }>, align 1
@alloc792 = private unnamed_addr constant <{ [2 x i8] }> <{ [2 x i8] c"LT" }>, align 1
@alloc1251 = private unnamed_addr constant <{ [1 x i8] }> <{ [1 x i8] c"<" }>, align 1
@alloc794 = private unnamed_addr constant <{ [2 x i8] }> <{ [2 x i8] c"GT" }>, align 1
@alloc1267 = private unnamed_addr constant <{ [1 x i8] }> <{ [1 x i8] c">" }>, align 1
@alloc796 = private unnamed_addr constant <{ [2 x i8] }> <{ [2 x i8] c"LP" }>, align 1
@alloc1309 = private unnamed_addr constant <{ [1 x i8] }> <{ [1 x i8] c"(" }>, align 1
@alloc798 = private unnamed_addr constant <{ [2 x i8] }> <{ [2 x i8] c"RP" }>, align 1
@alloc1318 = private unnamed_addr constant <{ [1 x i8] }> <{ [1 x i8] c")" }>, align 1
@alloc1194 = private unnamed_addr constant <{ [1 x i8] }> <{ [1 x i8] c"C" }>, align 1
@alloc1315 = private unnamed_addr constant <{ [1 x i8] }> <{ [1 x i8] c"," }>, align 1
@alloc805 = private unnamed_addr constant <{ i8*, [16 x i8] }> <{ i8* getelementptr inbounds (<{ [98 x i8] }>, <{ [98 x i8] }>* @alloc814, i32 0, i32 0, i32 0), [16 x i8] c"b\00\00\00\00\00\00\00\9D\00\00\00/\00\00\00" }>, align 8
@alloc811 = private unnamed_addr constant <{ i8*, [16 x i8] }> <{ i8* getelementptr inbounds (<{ [98 x i8] }>, <{ [98 x i8] }>* @alloc814, i32 0, i32 0, i32 0), [16 x i8] c"b\00\00\00\00\00\00\00\B4\00\00\00\22\00\00\00" }>, align 8
@alloc815 = private unnamed_addr constant <{ i8*, [16 x i8] }> <{ i8* getelementptr inbounds (<{ [98 x i8] }>, <{ [98 x i8] }>* @alloc814, i32 0, i32 0, i32 0), [16 x i8] c"b\00\00\00\00\00\00\00\B5\00\00\00\1D\00\00\00" }>, align 8
@alloc816 = private unnamed_addr constant <{ [2 x i8] }> <{ [2 x i8] c"_R" }>, align 1
@alloc1411 = private unnamed_addr constant <{ [94 x i8] }> <{ [94 x i8] c"/home/alwagner/.cargo/registry/src/github.com-1ecc6299db9ec823/rustc-demangle-0.1.21/src/v0.rs" }>, align 1
@alloc818 = private unnamed_addr constant <{ i8*, [16 x i8] }> <{ i8* getelementptr inbounds (<{ [94 x i8] }>, <{ [94 x i8] }>* @alloc1411, i32 0, i32 0, i32 0), [16 x i8] c"^\00\00\00\00\00\00\00+\00\00\00\12\00\00\00" }>, align 8
@alloc820 = private unnamed_addr constant <{ i8*, [16 x i8] }> <{ i8* getelementptr inbounds (<{ [94 x i8] }>, <{ [94 x i8] }>* @alloc1411, i32 0, i32 0, i32 0), [16 x i8] c"^\00\00\00\00\00\00\00/\00\00\00\12\00\00\00" }>, align 8
@alloc821 = private unnamed_addr constant <{ [3 x i8] }> <{ [3 x i8] c"__R" }>, align 1
@alloc823 = private unnamed_addr constant <{ i8*, [16 x i8] }> <{ i8* getelementptr inbounds (<{ [94 x i8] }>, <{ [94 x i8] }>* @alloc1411, i32 0, i32 0, i32 0), [16 x i8] c"^\00\00\00\00\00\00\002\00\00\00\12\00\00\00" }>, align 8
@alloc831 = private unnamed_addr constant <{ i8*, [16 x i8] }> <{ i8* getelementptr inbounds (<{ [94 x i8] }>, <{ [94 x i8] }>* @alloc1411, i32 0, i32 0, i32 0), [16 x i8] c"^\00\00\00\00\00\00\00Z\00\00\00\1E\00\00\00" }>, align 8
@alloc963 = private unnamed_addr constant <{ [61 x i8] }> <{ [61 x i8] c"`fmt::Error`s should be impossible without a `fmt::Formatter`" }>, align 1
@alloc834 = private unnamed_addr constant <{ i8*, [16 x i8] }> <{ i8* getelementptr inbounds (<{ [94 x i8] }>, <{ [94 x i8] }>* @alloc1411, i32 0, i32 0, i32 0), [16 x i8] c"^\00\00\00\00\00\00\00K\00\00\00\0E\00\00\00" }>, align 8
@alloc840 = private unnamed_addr constant <{ i8*, [16 x i8] }> <{ i8* getelementptr inbounds (<{ [94 x i8] }>, <{ [94 x i8] }>* @alloc1411, i32 0, i32 0, i32 0), [16 x i8] c"^\00\00\00\00\00\00\00\85\00\00\00\1A\00\00\00" }>, align 8
@alloc844 = private unnamed_addr constant <{ i8*, [16 x i8] }> <{ i8* getelementptr inbounds (<{ [94 x i8] }>, <{ [94 x i8] }>* @alloc1411, i32 0, i32 0, i32 0), [16 x i8] c"^\00\00\00\00\00\00\00\8A\00\00\00\0D\00\00\00" }>, align 8
@alloc873 = private unnamed_addr constant <{ [9 x i8] }> <{ [9 x i8] c"punycode{" }>, align 1
@alloc1369 = private unnamed_addr constant <{ [1 x i8] }> <{ [1 x i8] c"-" }>, align 1
@alloc1379 = private unnamed_addr constant <{ [1 x i8] }> <{ [1 x i8] c"}" }>, align 1
@alloc884 = private unnamed_addr constant <{ [1 x i8] }> <{ [1 x i8] c"0" }>, align 1
@alloc886 = private unnamed_addr constant <{ i8*, [16 x i8] }> <{ i8* getelementptr inbounds (<{ [94 x i8] }>, <{ [94 x i8] }>* @alloc1411, i32 0, i32 0, i32 0), [16 x i8] c"^\00\00\00\00\00\00\00\1E\01\00\001\00\00\00" }>, align 8
@alloc887 = private unnamed_addr constant <{ [40 x i8] }> <{ [40 x i8] c"internal error: entered unreachable code" }>, align 1
@alloc889 = private unnamed_addr constant <{ i8*, [16 x i8] }> <{ i8* getelementptr inbounds (<{ [94 x i8] }>, <{ [94 x i8] }>* @alloc1411, i32 0, i32 0, i32 0), [16 x i8] c"^\00\00\00\00\00\00\001\01\00\00\16\00\00\00" }>, align 8
@alloc891 = private unnamed_addr constant <{ i8*, [16 x i8] }> <{ i8* getelementptr inbounds (<{ [94 x i8] }>, <{ [94 x i8] }>* @alloc1411, i32 0, i32 0, i32 0), [16 x i8] c"^\00\00\00\00\00\00\004\01\00\00G\00\00\00" }>, align 8
@alloc899 = private unnamed_addr constant <{ i8*, [16 x i8] }> <{ i8* getelementptr inbounds (<{ [94 x i8] }>, <{ [94 x i8] }>* @alloc1411, i32 0, i32 0, i32 0), [16 x i8] c"^\00\00\00\00\00\00\00Q\01\00\00\15\00\00\00" }>, align 8
@alloc567 = private unnamed_addr constant <{ [57 x i8] }> <{ [57 x i8] c"internal error: entered unreachable code: str::from_utf8(" }>, align 1
@alloc569 = private unnamed_addr constant <{ [4 x i8] }> <{ [4 x i8] c") = " }>, align 1
@alloc570 = private unnamed_addr constant <{ [34 x i8] }> <{ [34 x i8] c" was expected to have 1 char, but " }>, align 1
@alloc571 = private unnamed_addr constant <{ [17 x i8] }> <{ [17 x i8] c" chars were found" }>, align 1
@alloc568 = private unnamed_addr constant <{ i8*, [8 x i8], i8*, [8 x i8], i8*, [8 x i8], i8*, [8 x i8] }> <{ i8* getelementptr inbounds (<{ [57 x i8] }>, <{ [57 x i8] }>* @alloc567, i32 0, i32 0, i32 0), [8 x i8] c"9\00\00\00\00\00\00\00", i8* getelementptr inbounds (<{ [4 x i8] }>, <{ [4 x i8] }>* @alloc569, i32 0, i32 0, i32 0), [8 x i8] c"\04\00\00\00\00\00\00\00", i8* getelementptr inbounds (<{ [34 x i8] }>, <{ [34 x i8] }>* @alloc570, i32 0, i32 0, i32 0), [8 x i8] c"\22\00\00\00\00\00\00\00", i8* getelementptr inbounds (<{ [17 x i8] }>, <{ [17 x i8] }>* @alloc571, i32 0, i32 0, i32 0), [8 x i8] c"\11\00\00\00\00\00\00\00" }>, align 8
@alloc903 = private unnamed_addr constant <{ i8*, [16 x i8] }> <{ i8* getelementptr inbounds (<{ [94 x i8] }>, <{ [94 x i8] }>* @alloc1411, i32 0, i32 0, i32 0), [16 x i8] c"^\00\00\00\00\00\00\00\\\01\00\00\1A\00\00\00" }>, align 8
@alloc904 = private unnamed_addr constant <{ [3 x i8] }> <{ [3 x i8] c"..." }>, align 1
@alloc1376 = private unnamed_addr constant <{ [1 x i8] }> <{ [1 x i8] c"_" }>, align 1
@alloc906 = private unnamed_addr constant <{ [1 x i8] }> <{ [1 x i8] c"!" }>, align 1
@alloc907 = private unnamed_addr constant <{ [3 x i8] }> <{ [3 x i8] c"f64" }>, align 1
@alloc908 = private unnamed_addr constant <{ [3 x i8] }> <{ [3 x i8] c"f32" }>, align 1
@alloc909 = private unnamed_addr constant <{ [5 x i8] }> <{ [5 x i8] c"usize" }>, align 1
@alloc910 = private unnamed_addr constant <{ [4 x i8] }> <{ [4 x i8] c"u128" }>, align 1
@alloc911 = private unnamed_addr constant <{ [3 x i8] }> <{ [3 x i8] c"u64" }>, align 1
@alloc912 = private unnamed_addr constant <{ [3 x i8] }> <{ [3 x i8] c"u32" }>, align 1
@alloc913 = private unnamed_addr constant <{ [3 x i8] }> <{ [3 x i8] c"u16" }>, align 1
@alloc914 = private unnamed_addr constant <{ [2 x i8] }> <{ [2 x i8] c"u8" }>, align 1
@alloc915 = private unnamed_addr constant <{ [5 x i8] }> <{ [5 x i8] c"isize" }>, align 1
@alloc916 = private unnamed_addr constant <{ [4 x i8] }> <{ [4 x i8] c"i128" }>, align 1
@alloc917 = private unnamed_addr constant <{ [3 x i8] }> <{ [3 x i8] c"i64" }>, align 1
@alloc918 = private unnamed_addr constant <{ [3 x i8] }> <{ [3 x i8] c"i32" }>, align 1
@alloc919 = private unnamed_addr constant <{ [3 x i8] }> <{ [3 x i8] c"i16" }>, align 1
@alloc920 = private unnamed_addr constant <{ [2 x i8] }> <{ [2 x i8] c"i8" }>, align 1
@alloc1482 = private unnamed_addr constant <{ [2 x i8] }> <{ [2 x i8] c"()" }>, align 1
@alloc922 = private unnamed_addr constant <{ [3 x i8] }> <{ [3 x i8] c"str" }>, align 1
@alloc923 = private unnamed_addr constant <{ [4 x i8] }> <{ [4 x i8] c"char" }>, align 1
@alloc924 = private unnamed_addr constant <{ [4 x i8] }> <{ [4 x i8] c"bool" }>, align 1
@alloc930 = private unnamed_addr constant <{ i8*, [16 x i8] }> <{ i8* getelementptr inbounds (<{ [94 x i8] }>, <{ [94 x i8] }>* @alloc1411, i32 0, i32 0, i32 0), [16 x i8] c"^\00\00\00\00\00\00\00\BF\01\00\00\17\00\00\00" }>, align 8
@alloc954 = private unnamed_addr constant <{ i8*, [16 x i8] }> <{ i8* getelementptr inbounds (<{ [94 x i8] }>, <{ [94 x i8] }>* @alloc1411, i32 0, i32 0, i32 0), [16 x i8] c"^\00\00\00\00\00\00\00\1E\02\00\00\16\00\00\00" }>, align 8
@alloc956 = private unnamed_addr constant <{ i8*, [16 x i8] }> <{ i8* getelementptr inbounds (<{ [94 x i8] }>, <{ [94 x i8] }>* @alloc1411, i32 0, i32 0, i32 0), [16 x i8] c"^\00\00\00\00\00\00\00#\02\00\00\1D\00\00\00" }>, align 8
@alloc958 = private unnamed_addr constant <{ i8*, [16 x i8] }> <{ i8* getelementptr inbounds (<{ [94 x i8] }>, <{ [94 x i8] }>* @alloc1411, i32 0, i32 0, i32 0), [16 x i8] c"^\00\00\00\00\00\00\00$\02\00\00 \00\00\00" }>, align 8
@alloc701 = private unnamed_addr constant <{ [0 x i8] }> zeroinitializer, align 1
@alloc961 = private unnamed_addr constant <{ [25 x i8] }> <{ [25 x i8] c"{recursion limit reached}" }>, align 1
@alloc962 = private unnamed_addr constant <{ [16 x i8] }> <{ [16 x i8] c"{invalid syntax}" }>, align 1
@alloc965 = private unnamed_addr constant <{ i8*, [16 x i8] }> <{ i8* getelementptr inbounds (<{ [94 x i8] }>, <{ [94 x i8] }>* @alloc1411, i32 0, i32 0, i32 0), [16 x i8] c"^\00\00\00\00\00\00\00\87\02\00\00\11\00\00\00" }>, align 8
@alloc1408 = private unnamed_addr constant <{ [1 x i8] }> <{ [1 x i8] c"?" }>, align 1
@alloc982 = private unnamed_addr constant <{ [1 x i8] }> <{ [1 x i8] c"'" }>, align 1
@alloc1006 = private unnamed_addr constant <{ [4 x i8] }> <{ [4 x i8] c"for<" }>, align 1
@alloc1326 = private unnamed_addr constant <{ [2 x i8] }> <{ [2 x i8] c", " }>, align 1
@alloc1008 = private unnamed_addr constant <{ [2 x i8] }> <{ [2 x i8] c"> " }>, align 1
@alloc1045 = private unnamed_addr constant <{ [4 x i8] }> <{ [4 x i8] c" as " }>, align 1
@alloc1067 = private unnamed_addr constant <{ [3 x i8] }> <{ [3 x i8] c"::{" }>, align 1
@alloc1072 = private unnamed_addr constant <{ [4 x i8] }> <{ [4 x i8] c"shim" }>, align 1
@alloc1075 = private unnamed_addr constant <{ [7 x i8] }> <{ [7 x i8] c"closure" }>, align 1
@alloc1078 = private unnamed_addr constant <{ [1 x i8] }> <{ [1 x i8] c":" }>, align 1
@alloc1083 = private unnamed_addr constant <{ [1 x i8] }> <{ [1 x i8] c"#" }>, align 1
@alloc1323 = private unnamed_addr constant <{ [1 x i8] }> <{ [1 x i8] c"[" }>, align 1
@alloc1329 = private unnamed_addr constant <{ [1 x i8] }> <{ [1 x i8] c"]" }>, align 1
@alloc1125 = private unnamed_addr constant <{ [4 x i8] }> <{ [4 x i8] c"dyn " }>, align 1
@alloc1232 = private unnamed_addr constant <{ [3 x i8] }> <{ [3 x i8] c" + " }>, align 1
@alloc1159 = private unnamed_addr constant <{ [2 x i8] }> <{ [2 x i8] c"; " }>, align 1
@alloc1339 = private unnamed_addr constant <{ [4 x i8] }> <{ [4 x i8] c"mut " }>, align 1
@alloc1173 = private unnamed_addr constant <{ [6 x i8] }> <{ [6 x i8] c"const " }>, align 1
@alloc1186 = private unnamed_addr constant <{ [1 x i8] }> <{ [1 x i8] c" " }>, align 1
@alloc1200 = private unnamed_addr constant <{ [7 x i8] }> <{ [7 x i8] c"unsafe " }>, align 1
@alloc1203 = private unnamed_addr constant <{ [8 x i8] }> <{ [8 x i8] c"extern \22" }>, align 1
@alloc1207 = private unnamed_addr constant <{ i8*, [16 x i8] }> <{ i8* getelementptr inbounds (<{ [94 x i8] }>, <{ [94 x i8] }>* @alloc1411, i32 0, i32 0, i32 0), [16 x i8] c"^\00\00\00\00\00\00\00\D4\03\00\00-\00\00\00" }>, align 8
@alloc1215 = private unnamed_addr constant <{ [2 x i8] }> <{ [2 x i8] c"\22 " }>, align 1
@alloc1218 = private unnamed_addr constant <{ [3 x i8] }> <{ [3 x i8] c"fn(" }>, align 1
@alloc1227 = private unnamed_addr constant <{ [4 x i8] }> <{ [4 x i8] c" -> " }>, align 1
@alloc1262 = private unnamed_addr constant <{ [3 x i8] }> <{ [3 x i8] c" = " }>, align 1
@alloc1289 = private unnamed_addr constant <{ [3 x i8] }> <{ [3 x i8] c" { " }>, align 1
@alloc1295 = private unnamed_addr constant <{ [2 x i8] }> <{ [2 x i8] c" }" }>, align 1
@alloc1363 = private unnamed_addr constant <{ [4 x i8] }> <{ [4 x i8] c"true" }>, align 1
@alloc1366 = private unnamed_addr constant <{ [5 x i8] }> <{ [5 x i8] c"false" }>, align 1
@alloc1382 = private unnamed_addr constant <{ [1 x i8] }> <{ [1 x i8] c"{" }>, align 1
@alloc1391 = private unnamed_addr constant <{ [2 x i8] }> <{ [2 x i8] c": " }>, align 1
@alloc1399 = private unnamed_addr constant <{ [2 x i8] }> <{ [2 x i8] c"0x" }>, align 1
@alloc1405 = private unnamed_addr constant <{ i8*, [16 x i8] }> <{ i8* getelementptr inbounds (<{ [94 x i8] }>, <{ [94 x i8] }>* @alloc1411, i32 0, i32 0, i32 0), [16 x i8] c"^\00\00\00\00\00\00\00\CA\04\00\00-\00\00\00" }>, align 8
@alloc1413 = private unnamed_addr constant <{ [6 x i8] }> <{ [6 x i8] c".llvm." }>, align 1
@alloc1428 = private unnamed_addr constant <{ [95 x i8] }> <{ [95 x i8] c"/home/alwagner/.cargo/registry/src/github.com-1ecc6299db9ec823/rustc-demangle-0.1.21/src/lib.rs" }>, align 1
@alloc1415 = private unnamed_addr constant <{ i8*, [16 x i8] }> <{ i8* getelementptr inbounds (<{ [95 x i8] }>, <{ [95 x i8] }>* @alloc1428, i32 0, i32 0, i32 0), [16 x i8] c"_\00\00\00\00\00\00\00a\00\00\00\1A\00\00\00" }>, align 8
@alloc1417 = private unnamed_addr constant <{ i8*, [16 x i8] }> <{ i8* getelementptr inbounds (<{ [95 x i8] }>, <{ [95 x i8] }>* @alloc1428, i32 0, i32 0, i32 0), [16 x i8] c"_\00\00\00\00\00\00\00h\00\00\00\12\00\00\00" }>, align 8
@alloc702 = private unnamed_addr constant <{ i8*, [8 x i8] }> <{ i8* getelementptr inbounds (<{ [0 x i8] }>, <{ [0 x i8] }>* @alloc701, i32 0, i32 0, i32 0), [8 x i8] zeroinitializer }>, align 8
@alloc699 = private unnamed_addr constant <{ [56 x i8] }> <{ [56 x i8] c"\00\00\00\00\00\00\00\00\02\00\00\00\00\00\00\00\00\00\00\00\00\00\00\00\02\00\00\00\00\00\00\00\00\00\00\00\00\00\00\00 \00\00\00\04\00\00\00\03\00\00\00\00\00\00\00" }>, align 8
@alloc1422 = private unnamed_addr constant <{ [55 x i8] }> <{ [55 x i8] c"`fmt::Error` from `SizeLimitedFmtAdapter` was discarded" }>, align 1
@alloc1424 = private unnamed_addr constant <{ i8*, [16 x i8] }> <{ i8* getelementptr inbounds (<{ [95 x i8] }>, <{ [95 x i8] }>* @alloc1428, i32 0, i32 0, i32 0), [16 x i8] c"_\00\00\00\00\00\00\00\0D\01\00\00\1E\00\00\00" }>, align 8
@alloc1425 = private unnamed_addr constant <{ [20 x i8] }> <{ [20 x i8] c"{size limit reached}" }>, align 1
@alloc1430 = private unnamed_addr constant <{ [15 x i8] }> <{ [15 x i8] c"RecursedTooDeep" }>, align 1
@alloc1431 = private unnamed_addr constant <{ [7 x i8] }> <{ [7 x i8] c"Invalid" }>, align 1
@alloc1432 = private unnamed_addr constant <{ [16 x i8] }> <{ [16 x i8] c"TryDemangleError" }>, align 1
@alloc1433 = private unnamed_addr constant <{ [5 x i8] }> <{ [5 x i8] c"_priv" }>, align 1
@vtable.2 = private unnamed_addr constant <{ i8*, [16 x i8], i8*, [0 x i8] }> <{ i8* bitcast (void (%"SizeLimitedFmtAdapter<&mut core::fmt::Formatter>"**)* @"_ZN4core3ptr110drop_in_place$LT$$RF$mut$u20$rustc_demangle..SizeLimitedFmtAdapter$LT$$RF$mut$u20$core..fmt..Formatter$GT$$GT$17h15a201b934073451E" to i8*), [16 x i8] c"\08\00\00\00\00\00\00\00\08\00\00\00\00\00\00\00", i8* bitcast (i1 ({}**, %"core::fmt::Formatter"*)* @"_ZN42_$LT$$RF$T$u20$as$u20$core..fmt..Debug$GT$3fmt17h2efde85fe0881f39E" to i8*), [0 x i8] zeroinitializer }>, align 8
@alloc1437 = private unnamed_addr constant <{ [18 x i8] }> <{ [18 x i8] c"SizeLimitExhausted" }>, align 1
@alloc1451 = private unnamed_addr constant <{ [43 x i8] }> <{ [43 x i8] c"called `Option::unwrap()` on a `None` value" }>, align 1
@vtable.4 = private unnamed_addr constant <{ i8*, [16 x i8], i8*, [0 x i8] }> <{ i8* bitcast (void (%"SizeLimitedFmtAdapter<&mut core::fmt::Formatter>"**)* @"_ZN4core3ptr110drop_in_place$LT$$RF$mut$u20$rustc_demangle..SizeLimitedFmtAdapter$LT$$RF$mut$u20$core..fmt..Formatter$GT$$GT$17h15a201b934073451E" to i8*), [16 x i8] c"\00\00\00\00\00\00\00\00\01\00\00\00\00\00\00\00", i8* bitcast (i1 (%SizeLimitExhausted*, %"core::fmt::Formatter"*)* @"_ZN71_$LT$rustc_demangle..SizeLimitExhausted$u20$as$u20$core..fmt..Debug$GT$3fmt17ha39c8747f0f40280E" to i8*), [0 x i8] zeroinitializer }>, align 8
@vtable.5 = private unnamed_addr constant <{ i8*, [16 x i8], i8*, [0 x i8] }> <{ i8* bitcast (void (%"SizeLimitedFmtAdapter<&mut core::fmt::Formatter>"**)* @"_ZN4core3ptr110drop_in_place$LT$$RF$mut$u20$rustc_demangle..SizeLimitedFmtAdapter$LT$$RF$mut$u20$core..fmt..Formatter$GT$$GT$17h15a201b934073451E" to i8*), [16 x i8] c"\00\00\00\00\00\00\00\00\01\00\00\00\00\00\00\00", i8* bitcast (i1 (%"core::fmt::Error"*, %"core::fmt::Formatter"*)* @"_ZN53_$LT$core..fmt..Error$u20$as$u20$core..fmt..Debug$GT$3fmt17haa251479953ac187E" to i8*), [0 x i8] zeroinitializer }>, align 8
@alloc1467 = private unnamed_addr constant <{ [43 x i8] }> <{ [43 x i8] c"called `Result::unwrap()` on an `Err` value" }>, align 1
@vtable.6 = private unnamed_addr constant <{ i8*, [16 x i8], i8*, [0 x i8] }> <{ i8* bitcast (void (%"SizeLimitedFmtAdapter<&mut core::fmt::Formatter>"**)* @"_ZN4core3ptr110drop_in_place$LT$$RF$mut$u20$rustc_demangle..SizeLimitedFmtAdapter$LT$$RF$mut$u20$core..fmt..Formatter$GT$$GT$17h15a201b934073451E" to i8*), [16 x i8] c"\00\00\00\00\00\00\00\00\01\00\00\00\00\00\00\00", i8* bitcast (i1 ({}*, %"core::fmt::Formatter"*)* @"_ZN45_$LT$$LP$$RP$$u20$as$u20$core..fmt..Debug$GT$3fmt17h8adfca0f9aa389e9E" to i8*), [0 x i8] zeroinitializer }>, align 8
@vtable.7 = private unnamed_addr constant <{ i8*, [16 x i8], i8*, [0 x i8] }> <{ i8* bitcast (void (%"SizeLimitedFmtAdapter<&mut core::fmt::Formatter>"**)* @"_ZN4core3ptr110drop_in_place$LT$$RF$mut$u20$rustc_demangle..SizeLimitedFmtAdapter$LT$$RF$mut$u20$core..fmt..Formatter$GT$$GT$17h15a201b934073451E" to i8*), [16 x i8] c"\01\00\00\00\00\00\00\00\01\00\00\00\00\00\00\00", i8* bitcast (i1 (i8*, %"core::fmt::Formatter"*)* @"_ZN68_$LT$core..num..error..ParseIntError$u20$as$u20$core..fmt..Debug$GT$3fmt17hdc925963bb415bdcE" to i8*), [0 x i8] zeroinitializer }>, align 8
@vtable.8 = private unnamed_addr constant <{ i8*, [16 x i8], i8*, [0 x i8] }> <{ i8* bitcast (void (%"SizeLimitedFmtAdapter<&mut core::fmt::Formatter>"**)* @"_ZN4core3ptr110drop_in_place$LT$$RF$mut$u20$rustc_demangle..SizeLimitedFmtAdapter$LT$$RF$mut$u20$core..fmt..Formatter$GT$$GT$17h15a201b934073451E" to i8*), [16 x i8] c"\08\00\00\00\00\00\00\00\08\00\00\00\00\00\00\00", i8* bitcast (i1 (i8**, %"core::fmt::Formatter"*)* @"_ZN42_$LT$$RF$T$u20$as$u20$core..fmt..Debug$GT$3fmt17ha074d0a9445851a5E" to i8*), [0 x i8] zeroinitializer }>, align 8
@vtable.9 = private unnamed_addr constant <{ i8*, [16 x i8], i8*, i8*, i8*, [0 x i8] }> <{ i8* bitcast (void (%"SizeLimitedFmtAdapter<&mut core::fmt::Formatter>"**)* @"_ZN4core3ptr110drop_in_place$LT$$RF$mut$u20$rustc_demangle..SizeLimitedFmtAdapter$LT$$RF$mut$u20$core..fmt..Formatter$GT$$GT$17h15a201b934073451E" to i8*), [16 x i8] c"\08\00\00\00\00\00\00\00\08\00\00\00\00\00\00\00", i8* bitcast (i1 (%"SizeLimitedFmtAdapter<&mut core::fmt::Formatter>"**, [0 x i8]*, i64)* @"_ZN50_$LT$$RF$mut$u20$W$u20$as$u20$core..fmt..Write$GT$9write_str17h35a717c29f598f01E" to i8*), i8* bitcast (i1 (%"SizeLimitedFmtAdapter<&mut core::fmt::Formatter>"**, i32)* @"_ZN50_$LT$$RF$mut$u20$W$u20$as$u20$core..fmt..Write$GT$10write_char17h555aeecf4bfb36d3E" to i8*), i8* bitcast (i1 (%"SizeLimitedFmtAdapter<&mut core::fmt::Formatter>"**, %"core::fmt::Arguments"*)* @"_ZN50_$LT$$RF$mut$u20$W$u20$as$u20$core..fmt..Write$GT$9write_fmt17hea6b332e38e1504aE" to i8*), [0 x i8] zeroinitializer }>, align 8
@alloc1508 = private unnamed_addr constant <{ [119 x i8] }> <{ [119 x i8] c"/home/alwagner/.rustup/toolchains/nightly-x86_64-unknown-linux-gnu/lib/rustlib/src/rust/library/core/src/str/pattern.rs" }>, align 1
@alloc1499 = private unnamed_addr constant <{ i8*, [16 x i8] }> <{ i8* getelementptr inbounds (<{ [119 x i8] }>, <{ [119 x i8] }>* @alloc1508, i32 0, i32 0, i32 0), [16 x i8] c"w\00\00\00\00\00\00\00\B7\01\00\00&\00\00\00" }>, align 8
@alloc1501 = private unnamed_addr constant <{ i8*, [16 x i8] }> <{ i8* getelementptr inbounds (<{ [119 x i8] }>, <{ [119 x i8] }>* @alloc1508, i32 0, i32 0, i32 0), [16 x i8] c"w\00\00\00\00\00\00\00\1C\04\00\00\17\00\00\00" }>, align 8
@alloc1505 = private unnamed_addr constant <{ i8*, [16 x i8] }> <{ i8* getelementptr inbounds (<{ [119 x i8] }>, <{ [119 x i8] }>* @alloc1508, i32 0, i32 0, i32 0), [16 x i8] c"w\00\00\00\00\00\00\00\8C\05\00\00!\00\00\00" }>, align 8
@alloc1507 = private unnamed_addr constant <{ i8*, [16 x i8] }> <{ i8* getelementptr inbounds (<{ [119 x i8] }>, <{ [119 x i8] }>* @alloc1508, i32 0, i32 0, i32 0), [16 x i8] c"w\00\00\00\00\00\00\00\98\05\00\00\14\00\00\00" }>, align 8
@alloc1509 = private unnamed_addr constant <{ i8*, [16 x i8] }> <{ i8* getelementptr inbounds (<{ [119 x i8] }>, <{ [119 x i8] }>* @alloc1508, i32 0, i32 0, i32 0), [16 x i8] c"w\00\00\00\00\00\00\00\98\05\00\00!\00\00\00" }>, align 8

; core::ptr::drop_in_place<&mut rustc_demangle::SizeLimitedFmtAdapter<&mut core::fmt::Formatter>>
; Function Attrs: inlinehint mustprogress nofree norecurse nosync nounwind nonlazybind readnone uwtable willreturn
define internal void @"_ZN4core3ptr110drop_in_place$LT$$RF$mut$u20$rustc_demangle..SizeLimitedFmtAdapter$LT$$RF$mut$u20$core..fmt..Formatter$GT$$GT$17h15a201b934073451E"(%"SizeLimitedFmtAdapter<&mut core::fmt::Formatter>"** nocapture readnone %_1) unnamed_addr #0 {
start:
  ret void
}

; <rustc_demangle::legacy::Demangle as core::fmt::Display>::fmt
; Function Attrs: nonlazybind uwtable
define zeroext i1 @"_ZN71_$LT$rustc_demangle..legacy..Demangle$u20$as$u20$core..fmt..Display$GT$3fmt17h94d7e24a2fd57c8cE"(%"legacy::Demangle"* noalias nocapture readonly align 8 dereferenceable(24) %self, %"core::fmt::Formatter"* noalias align 8 dereferenceable(64) %f) unnamed_addr #1 personality i32 (...)* @rust_eh_personality {
start:
  %_5.i = alloca %"core::str::pattern::CharSearcher", align 8
  %_3.i = alloca %"core::option::Option<(usize, usize)>", align 8
  %e.i = alloca i8, align 1
  %c = alloca i32, align 4
  %0 = getelementptr inbounds %"legacy::Demangle", %"legacy::Demangle"* %self, i64 0, i32 0, i32 0
  %1 = load [0 x i8]*, [0 x i8]** %0, align 8, !nonnull !2
  %2 = getelementptr inbounds %"legacy::Demangle", %"legacy::Demangle"* %self, i64 0, i32 0, i32 1
  %3 = load i64, i64* %2, align 8
  %4 = getelementptr inbounds %"legacy::Demangle", %"legacy::Demangle"* %self, i64 0, i32 1
  %_6 = load i64, i64* %4, align 8
  %5 = bitcast %"core::option::Option<(usize, usize)>"* %_3.i to i8*
  %6 = bitcast %"core::str::pattern::CharSearcher"* %_5.i to i8*
  %7 = bitcast %"core::str::pattern::CharSearcher"* %_5.i to i8**
  %8 = getelementptr inbounds %"core::str::pattern::CharSearcher", %"core::str::pattern::CharSearcher"* %_5.i, i64 0, i32 0, i32 1
  %9 = getelementptr inbounds %"core::str::pattern::CharSearcher", %"core::str::pattern::CharSearcher"* %_5.i, i64 0, i32 1
  %10 = getelementptr inbounds %"core::str::pattern::CharSearcher", %"core::str::pattern::CharSearcher"* %_5.i, i64 0, i32 2
  %11 = getelementptr inbounds %"core::str::pattern::CharSearcher", %"core::str::pattern::CharSearcher"* %_5.i, i64 0, i32 4
  %12 = getelementptr inbounds %"core::str::pattern::CharSearcher", %"core::str::pattern::CharSearcher"* %_5.i, i64 0, i32 3
  %_16.sroa.0.0..sroa_idx.i.i = getelementptr inbounds %"core::str::pattern::CharSearcher", %"core::str::pattern::CharSearcher"* %_5.i, i64 0, i32 5
  %_16.sroa.0.0..sroa_cast1.i.i = bitcast [4 x i8]* %_16.sroa.0.0..sroa_idx.i.i to i32*
  %_3.idx.i = getelementptr inbounds %"core::option::Option<(usize, usize)>", %"core::option::Option<(usize, usize)>"* %_3.i, i64 0, i32 0
  %_3.idx1.i = getelementptr inbounds %"core::option::Option<(usize, usize)>", %"core::option::Option<(usize, usize)>"* %_3.i, i64 0, i32 1, i64 0
  %13 = bitcast i32* %c to i8*
  br label %bb2

bb2:                                              ; preds = %bb144, %start
  %iter.sroa.0.0 = phi i64 [ 0, %start ], [ %14, %bb144 ]
  %inner.sroa.8.0 = phi i64 [ %3, %start ], [ %len.i.i.i.i820, %bb144 ]
  %inner.sroa.0.0 = phi [0 x i8]* [ %1, %start ], [ %44, %bb144 ]
  %exitcond.not = icmp eq i64 %iter.sroa.0.0, %_6
  br i1 %exitcond.not, label %bb157, label %"_ZN4core4iter5range101_$LT$impl$u20$core..iter..traits..iterator..Iterator$u20$for$u20$core..ops..range..Range$LT$A$GT$$GT$4next17he716e3e09135d2b4E.exit"

"_ZN4core4iter5range101_$LT$impl$u20$core..iter..traits..iterator..Iterator$u20$for$u20$core..ops..range..Range$LT$A$GT$$GT$4next17he716e3e09135d2b4E.exit": ; preds = %bb2
  %14 = add i64 %iter.sroa.0.0, 1
  %_12.i.i.i582 = icmp eq i64 %inner.sroa.8.0, 0
  br i1 %_12.i.i.i582, label %bb1.i, label %bb3.i.i

bb3.i.i:                                          ; preds = %"_ZN4core4iter5range101_$LT$impl$u20$core..iter..traits..iterator..Iterator$u20$for$u20$core..ops..range..Range$LT$A$GT$$GT$4next17he716e3e09135d2b4E.exit", %"_ZN4core3str6traits66_$LT$impl$u20$core..ops..index..Index$LT$I$GT$$u20$for$u20$str$GT$5index17h2725d05bf1020748E.exit160"
  %rest.sroa.0.0585 = phi [0 x i8]* [ %49, %"_ZN4core3str6traits66_$LT$impl$u20$core..ops..index..Index$LT$I$GT$$u20$for$u20$str$GT$5index17h2725d05bf1020748E.exit160" ], [ %inner.sroa.0.0, %"_ZN4core4iter5range101_$LT$impl$u20$core..iter..traits..iterator..Iterator$u20$for$u20$core..ops..range..Range$LT$A$GT$$GT$4next17he716e3e09135d2b4E.exit" ]
  %rest.sroa.33.0583 = phi i64 [ %len.i.i.i.i159, %"_ZN4core3str6traits66_$LT$impl$u20$core..ops..index..Index$LT$I$GT$$u20$for$u20$str$GT$5index17h2725d05bf1020748E.exit160" ], [ %inner.sroa.8.0, %"_ZN4core4iter5range101_$LT$impl$u20$core..iter..traits..iterator..Iterator$u20$for$u20$core..ops..range..Range$LT$A$GT$$GT$4next17he716e3e09135d2b4E.exit" ]
  %15 = getelementptr [0 x i8], [0 x i8]* %rest.sroa.0.0585, i64 0, i64 0
  %x.i.i = load i8, i8* %15, align 1, !noalias !3
  %_11.i.i = icmp sgt i8 %x.i.i, -1
  br i1 %_11.i.i, label %bb7.i.i, label %bb8.i.i

bb8.i.i:                                          ; preds = %bb3.i.i
  %16 = getelementptr inbounds [0 x i8], [0 x i8]* %rest.sroa.0.0585, i64 0, i64 1
  %_3.i.i.i = and i8 %x.i.i, 31
  %17 = zext i8 %_3.i.i.i to i32
  %y.i.i = load i8, i8* %16, align 1, !noalias !3
  %_3.i10.i.i = shl nuw nsw i32 %17, 6
  %_6.i.i.i = and i8 %y.i.i, 63
  %_5.i.i.i = zext i8 %_6.i.i.i to i32
  %18 = or i32 %_3.i10.i.i, %_5.i.i.i
  %_24.i.i = icmp ugt i8 %x.i.i, -33
  br i1 %_24.i.i, label %bb13.i.i, label %"_ZN4core6option15Option$LT$T$GT$6unwrap17h183fe076b48fa83fE.exit"

bb7.i.i:                                          ; preds = %bb3.i.i
  %_13.i.i = zext i8 %x.i.i to i32
  br label %"_ZN4core6option15Option$LT$T$GT$6unwrap17h183fe076b48fa83fE.exit"

bb13.i.i:                                         ; preds = %bb8.i.i
  %19 = getelementptr inbounds [0 x i8], [0 x i8]* %rest.sroa.0.0585, i64 0, i64 2
  %z.i.i = load i8, i8* %19, align 1, !noalias !3
  %_3.i17.i.i = shl nuw nsw i32 %_5.i.i.i, 6
  %_6.i18.i.i = and i8 %z.i.i, 63
  %_5.i19.i.i = zext i8 %_6.i18.i.i to i32
  %20 = or i32 %_3.i17.i.i, %_5.i19.i.i
  %_35.i.i = shl nuw nsw i32 %17, 12
  %21 = or i32 %20, %_35.i.i
  %_38.i.i = icmp ugt i8 %x.i.i, -17
  br i1 %_38.i.i, label %"_ZN81_$LT$core..str..iter..Chars$u20$as$u20$core..iter..traits..iterator..Iterator$GT$4next17hb034e96f9b490979E.exit", label %"_ZN4core6option15Option$LT$T$GT$6unwrap17h183fe076b48fa83fE.exit"

"_ZN81_$LT$core..str..iter..Chars$u20$as$u20$core..iter..traits..iterator..Iterator$GT$4next17hb034e96f9b490979E.exit": ; preds = %bb13.i.i
  %22 = getelementptr inbounds [0 x i8], [0 x i8]* %rest.sroa.0.0585, i64 0, i64 3
  %w.i.i = load i8, i8* %22, align 1, !noalias !3
  %_45.i.i = shl nuw nsw i32 %17, 18
  %_44.i.i = and i32 %_45.i.i, 1835008
  %_3.i26.i.i = shl nuw nsw i32 %20, 6
  %_6.i27.i.i = and i8 %w.i.i, 63
  %_5.i28.i.i = zext i8 %_6.i27.i.i to i32
  %23 = or i32 %_3.i26.i.i, %_5.i28.i.i
  %24 = or i32 %23, %_44.i.i
  %25 = icmp eq i32 %24, 1114112
  br i1 %25, label %bb1.i, label %"_ZN4core6option15Option$LT$T$GT$6unwrap17h183fe076b48fa83fE.exit"

bb1.i:                                            ; preds = %"_ZN4core4iter5range101_$LT$impl$u20$core..iter..traits..iterator..Iterator$u20$for$u20$core..ops..range..Range$LT$A$GT$$GT$4next17he716e3e09135d2b4E.exit", %"_ZN81_$LT$core..str..iter..Chars$u20$as$u20$core..iter..traits..iterator..Iterator$GT$4next17hb034e96f9b490979E.exit", %bb7.i.i.i.i155
; call core::panicking::panic
  call void @_ZN4core9panicking5panic17he84354dce55c9beeE([0 x i8]* noalias nonnull readonly align 1 bitcast (<{ [43 x i8] }>* @alloc1451 to [0 x i8]*), i64 43, %"core::panic::location::Location"* noalias readonly align 8 dereferenceable(24) bitcast (<{ i8*, [16 x i8] }>* @alloc751 to %"core::panic::location::Location"*)) #19
  unreachable

"_ZN4core6option15Option$LT$T$GT$6unwrap17h183fe076b48fa83fE.exit": ; preds = %bb7.i.i, %bb13.i.i, %bb8.i.i, %"_ZN81_$LT$core..str..iter..Chars$u20$as$u20$core..iter..traits..iterator..Iterator$GT$4next17hb034e96f9b490979E.exit"
  %26 = phi i32 [ %24, %"_ZN81_$LT$core..str..iter..Chars$u20$as$u20$core..iter..traits..iterator..Iterator$GT$4next17hb034e96f9b490979E.exit" ], [ %_13.i.i, %bb7.i.i ], [ %21, %bb13.i.i ], [ %18, %bb8.i.i ]
  %27 = icmp ult i32 %26, 1114112
  call void @llvm.assume(i1 %27) #20
  %28 = add nsw i32 %26, -48
  %_21.i.i = icmp ult i32 %28, 10
  br i1 %_21.i.i, label %bb11, label %bb13

bb13:                                             ; preds = %"_ZN4core6option15Option$LT$T$GT$6unwrap17h183fe076b48fa83fE.exit"
  %29 = getelementptr [0 x i8], [0 x i8]* %rest.sroa.0.0585, i64 0, i64 0
  %_31 = sub i64 %inner.sroa.8.0, %rest.sroa.33.0583
  %30 = icmp eq i64 %_31, 0
  br i1 %30, label %"_ZN4core3str6traits66_$LT$impl$u20$core..ops..index..Index$LT$I$GT$$u20$for$u20$str$GT$5index17h6f34acbde65192b2E.exit", label %bb2.i.i.i.i

bb2.i.i.i.i:                                      ; preds = %bb13
  %_3.i.i.i.i.i.i.not = icmp ult i64 %inner.sroa.8.0, %rest.sroa.33.0583
  br i1 %_3.i.i.i.i.i.i.not, label %bb2.i.i138, label %"_ZN4core3str21_$LT$impl$u20$str$GT$16is_char_boundary17hb758182025112b0cE.exit.i.i.i"

"_ZN4core3str21_$LT$impl$u20$str$GT$16is_char_boundary17hb758182025112b0cE.exit.i.i.i": ; preds = %bb2.i.i.i.i
  %31 = getelementptr inbounds [0 x i8], [0 x i8]* %inner.sroa.0.0, i64 0, i64 %_31
  %b.i.i.i.i = load i8, i8* %31, align 1, !alias.scope !8, !noalias !17
  %32 = icmp sgt i8 %b.i.i.i.i, -65
  br i1 %32, label %"_ZN4core3str6traits66_$LT$impl$u20$core..ops..index..Index$LT$I$GT$$u20$for$u20$str$GT$5index17h6f34acbde65192b2E.exit", label %bb2.i.i138

bb2.i.i138:                                       ; preds = %bb2.i.i.i.i, %"_ZN4core3str21_$LT$impl$u20$str$GT$16is_char_boundary17hb758182025112b0cE.exit.i.i.i"
; call core::str::slice_error_fail
  call void @_ZN4core3str16slice_error_fail17h0d3b5d2bc1b01573E([0 x i8]* noalias nonnull readonly align 1 %inner.sroa.0.0, i64 %inner.sroa.8.0, i64 0, i64 %_31, %"core::panic::location::Location"* noalias nonnull readonly align 8 dereferenceable(24) bitcast (<{ i8*, [16 x i8] }>* @alloc755 to %"core::panic::location::Location"*)) #19
  unreachable

"_ZN4core3str6traits66_$LT$impl$u20$core..ops..index..Index$LT$I$GT$$u20$for$u20$str$GT$5index17h6f34acbde65192b2E.exit": ; preds = %bb13, %"_ZN4core3str21_$LT$impl$u20$str$GT$16is_char_boundary17hb758182025112b0cE.exit.i.i.i"
; call core::num::<impl core::str::traits::FromStr for usize>::from_str
  %33 = call i128 @"_ZN4core3num62_$LT$impl$u20$core..str..traits..FromStr$u20$for$u20$usize$GT$8from_str17h640366c857fee7ecE"([0 x i8]* noalias nonnull readonly align 1 %inner.sroa.0.0, i64 %_31)
  %34 = and i128 %33, 1
  %switch.not.not.i = icmp eq i128 %34, 0
  br i1 %switch.not.not.i, label %"_ZN4core6result19Result$LT$T$C$E$GT$6unwrap17haec513acb2df959dE.exit", label %bb1.i139

bb1.i139:                                         ; preds = %"_ZN4core3str6traits66_$LT$impl$u20$core..ops..index..Index$LT$I$GT$$u20$for$u20$str$GT$5index17h6f34acbde65192b2E.exit"
  %.sroa.4.0.extract.shift.i = lshr i128 %33, 8
  %.sroa.4.0.extract.trunc.i = trunc i128 %.sroa.4.0.extract.shift.i to i8
  call void @llvm.lifetime.start.p0i8(i64 1, i8* nonnull %e.i)
  store i8 %.sroa.4.0.extract.trunc.i, i8* %e.i, align 1
  %_6.0.i = bitcast i8* %e.i to {}*
; call core::result::unwrap_failed
  call void @_ZN4core6result13unwrap_failed17he6aaa65cb062b616E([0 x i8]* noalias nonnull readonly align 1 bitcast (<{ [43 x i8] }>* @alloc1467 to [0 x i8]*), i64 43, {}* nonnull align 1 %_6.0.i, [3 x i64]* noalias readonly align 8 dereferenceable(24) bitcast (<{ i8*, [16 x i8], i8*, [0 x i8] }>* @vtable.7 to [3 x i64]*), %"core::panic::location::Location"* noalias readonly align 8 dereferenceable(24) bitcast (<{ i8*, [16 x i8] }>* @alloc757 to %"core::panic::location::Location"*)) #19
  unreachable

"_ZN4core6result19Result$LT$T$C$E$GT$6unwrap17haec513acb2df959dE.exit": ; preds = %"_ZN4core3str6traits66_$LT$impl$u20$core..ops..index..Index$LT$I$GT$$u20$for$u20$str$GT$5index17h6f34acbde65192b2E.exit"
  %.sroa.6.0.extract.shift.i = lshr i128 %33, 64
  %.sroa.6.0.extract.trunc.i = trunc i128 %.sroa.6.0.extract.shift.i to i64
  %35 = icmp eq i64 %.sroa.6.0.extract.trunc.i, 0
  br i1 %35, label %"_ZN4core3str6traits66_$LT$impl$u20$core..ops..index..Index$LT$I$GT$$u20$for$u20$str$GT$5index17h2725d05bf1020748E.exit", label %bb2.i.i.i.i141

bb2.i.i.i.i141:                                   ; preds = %"_ZN4core6result19Result$LT$T$C$E$GT$6unwrap17haec513acb2df959dE.exit"
  %_3.i.i.i.i.i.i140 = icmp ugt i64 %rest.sroa.33.0583, %.sroa.6.0.extract.trunc.i
  br i1 %_3.i.i.i.i.i.i140, label %"_ZN4core3str21_$LT$impl$u20$str$GT$16is_char_boundary17hb758182025112b0cE.exit.i.i.i144", label %bb7.i.i.i.i142

bb7.i.i.i.i142:                                   ; preds = %bb2.i.i.i.i141
  %36 = icmp eq i64 %rest.sroa.33.0583, %.sroa.6.0.extract.trunc.i
  br i1 %36, label %bb2.i.i.i.i147, label %bb3.i.i145

"_ZN4core3str21_$LT$impl$u20$str$GT$16is_char_boundary17hb758182025112b0cE.exit.i.i.i144": ; preds = %bb2.i.i.i.i141
  %37 = getelementptr inbounds [0 x i8], [0 x i8]* %rest.sroa.0.0585, i64 0, i64 %.sroa.6.0.extract.trunc.i
  %b.i.i.i.i143 = load i8, i8* %37, align 1, !alias.scope !20, !noalias !29
  %38 = icmp sgt i8 %b.i.i.i.i143, -65
  br i1 %38, label %bb2.i.i.i.i147, label %bb3.i.i145

bb3.i.i145:                                       ; preds = %"_ZN4core3str21_$LT$impl$u20$str$GT$16is_char_boundary17hb758182025112b0cE.exit.i.i.i144", %bb7.i.i.i.i142
  %.sroa.6.0.extract.trunc.i.le1060 = trunc i128 %.sroa.6.0.extract.shift.i to i64
; call core::str::slice_error_fail
  call void @_ZN4core3str16slice_error_fail17h0d3b5d2bc1b01573E([0 x i8]* noalias nonnull readonly align 1 %rest.sroa.0.0585, i64 %rest.sroa.33.0583, i64 %.sroa.6.0.extract.trunc.i.le1060, i64 %rest.sroa.33.0583, %"core::panic::location::Location"* noalias nonnull readonly align 8 dereferenceable(24) bitcast (<{ i8*, [16 x i8] }>* @alloc759 to %"core::panic::location::Location"*)) #19
  unreachable

"_ZN4core3str6traits66_$LT$impl$u20$core..ops..index..Index$LT$I$GT$$u20$for$u20$str$GT$5index17h2725d05bf1020748E.exit": ; preds = %"_ZN4core6result19Result$LT$T$C$E$GT$6unwrap17haec513acb2df959dE.exit"
  %39 = getelementptr inbounds [0 x i8], [0 x i8]* %rest.sroa.0.0585, i64 0, i64 %.sroa.6.0.extract.trunc.i
  br label %"_ZN4core3str6traits66_$LT$impl$u20$core..ops..index..Index$LT$I$GT$$u20$for$u20$str$GT$5index17h6f34acbde65192b2E.exit152"

bb2.i.i.i.i147:                                   ; preds = %bb7.i.i.i.i142, %"_ZN4core3str21_$LT$impl$u20$str$GT$16is_char_boundary17hb758182025112b0cE.exit.i.i.i144"
  %40 = getelementptr inbounds [0 x i8], [0 x i8]* %rest.sroa.0.0585, i64 0, i64 %.sroa.6.0.extract.trunc.i
  %_3.i.i.i.i.i.i146 = icmp ugt i64 %rest.sroa.33.0583, %.sroa.6.0.extract.trunc.i
  br i1 %_3.i.i.i.i.i.i146, label %"_ZN4core3str21_$LT$impl$u20$str$GT$16is_char_boundary17hb758182025112b0cE.exit.i.i.i150", label %bb7.i.i.i.i148

bb7.i.i.i.i148:                                   ; preds = %bb2.i.i.i.i147
  %41 = icmp eq i64 %rest.sroa.33.0583, %.sroa.6.0.extract.trunc.i
  br i1 %41, label %"_ZN4core3str6traits66_$LT$impl$u20$core..ops..index..Index$LT$I$GT$$u20$for$u20$str$GT$5index17h6f34acbde65192b2E.exit152", label %bb2.i.i151

"_ZN4core3str21_$LT$impl$u20$str$GT$16is_char_boundary17hb758182025112b0cE.exit.i.i.i150": ; preds = %bb2.i.i.i.i147
  %b.i.i.i.i149 = load i8, i8* %40, align 1, !alias.scope !32, !noalias !41
  %42 = icmp sgt i8 %b.i.i.i.i149, -65
  br i1 %42, label %"_ZN4core3str6traits66_$LT$impl$u20$core..ops..index..Index$LT$I$GT$$u20$for$u20$str$GT$5index17h6f34acbde65192b2E.exit152", label %bb2.i.i151

bb2.i.i151:                                       ; preds = %"_ZN4core3str21_$LT$impl$u20$str$GT$16is_char_boundary17hb758182025112b0cE.exit.i.i.i150", %bb7.i.i.i.i148
  %.sroa.6.0.extract.trunc.i.le1058 = trunc i128 %.sroa.6.0.extract.shift.i to i64
; call core::str::slice_error_fail
  call void @_ZN4core3str16slice_error_fail17h0d3b5d2bc1b01573E([0 x i8]* noalias nonnull readonly align 1 %rest.sroa.0.0585, i64 %rest.sroa.33.0583, i64 0, i64 %.sroa.6.0.extract.trunc.i.le1058, %"core::panic::location::Location"* noalias nonnull readonly align 8 dereferenceable(24) bitcast (<{ i8*, [16 x i8] }>* @alloc761 to %"core::panic::location::Location"*)) #19
  unreachable

"_ZN4core3str6traits66_$LT$impl$u20$core..ops..index..Index$LT$I$GT$$u20$for$u20$str$GT$5index17h6f34acbde65192b2E.exit152": ; preds = %"_ZN4core3str6traits66_$LT$impl$u20$core..ops..index..Index$LT$I$GT$$u20$for$u20$str$GT$5index17h2725d05bf1020748E.exit", %bb7.i.i.i.i148, %"_ZN4core3str21_$LT$impl$u20$str$GT$16is_char_boundary17hb758182025112b0cE.exit.i.i.i150"
  %43 = phi i8* [ %39, %"_ZN4core3str6traits66_$LT$impl$u20$core..ops..index..Index$LT$I$GT$$u20$for$u20$str$GT$5index17h2725d05bf1020748E.exit" ], [ %40, %bb7.i.i.i.i148 ], [ %40, %"_ZN4core3str21_$LT$impl$u20$str$GT$16is_char_boundary17hb758182025112b0cE.exit.i.i.i150" ]
  %len.i.i.i.i820 = sub i64 %rest.sroa.33.0583, %.sroa.6.0.extract.trunc.i
  %44 = bitcast i8* %43 to [0 x i8]*
; call core::fmt::Formatter::alternate
  %_50 = call zeroext i1 @_ZN4core3fmt9Formatter9alternate17h18a36d173838f752E(%"core::fmt::Formatter"* noalias nonnull readonly align 8 dereferenceable(64) %f)
  %_52 = icmp ne i64 %14, %_6
  %not._50 = xor i1 %_50, true
  %_49.0 = select i1 %not._50, i1 true, i1 %_52
  %brmerge = select i1 %_49.0, i1 true, i1 %35
  br i1 %brmerge, label %bb30, label %"_ZN4core3str21_$LT$impl$u20$str$GT$11starts_with17hdf50636638ead970E.exit.i"

bb11:                                             ; preds = %"_ZN4core6option15Option$LT$T$GT$6unwrap17h183fe076b48fa83fE.exit"
  %_3.i.i.i.i.i.i153 = icmp ugt i64 %rest.sroa.33.0583, 1
  br i1 %_3.i.i.i.i.i.i153, label %"_ZN4core3str21_$LT$impl$u20$str$GT$16is_char_boundary17hb758182025112b0cE.exit.i.i.i157", label %bb7.i.i.i.i155

bb7.i.i.i.i155:                                   ; preds = %bb11
  %45 = icmp eq i64 %rest.sroa.33.0583, 1
  br i1 %45, label %bb1.i, label %bb3.i.i158

"_ZN4core3str21_$LT$impl$u20$str$GT$16is_char_boundary17hb758182025112b0cE.exit.i.i.i157": ; preds = %bb11
  %46 = getelementptr inbounds [0 x i8], [0 x i8]* %rest.sroa.0.0585, i64 0, i64 1
  %b.i.i.i.i156 = load i8, i8* %46, align 1, !alias.scope !44, !noalias !53
  %47 = icmp sgt i8 %b.i.i.i.i156, -65
  br i1 %47, label %"_ZN4core3str6traits66_$LT$impl$u20$core..ops..index..Index$LT$I$GT$$u20$for$u20$str$GT$5index17h2725d05bf1020748E.exit160", label %bb3.i.i158

bb3.i.i158:                                       ; preds = %"_ZN4core3str21_$LT$impl$u20$str$GT$16is_char_boundary17hb758182025112b0cE.exit.i.i.i157", %bb7.i.i.i.i155
; call core::str::slice_error_fail
  call void @_ZN4core3str16slice_error_fail17h0d3b5d2bc1b01573E([0 x i8]* noalias nonnull readonly align 1 %rest.sroa.0.0585, i64 %rest.sroa.33.0583, i64 1, i64 %rest.sroa.33.0583, %"core::panic::location::Location"* noalias nonnull readonly align 8 dereferenceable(24) bitcast (<{ i8*, [16 x i8] }>* @alloc753 to %"core::panic::location::Location"*)) #19
  unreachable

"_ZN4core3str6traits66_$LT$impl$u20$core..ops..index..Index$LT$I$GT$$u20$for$u20$str$GT$5index17h2725d05bf1020748E.exit160": ; preds = %"_ZN4core3str21_$LT$impl$u20$str$GT$16is_char_boundary17hb758182025112b0cE.exit.i.i.i157"
  %48 = getelementptr inbounds [0 x i8], [0 x i8]* %rest.sroa.0.0585, i64 0, i64 1
  %len.i.i.i.i159 = add i64 %rest.sroa.33.0583, -1
  %49 = bitcast i8* %48 to [0 x i8]*
  br label %bb3.i.i

"_ZN4core3str21_$LT$impl$u20$str$GT$11starts_with17hdf50636638ead970E.exit.i": ; preds = %"_ZN4core3str6traits66_$LT$impl$u20$core..ops..index..Index$LT$I$GT$$u20$for$u20$str$GT$5index17h6f34acbde65192b2E.exit152"
  %rhsc.i = load i8, i8* %29, align 1, !alias.scope !56
  %50 = icmp eq i8 %rhsc.i, 104
  br i1 %50, label %bb2.i, label %bb30

bb2.i:                                            ; preds = %"_ZN4core3str21_$LT$impl$u20$str$GT$11starts_with17hdf50636638ead970E.exit.i"
  %_3.i.i.i.i.i.i.i = icmp ugt i64 %.sroa.6.0.extract.trunc.i, 1
  br i1 %_3.i.i.i.i.i.i.i, label %"_ZN4core3str21_$LT$impl$u20$str$GT$16is_char_boundary17hb758182025112b0cE.exit.i.i.i.i", label %bb157

"_ZN4core3str21_$LT$impl$u20$str$GT$16is_char_boundary17hb758182025112b0cE.exit.i.i.i.i": ; preds = %bb2.i
  %51 = getelementptr inbounds [0 x i8], [0 x i8]* %rest.sroa.0.0585, i64 0, i64 1
  %b.i.i.i.i.i = load i8, i8* %51, align 1, !alias.scope !56, !noalias !2
  %52 = icmp sgt i8 %b.i.i.i.i.i, -65
  br i1 %52, label %bb3.i.i.i.i.i, label %bb3.i.i.i

bb3.i.i.i:                                        ; preds = %"_ZN4core3str21_$LT$impl$u20$str$GT$16is_char_boundary17hb758182025112b0cE.exit.i.i.i.i"
  %.sroa.6.0.extract.trunc.i.le1056 = trunc i128 %.sroa.6.0.extract.shift.i to i64
; call core::str::slice_error_fail
  call void @_ZN4core3str16slice_error_fail17h0d3b5d2bc1b01573E([0 x i8]* noalias nonnull readonly align 1 %rest.sroa.0.0585, i64 %.sroa.6.0.extract.trunc.i.le1056, i64 1, i64 %.sroa.6.0.extract.trunc.i.le1056, %"core::panic::location::Location"* noalias nonnull readonly align 8 dereferenceable(24) bitcast (<{ i8*, [16 x i8] }>* @alloc749 to %"core::panic::location::Location"*)) #19
  unreachable

bb3.i.i.i.ithread-pre-split.i:                    ; preds = %bb1.backedge.i.i.i
  %x.i.i.i.i.pr.i = load i8, i8* %63, align 1, !alias.scope !56, !noalias !59
  br label %bb3.i.i.i.i.i

bb3.i.i.i.i.i:                                    ; preds = %"_ZN4core3str21_$LT$impl$u20$str$GT$16is_char_boundary17hb758182025112b0cE.exit.i.i.i.i", %bb3.i.i.i.ithread-pre-split.i
  %x.i.i.i.i.i = phi i8 [ %x.i.i.i.i.pr.i, %bb3.i.i.i.ithread-pre-split.i ], [ %b.i.i.i.i.i, %"_ZN4core3str21_$LT$impl$u20$str$GT$16is_char_boundary17hb758182025112b0cE.exit.i.i.i.i" ]
  %_15.i.i.i18.i.i.i = phi i8* [ %63, %bb3.i.i.i.ithread-pre-split.i ], [ %51, %"_ZN4core3str21_$LT$impl$u20$str$GT$16is_char_boundary17hb758182025112b0cE.exit.i.i.i.i" ]
  %53 = getelementptr inbounds i8, i8* %_15.i.i.i18.i.i.i, i64 1
  %_11.i.i.i.i.i = icmp sgt i8 %x.i.i.i.i.i, -1
  br i1 %_11.i.i.i.i.i, label %bb7.i.i.i.i2.i, label %bb8.i.i.i.i.i

bb8.i.i.i.i.i:                                    ; preds = %bb3.i.i.i.i.i
  %_3.i.i.i.i.i.i161 = and i8 %x.i.i.i.i.i, 31
  %54 = zext i8 %_3.i.i.i.i.i.i161 to i32
  %55 = getelementptr inbounds i8, i8* %_15.i.i.i18.i.i.i, i64 2
  %y.i.i.i.i.i = load i8, i8* %53, align 1, !alias.scope !56, !noalias !59
  %_3.i10.i.i.i.i.i = shl nuw nsw i32 %54, 6
  %_6.i.i.i.i.i.i = and i8 %y.i.i.i.i.i, 63
  %_5.i.i.i.i.i.i = zext i8 %_6.i.i.i.i.i.i to i32
  %56 = or i32 %_3.i10.i.i.i.i.i, %_5.i.i.i.i.i.i
  %_24.i.i.i.i.i = icmp ugt i8 %x.i.i.i.i.i, -33
  br i1 %_24.i.i.i.i.i, label %bb13.i.i.i.i.i, label %bb3.i.i3.i

bb7.i.i.i.i2.i:                                   ; preds = %bb3.i.i.i.i.i
  %_13.i.i.i.i.i = zext i8 %x.i.i.i.i.i to i32
  br label %bb3.i.i3.i

bb13.i.i.i.i.i:                                   ; preds = %bb8.i.i.i.i.i
  %57 = getelementptr inbounds i8, i8* %_15.i.i.i18.i.i.i, i64 3
  %z.i.i.i.i.i = load i8, i8* %55, align 1, !alias.scope !56, !noalias !59
  %_3.i17.i.i.i.i.i = shl nuw nsw i32 %_5.i.i.i.i.i.i, 6
  %_6.i18.i.i.i.i.i = and i8 %z.i.i.i.i.i, 63
  %_5.i19.i.i.i.i.i = zext i8 %_6.i18.i.i.i.i.i to i32
  %58 = or i32 %_3.i17.i.i.i.i.i, %_5.i19.i.i.i.i.i
  %_35.i.i.i.i.i = shl nuw nsw i32 %54, 12
  %59 = or i32 %58, %_35.i.i.i.i.i
  %_38.i.i.i.i.i = icmp ugt i8 %x.i.i.i.i.i, -17
  br i1 %_38.i.i.i.i.i, label %"_ZN81_$LT$core..str..iter..Chars$u20$as$u20$core..iter..traits..iterator..Iterator$GT$4next17hb034e96f9b490979E.exit.i.i.i", label %bb3.i.i3.i

"_ZN81_$LT$core..str..iter..Chars$u20$as$u20$core..iter..traits..iterator..Iterator$GT$4next17hb034e96f9b490979E.exit.i.i.i": ; preds = %bb13.i.i.i.i.i
  %60 = getelementptr inbounds i8, i8* %_15.i.i.i18.i.i.i, i64 4
  %w.i.i.i.i.i = load i8, i8* %57, align 1, !alias.scope !56, !noalias !59
  %_45.i.i.i.i.i = shl nuw nsw i32 %54, 18
  %_44.i.i.i.i.i = and i32 %_45.i.i.i.i.i, 1835008
  %_3.i26.i.i.i.i.i = shl nuw nsw i32 %58, 6
  %_6.i27.i.i.i.i.i = and i8 %w.i.i.i.i.i, 63
  %_5.i28.i.i.i.i.i = zext i8 %_6.i27.i.i.i.i.i to i32
  %61 = or i32 %_3.i26.i.i.i.i.i, %_5.i28.i.i.i.i.i
  %62 = or i32 %61, %_44.i.i.i.i.i
  %.not.i.i.i = icmp eq i32 %62, 1114112
  br i1 %.not.i.i.i, label %bb157, label %bb3.i.i3.i

bb3.i.i3.i:                                       ; preds = %"_ZN81_$LT$core..str..iter..Chars$u20$as$u20$core..iter..traits..iterator..Iterator$GT$4next17hb034e96f9b490979E.exit.i.i.i", %bb13.i.i.i.i.i, %bb7.i.i.i.i2.i, %bb8.i.i.i.i.i
  %63 = phi i8* [ %60, %"_ZN81_$LT$core..str..iter..Chars$u20$as$u20$core..iter..traits..iterator..Iterator$GT$4next17hb034e96f9b490979E.exit.i.i.i" ], [ %53, %bb7.i.i.i.i2.i ], [ %57, %bb13.i.i.i.i.i ], [ %55, %bb8.i.i.i.i.i ]
  %64 = phi i32 [ %62, %"_ZN81_$LT$core..str..iter..Chars$u20$as$u20$core..iter..traits..iterator..Iterator$GT$4next17hb034e96f9b490979E.exit.i.i.i" ], [ %_13.i.i.i.i.i, %bb7.i.i.i.i2.i ], [ %59, %bb13.i.i.i.i.i ], [ %56, %bb8.i.i.i.i.i ]
  %65 = icmp ult i32 %64, 1114112
  call void @llvm.assume(i1 %65) #20
  %66 = add nsw i32 %64, -48
  %_12.i.i.i.i.i.i.i = icmp ult i32 %66, 10
  br i1 %_12.i.i.i.i.i.i.i, label %bb1.backedge.i.i.i, label %bb6.i.i.i.i.i.i.i

bb6.i.i.i.i.i.i.i:                                ; preds = %bb3.i.i3.i
  %_17.i.i.i.i.i.i.i = or i32 %64, 32
  %67 = add nsw i32 %_17.i.i.i.i.i.i.i, -97
  %68 = call i32 @llvm.uadd.sat.i32(i32 %67, i32 10) #20
  %_21.i.i.i.i.i.i.i = icmp ugt i32 %68, 15
  br i1 %_21.i.i.i.i.i.i.i, label %bb30, label %bb1.backedge.i.i.i

bb1.backedge.i.i.i:                               ; preds = %bb6.i.i.i.i.i.i.i, %bb3.i.i3.i
  %_12.i.i.i.i.i.i = icmp eq i8* %63, %43
  br i1 %_12.i.i.i.i.i.i, label %bb157, label %bb3.i.i.i.ithread-pre-split.i

bb30:                                             ; preds = %bb6.i.i.i.i.i.i.i, %"_ZN4core3str6traits66_$LT$impl$u20$core..ops..index..Index$LT$I$GT$$u20$for$u20$str$GT$5index17h6f34acbde65192b2E.exit152", %"_ZN4core3str21_$LT$impl$u20$str$GT$11starts_with17hdf50636638ead970E.exit.i"
  %69 = icmp eq i64 %iter.sroa.0.0, 0
  br i1 %69, label %bb39, label %bb31

bb31:                                             ; preds = %bb30
; call core::fmt::Formatter::write_str
  %_61 = call zeroext i1 @_ZN4core3fmt9Formatter9write_str17h89723935f155226aE(%"core::fmt::Formatter"* noalias nonnull align 8 dereferenceable(64) %f, [0 x i8]* noalias nonnull readonly align 1 bitcast (<{ [2 x i8] }>* @alloc1091 to [0 x i8]*), i64 2)
  br i1 %_61, label %bb157, label %bb39

bb39:                                             ; preds = %bb31, %bb30
  %_5.not.i.i.i = icmp ult i64 %.sroa.6.0.extract.trunc.i, 2
  br i1 %_5.not.i.i.i, label %bb44.preheader, label %"_ZN4core3str21_$LT$impl$u20$str$GT$11starts_with17hbb1a0508f456b6e5E.exit"

"_ZN4core3str21_$LT$impl$u20$str$GT$11starts_with17hbb1a0508f456b6e5E.exit": ; preds = %bb39
  %bcmp.i.i.i.i.i.i = call i32 @bcmp(i8* noundef nonnull dereferenceable(2) getelementptr inbounds (<{ [2 x i8] }>, <{ [2 x i8] }>* @alloc765, i64 0, i32 0, i64 0), i8* noundef nonnull dereferenceable(2) %29, i64 2) #20, !alias.scope !68
  %70 = icmp eq i32 %bcmp.i.i.i.i.i.i, 0
  br i1 %70, label %"_ZN4core3str21_$LT$impl$u20$str$GT$16is_char_boundary17hb758182025112b0cE.exit.i.i.i166", label %bb44.preheader

"_ZN4core3str21_$LT$impl$u20$str$GT$16is_char_boundary17hb758182025112b0cE.exit.i.i.i166": ; preds = %"_ZN4core3str21_$LT$impl$u20$str$GT$11starts_with17hbb1a0508f456b6e5E.exit"
  %71 = getelementptr inbounds [0 x i8], [0 x i8]* %rest.sroa.0.0585, i64 0, i64 1
  %b.i.i.i.i165 = load i8, i8* %71, align 1, !alias.scope !84, !noalias !93
  %72 = icmp sgt i8 %b.i.i.i.i165, -65
  br i1 %72, label %"_ZN4core3str6traits66_$LT$impl$u20$core..ops..index..Index$LT$I$GT$$u20$for$u20$str$GT$5index17h2725d05bf1020748E.exit169", label %bb3.i.i167

bb3.i.i167:                                       ; preds = %"_ZN4core3str21_$LT$impl$u20$str$GT$16is_char_boundary17hb758182025112b0cE.exit.i.i.i166"
  %.sroa.6.0.extract.trunc.i.le = trunc i128 %.sroa.6.0.extract.shift.i to i64
; call core::str::slice_error_fail
  call void @_ZN4core3str16slice_error_fail17h0d3b5d2bc1b01573E([0 x i8]* noalias nonnull readonly align 1 %rest.sroa.0.0585, i64 %.sroa.6.0.extract.trunc.i.le, i64 1, i64 %.sroa.6.0.extract.trunc.i.le, %"core::panic::location::Location"* noalias nonnull readonly align 8 dereferenceable(24) bitcast (<{ i8*, [16 x i8] }>* @alloc767 to %"core::panic::location::Location"*)) #19
  unreachable

"_ZN4core3str6traits66_$LT$impl$u20$core..ops..index..Index$LT$I$GT$$u20$for$u20$str$GT$5index17h2725d05bf1020748E.exit169": ; preds = %"_ZN4core3str21_$LT$impl$u20$str$GT$16is_char_boundary17hb758182025112b0cE.exit.i.i.i166"
  %len.i.i.i.i168 = add i64 %.sroa.6.0.extract.trunc.i, -1
  %73 = bitcast i8* %71 to [0 x i8]*
  br label %bb44.preheader

bb44.preheader:                                   ; preds = %bb39, %"_ZN4core3str6traits66_$LT$impl$u20$core..ops..index..Index$LT$I$GT$$u20$for$u20$str$GT$5index17h2725d05bf1020748E.exit169", %"_ZN4core3str21_$LT$impl$u20$str$GT$11starts_with17hbb1a0508f456b6e5E.exit"
  %rest.sroa.33.2.ph = phi i64 [ %.sroa.6.0.extract.trunc.i, %bb39 ], [ %.sroa.6.0.extract.trunc.i, %"_ZN4core3str21_$LT$impl$u20$str$GT$11starts_with17hbb1a0508f456b6e5E.exit" ], [ %len.i.i.i.i168, %"_ZN4core3str6traits66_$LT$impl$u20$core..ops..index..Index$LT$I$GT$$u20$for$u20$str$GT$5index17h2725d05bf1020748E.exit169" ]
  %rest.sroa.0.2.ph = phi [0 x i8]* [ %rest.sroa.0.0585, %bb39 ], [ %rest.sroa.0.0585, %"_ZN4core3str21_$LT$impl$u20$str$GT$11starts_with17hbb1a0508f456b6e5E.exit" ], [ %73, %"_ZN4core3str6traits66_$LT$impl$u20$core..ops..index..Index$LT$I$GT$$u20$for$u20$str$GT$5index17h2725d05bf1020748E.exit169" ]
  br label %bb44

bb44:                                             ; preds = %bb44.preheader, %bb44.backedge
  %rest.sroa.33.2 = phi i64 [ %rest.sroa.33.2.be, %bb44.backedge ], [ %rest.sroa.33.2.ph, %bb44.preheader ]
  %rest.sroa.0.2 = phi [0 x i8]* [ %rest.sroa.0.2.be, %bb44.backedge ], [ %rest.sroa.0.2.ph, %bb44.preheader ]
  %74 = icmp ne [0 x i8]* %rest.sroa.0.2, null
  call void @llvm.assume(i1 %74)
  %_5.not.i.i.i.i = icmp eq i64 %rest.sroa.33.2, 0
  br i1 %_5.not.i.i.i.i, label %bb130, label %"_ZN4core3str21_$LT$impl$u20$str$GT$11starts_with17hdf50636638ead970E.exit"

"_ZN4core3str21_$LT$impl$u20$str$GT$11starts_with17hdf50636638ead970E.exit": ; preds = %bb44
  %75 = getelementptr [0 x i8], [0 x i8]* %rest.sroa.0.2, i64 0, i64 0
  %rhsc = load i8, i8* %75, align 1
  switch i8 %rhsc, label %bb130 [
    i8 46, label %bb46
    i8 36, label %bb70
  ]

bb46:                                             ; preds = %"_ZN4core3str21_$LT$impl$u20$str$GT$11starts_with17hdf50636638ead970E.exit"
  %_3.i.i.i.i.i.i177 = icmp ugt i64 %rest.sroa.33.2, 1
  %76 = getelementptr inbounds [0 x i8], [0 x i8]* %rest.sroa.0.2, i64 0, i64 1
  br i1 %_3.i.i.i.i.i.i177, label %"_ZN4core3str21_$LT$impl$u20$str$GT$16is_char_boundary17hb758182025112b0cE.exit.i.i.i181", label %bb59.thread

"_ZN4core3str21_$LT$impl$u20$str$GT$16is_char_boundary17hb758182025112b0cE.exit.i.i.i181": ; preds = %bb46
  %b.i.i.i.i180 = load i8, i8* %76, align 1, !alias.scope !96, !noalias !105
  %77 = icmp sgt i8 %b.i.i.i.i180, -65
  br i1 %77, label %bb3.i.i190, label %bb3.i.i182

bb3.i.i182:                                       ; preds = %"_ZN4core3str21_$LT$impl$u20$str$GT$16is_char_boundary17hb758182025112b0cE.exit.i.i.i181"
; call core::str::slice_error_fail
  call void @_ZN4core3str16slice_error_fail17h0d3b5d2bc1b01573E([0 x i8]* noalias nonnull readonly align 1 %rest.sroa.0.2, i64 %rest.sroa.33.2, i64 1, i64 %rest.sroa.33.2, %"core::panic::location::Location"* noalias nonnull readonly align 8 dereferenceable(24) bitcast (<{ i8*, [16 x i8] }>* @alloc769 to %"core::panic::location::Location"*)) #19
  unreachable

bb3.i.i190:                                       ; preds = %"_ZN4core3str21_$LT$impl$u20$str$GT$16is_char_boundary17hb758182025112b0cE.exit.i.i.i181"
  %78 = getelementptr inbounds [0 x i8], [0 x i8]* %rest.sroa.0.2, i64 0, i64 1
  %len.i.i.i.i183 = add i64 %rest.sroa.33.2, -1
  %x.i.i188 = load i8, i8* %78, align 1, !noalias !108
  %_11.i.i189 = icmp sgt i8 %x.i.i188, -1
  br i1 %_11.i.i189, label %bb7.i.i199, label %bb8.i.i197

bb8.i.i197:                                       ; preds = %bb3.i.i190
  %79 = getelementptr inbounds [0 x i8], [0 x i8]* %rest.sroa.0.2, i64 0, i64 2
  %_3.i.i.i191 = and i8 %x.i.i188, 31
  %80 = zext i8 %_3.i.i.i191 to i32
  %y.i.i192 = load i8, i8* %79, align 1, !noalias !108
  %_3.i10.i.i193 = shl nuw nsw i32 %80, 6
  %_6.i.i.i194 = and i8 %y.i.i192, 63
  %_5.i.i.i195 = zext i8 %_6.i.i.i194 to i32
  %81 = or i32 %_3.i10.i.i193, %_5.i.i.i195
  %_24.i.i196 = icmp ugt i8 %x.i.i188, -33
  br i1 %_24.i.i196, label %bb13.i.i206, label %"_ZN81_$LT$core..str..iter..Chars$u20$as$u20$core..iter..traits..iterator..Iterator$GT$4next17hb034e96f9b490979E.exit214"

bb7.i.i199:                                       ; preds = %bb3.i.i190
  %_13.i.i198 = zext i8 %x.i.i188 to i32
  br label %"_ZN81_$LT$core..str..iter..Chars$u20$as$u20$core..iter..traits..iterator..Iterator$GT$4next17hb034e96f9b490979E.exit214"

bb13.i.i206:                                      ; preds = %bb8.i.i197
  %82 = getelementptr inbounds [0 x i8], [0 x i8]* %rest.sroa.0.2, i64 0, i64 3
  %z.i.i200 = load i8, i8* %82, align 1, !noalias !108
  %_3.i17.i.i201 = shl nuw nsw i32 %_5.i.i.i195, 6
  %_6.i18.i.i202 = and i8 %z.i.i200, 63
  %_5.i19.i.i203 = zext i8 %_6.i18.i.i202 to i32
  %83 = or i32 %_3.i17.i.i201, %_5.i19.i.i203
  %_35.i.i204 = shl nuw nsw i32 %80, 12
  %84 = or i32 %83, %_35.i.i204
  %_38.i.i205 = icmp ugt i8 %x.i.i188, -17
  br i1 %_38.i.i205, label %bb17.i.i213, label %"_ZN81_$LT$core..str..iter..Chars$u20$as$u20$core..iter..traits..iterator..Iterator$GT$4next17hb034e96f9b490979E.exit214"

bb17.i.i213:                                      ; preds = %bb13.i.i206
  %85 = getelementptr inbounds [0 x i8], [0 x i8]* %rest.sroa.0.2, i64 0, i64 4
  %w.i.i207 = load i8, i8* %85, align 1, !noalias !108
  %_45.i.i208 = shl nuw nsw i32 %80, 18
  %_44.i.i209 = and i32 %_45.i.i208, 1835008
  %_3.i26.i.i210 = shl nuw nsw i32 %83, 6
  %_6.i27.i.i211 = and i8 %w.i.i207, 63
  %_5.i28.i.i212 = zext i8 %_6.i27.i.i211 to i32
  %86 = or i32 %_3.i26.i.i210, %_5.i28.i.i212
  %87 = or i32 %86, %_44.i.i209
  br label %"_ZN81_$LT$core..str..iter..Chars$u20$as$u20$core..iter..traits..iterator..Iterator$GT$4next17hb034e96f9b490979E.exit214"

"_ZN81_$LT$core..str..iter..Chars$u20$as$u20$core..iter..traits..iterator..Iterator$GT$4next17hb034e96f9b490979E.exit214": ; preds = %bb8.i.i197, %bb7.i.i199, %bb13.i.i206, %bb17.i.i213
  %88 = phi i32 [ %81, %bb8.i.i197 ], [ %84, %bb13.i.i206 ], [ %87, %bb17.i.i213 ], [ %_13.i.i198, %bb7.i.i199 ]
  %89 = icmp eq i32 %88, 46
  br i1 %89, label %bb51, label %bb59

bb59:                                             ; preds = %"_ZN81_$LT$core..str..iter..Chars$u20$as$u20$core..iter..traits..iterator..Iterator$GT$4next17hb034e96f9b490979E.exit214"
; call core::fmt::Formatter::write_str
  %_101 = call zeroext i1 @_ZN4core3fmt9Formatter9write_str17h89723935f155226aE(%"core::fmt::Formatter"* noalias nonnull align 8 dereferenceable(64) %f, [0 x i8]* noalias nonnull readonly align 1 bitcast (<{ [1 x i8] }>* @alloc770 to [0 x i8]*), i64 1)
  br i1 %_101, label %bb157, label %bb62

bb59.thread:                                      ; preds = %bb46
; call core::fmt::Formatter::write_str
  %_101827 = call zeroext i1 @_ZN4core3fmt9Formatter9write_str17h89723935f155226aE(%"core::fmt::Formatter"* noalias nonnull align 8 dereferenceable(64) %f, [0 x i8]* noalias nonnull readonly align 1 bitcast (<{ [1 x i8] }>* @alloc770 to [0 x i8]*), i64 1)
  br i1 %_101827, label %bb157, label %bb44.backedge

bb51:                                             ; preds = %"_ZN81_$LT$core..str..iter..Chars$u20$as$u20$core..iter..traits..iterator..Iterator$GT$4next17hb034e96f9b490979E.exit214"
; call core::fmt::Formatter::write_str
  %_87 = call zeroext i1 @_ZN4core3fmt9Formatter9write_str17h89723935f155226aE(%"core::fmt::Formatter"* noalias nonnull align 8 dereferenceable(64) %f, [0 x i8]* noalias nonnull readonly align 1 bitcast (<{ [2 x i8] }>* @alloc1091 to [0 x i8]*), i64 2)
  br i1 %_87, label %bb157, label %bb54

bb62:                                             ; preds = %bb59
  br i1 %_3.i.i.i.i.i.i177, label %"_ZN4core3str21_$LT$impl$u20$str$GT$16is_char_boundary17hb758182025112b0cE.exit.i.i.i219", label %bb44.backedge

"_ZN4core3str21_$LT$impl$u20$str$GT$16is_char_boundary17hb758182025112b0cE.exit.i.i.i219": ; preds = %bb62
  %b.i.i.i.i218 = load i8, i8* %78, align 1, !alias.scope !113, !noalias !122
  %90 = icmp sgt i8 %b.i.i.i.i218, -65
  br i1 %90, label %bb44.backedge, label %bb3.i.i220

bb3.i.i220:                                       ; preds = %"_ZN4core3str21_$LT$impl$u20$str$GT$16is_char_boundary17hb758182025112b0cE.exit.i.i.i219"
; call core::str::slice_error_fail
  call void @_ZN4core3str16slice_error_fail17h0d3b5d2bc1b01573E([0 x i8]* noalias nonnull readonly align 1 %rest.sroa.0.2, i64 %rest.sroa.33.2, i64 1, i64 %rest.sroa.33.2, %"core::panic::location::Location"* noalias nonnull readonly align 8 dereferenceable(24) bitcast (<{ i8*, [16 x i8] }>* @alloc774 to %"core::panic::location::Location"*)) #19
  unreachable

bb54:                                             ; preds = %bb51
  %_3.i.i.i.i.i.i223 = icmp ugt i64 %rest.sroa.33.2, 2
  br i1 %_3.i.i.i.i.i.i223, label %"_ZN4core3str21_$LT$impl$u20$str$GT$16is_char_boundary17hb758182025112b0cE.exit.i.i.i227", label %"_ZN4core3str6traits66_$LT$impl$u20$core..ops..index..Index$LT$I$GT$$u20$for$u20$str$GT$5index17h2725d05bf1020748E.exit230"

"_ZN4core3str21_$LT$impl$u20$str$GT$16is_char_boundary17hb758182025112b0cE.exit.i.i.i227": ; preds = %bb54
  %91 = getelementptr inbounds [0 x i8], [0 x i8]* %rest.sroa.0.2, i64 0, i64 2
  %b.i.i.i.i226 = load i8, i8* %91, align 1, !alias.scope !125, !noalias !134
  %92 = icmp sgt i8 %b.i.i.i.i226, -65
  br i1 %92, label %"_ZN4core3str6traits66_$LT$impl$u20$core..ops..index..Index$LT$I$GT$$u20$for$u20$str$GT$5index17h2725d05bf1020748E.exit230", label %bb3.i.i228

bb3.i.i228:                                       ; preds = %"_ZN4core3str21_$LT$impl$u20$str$GT$16is_char_boundary17hb758182025112b0cE.exit.i.i.i227"
; call core::str::slice_error_fail
  call void @_ZN4core3str16slice_error_fail17h0d3b5d2bc1b01573E([0 x i8]* noalias nonnull readonly align 1 %rest.sroa.0.2, i64 %rest.sroa.33.2, i64 2, i64 %rest.sroa.33.2, %"core::panic::location::Location"* noalias nonnull readonly align 8 dereferenceable(24) bitcast (<{ i8*, [16 x i8] }>* @alloc779 to %"core::panic::location::Location"*)) #19
  unreachable

"_ZN4core3str6traits66_$LT$impl$u20$core..ops..index..Index$LT$I$GT$$u20$for$u20$str$GT$5index17h2725d05bf1020748E.exit230": ; preds = %bb54, %"_ZN4core3str21_$LT$impl$u20$str$GT$16is_char_boundary17hb758182025112b0cE.exit.i.i.i227"
  %93 = getelementptr inbounds [0 x i8], [0 x i8]* %rest.sroa.0.2, i64 0, i64 2
  %len.i.i.i.i229 = add i64 %rest.sroa.33.2, -2
  br label %bb44.backedge

bb130:                                            ; preds = %"_ZN4core3str21_$LT$impl$u20$str$GT$11starts_with17hdf50636638ead970E.exit", %bb44
  %94 = getelementptr [0 x i8], [0 x i8]* %rest.sroa.0.2, i64 0, i64 0
  %95 = getelementptr inbounds [0 x i8], [0 x i8]* %rest.sroa.0.2, i64 0, i64 %rest.sroa.33.2
  br label %bb1.i.i.i

bb1.i.i.i:                                        ; preds = %"_ZN97_$LT$core..str..pattern..MultiCharEqSearcher$LT$C$GT$$u20$as$u20$core..str..pattern..Searcher$GT$4next17he30be5bbf0fe91f1E.exit.i.i.i", %bb130
  %_5.sroa.4.0.i = phi i64 [ 0, %bb130 ], [ %108, %"_ZN97_$LT$core..str..pattern..MultiCharEqSearcher$LT$C$GT$$u20$as$u20$core..str..pattern..Searcher$GT$4next17he30be5bbf0fe91f1E.exit.i.i.i" ]
  %_4.idx8.val.i.i.i.i = phi i8* [ %94, %bb130 ], [ %_4.idx.val.i.i.i.i, %"_ZN97_$LT$core..str..pattern..MultiCharEqSearcher$LT$C$GT$$u20$as$u20$core..str..pattern..Searcher$GT$4next17he30be5bbf0fe91f1E.exit.i.i.i" ]
  %_16.i.i.i.i.i = ptrtoint i8* %_4.idx8.val.i.i.i.i to i64
  %_12.i.i.i.i.i.i.i.i = icmp eq i8* %_4.idx8.val.i.i.i.i, %95
  br i1 %_12.i.i.i.i.i.i.i.i, label %bb144, label %bb3.i.i.i.i.i.i.i

bb3.i.i.i.i.i.i.i:                                ; preds = %bb1.i.i.i
  %96 = getelementptr inbounds i8, i8* %_4.idx8.val.i.i.i.i, i64 1
  %x.i.i.i.i.i.i.i = load i8, i8* %_4.idx8.val.i.i.i.i, align 1, !alias.scope !137, !noalias !140
  %_11.i.i.i.i.i.i.i = icmp sgt i8 %x.i.i.i.i.i.i.i, -1
  br i1 %_11.i.i.i.i.i.i.i, label %bb7.i.i.i.i.i.i.i, label %bb8.i.i.i.i.i.i.i

bb8.i.i.i.i.i.i.i:                                ; preds = %bb3.i.i.i.i.i.i.i
  %_3.i.i.i.i.i.i.i.i = and i8 %x.i.i.i.i.i.i.i, 31
  %97 = zext i8 %_3.i.i.i.i.i.i.i.i to i32
  %98 = getelementptr inbounds i8, i8* %_4.idx8.val.i.i.i.i, i64 2
  %y.i.i.i.i.i.i.i = load i8, i8* %96, align 1, !alias.scope !137, !noalias !140
  %_3.i10.i.i.i.i.i.i.i = shl nuw nsw i32 %97, 6
  %_6.i.i.i.i.i.i.i.i = and i8 %y.i.i.i.i.i.i.i, 63
  %_5.i.i.i.i.i.i.i.i = zext i8 %_6.i.i.i.i.i.i.i.i to i32
  %99 = or i32 %_3.i10.i.i.i.i.i.i.i, %_5.i.i.i.i.i.i.i.i
  %_24.i.i.i.i.i.i.i = icmp ugt i8 %x.i.i.i.i.i.i.i, -33
  br i1 %_24.i.i.i.i.i.i.i, label %bb13.i.i.i.i.i.i.i, label %"_ZN97_$LT$core..str..pattern..MultiCharEqSearcher$LT$C$GT$$u20$as$u20$core..str..pattern..Searcher$GT$4next17he30be5bbf0fe91f1E.exit.i.i.i"

bb7.i.i.i.i.i.i.i:                                ; preds = %bb3.i.i.i.i.i.i.i
  %_13.i.i.i.i.i.i.i = zext i8 %x.i.i.i.i.i.i.i to i32
  br label %"_ZN97_$LT$core..str..pattern..MultiCharEqSearcher$LT$C$GT$$u20$as$u20$core..str..pattern..Searcher$GT$4next17he30be5bbf0fe91f1E.exit.i.i.i"

bb13.i.i.i.i.i.i.i:                               ; preds = %bb8.i.i.i.i.i.i.i
  %100 = getelementptr inbounds i8, i8* %_4.idx8.val.i.i.i.i, i64 3
  %z.i.i.i.i.i.i.i = load i8, i8* %98, align 1, !alias.scope !137, !noalias !140
  %_3.i17.i.i.i.i.i.i.i = shl nuw nsw i32 %_5.i.i.i.i.i.i.i.i, 6
  %_6.i18.i.i.i.i.i.i.i = and i8 %z.i.i.i.i.i.i.i, 63
  %_5.i19.i.i.i.i.i.i.i = zext i8 %_6.i18.i.i.i.i.i.i.i to i32
  %101 = or i32 %_3.i17.i.i.i.i.i.i.i, %_5.i19.i.i.i.i.i.i.i
  %_35.i.i.i.i.i.i.i = shl nuw nsw i32 %97, 12
  %102 = or i32 %101, %_35.i.i.i.i.i.i.i
  %_38.i.i.i.i.i.i.i = icmp ugt i8 %x.i.i.i.i.i.i.i, -17
  br i1 %_38.i.i.i.i.i.i.i, label %"_ZN81_$LT$core..str..iter..Chars$u20$as$u20$core..iter..traits..iterator..Iterator$GT$4next17hb034e96f9b490979E.exit.i.i.i.i.i", label %"_ZN97_$LT$core..str..pattern..MultiCharEqSearcher$LT$C$GT$$u20$as$u20$core..str..pattern..Searcher$GT$4next17he30be5bbf0fe91f1E.exit.i.i.i"

"_ZN81_$LT$core..str..iter..Chars$u20$as$u20$core..iter..traits..iterator..Iterator$GT$4next17hb034e96f9b490979E.exit.i.i.i.i.i": ; preds = %bb13.i.i.i.i.i.i.i
  %103 = getelementptr inbounds i8, i8* %_4.idx8.val.i.i.i.i, i64 4
  %w.i.i.i.i.i.i.i = load i8, i8* %100, align 1, !alias.scope !137, !noalias !140
  %_45.i.i.i.i.i.i.i = shl nuw nsw i32 %97, 18
  %_44.i.i.i.i.i.i.i = and i32 %_45.i.i.i.i.i.i.i, 1835008
  %_3.i26.i.i.i.i.i.i.i = shl nuw nsw i32 %101, 6
  %_6.i27.i.i.i.i.i.i.i = and i8 %w.i.i.i.i.i.i.i, 63
  %_5.i28.i.i.i.i.i.i.i = zext i8 %_6.i27.i.i.i.i.i.i.i to i32
  %104 = or i32 %_3.i26.i.i.i.i.i.i.i, %_5.i28.i.i.i.i.i.i.i
  %105 = or i32 %104, %_44.i.i.i.i.i.i.i
  %106 = icmp eq i32 %105, 1114112
  br i1 %106, label %bb144, label %"_ZN97_$LT$core..str..pattern..MultiCharEqSearcher$LT$C$GT$$u20$as$u20$core..str..pattern..Searcher$GT$4next17he30be5bbf0fe91f1E.exit.i.i.i"

"_ZN97_$LT$core..str..pattern..MultiCharEqSearcher$LT$C$GT$$u20$as$u20$core..str..pattern..Searcher$GT$4next17he30be5bbf0fe91f1E.exit.i.i.i": ; preds = %"_ZN81_$LT$core..str..iter..Chars$u20$as$u20$core..iter..traits..iterator..Iterator$GT$4next17hb034e96f9b490979E.exit.i.i.i.i.i", %bb13.i.i.i.i.i.i.i, %bb7.i.i.i.i.i.i.i, %bb8.i.i.i.i.i.i.i
  %_4.idx.val.i.i.i.i = phi i8* [ %103, %"_ZN81_$LT$core..str..iter..Chars$u20$as$u20$core..iter..traits..iterator..Iterator$GT$4next17hb034e96f9b490979E.exit.i.i.i.i.i" ], [ %96, %bb7.i.i.i.i.i.i.i ], [ %100, %bb13.i.i.i.i.i.i.i ], [ %98, %bb8.i.i.i.i.i.i.i ]
  %107 = phi i32 [ %105, %"_ZN81_$LT$core..str..iter..Chars$u20$as$u20$core..iter..traits..iterator..Iterator$GT$4next17hb034e96f9b490979E.exit.i.i.i.i.i" ], [ %_13.i.i.i.i.i.i.i, %bb7.i.i.i.i.i.i.i ], [ %102, %bb13.i.i.i.i.i.i.i ], [ %99, %bb8.i.i.i.i.i.i.i ]
  %_16.i10.i.i.i.i.i = ptrtoint i8* %_4.idx.val.i.i.i.i to i64
  %_11.i.i.i.i.i231 = sub i64 %_5.sroa.4.0.i, %_16.i.i.i.i.i
  %108 = add i64 %_11.i.i.i.i.i231, %_16.i10.i.i.i.i.i
  switch i32 %107, label %bb1.i.i.i [
    i32 46, label %bb132
    i32 36, label %bb132
  ]

bb70:                                             ; preds = %"_ZN4core3str21_$LT$impl$u20$str$GT$11starts_with17hdf50636638ead970E.exit"
  %_3.i.i.i.i.i.i232 = icmp ugt i64 %rest.sroa.33.2, 1
  br i1 %_3.i.i.i.i.i.i232, label %"_ZN4core3str21_$LT$impl$u20$str$GT$16is_char_boundary17hb758182025112b0cE.exit.i.i.i236", label %"_ZN4core3str6traits66_$LT$impl$u20$core..ops..index..Index$LT$I$GT$$u20$for$u20$str$GT$5index17h2725d05bf1020748E.exit239"

"_ZN4core3str21_$LT$impl$u20$str$GT$16is_char_boundary17hb758182025112b0cE.exit.i.i.i236": ; preds = %bb70
  %109 = getelementptr inbounds [0 x i8], [0 x i8]* %rest.sroa.0.2, i64 0, i64 1
  %b.i.i.i.i235 = load i8, i8* %109, align 1, !alias.scope !156, !noalias !165
  %110 = icmp sgt i8 %b.i.i.i.i235, -65
  br i1 %110, label %"_ZN4core3str6traits66_$LT$impl$u20$core..ops..index..Index$LT$I$GT$$u20$for$u20$str$GT$5index17h2725d05bf1020748E.exit239", label %bb3.i.i237

bb3.i.i237:                                       ; preds = %"_ZN4core3str21_$LT$impl$u20$str$GT$16is_char_boundary17hb758182025112b0cE.exit.i.i.i236"
; call core::str::slice_error_fail
  call void @_ZN4core3str16slice_error_fail17h0d3b5d2bc1b01573E([0 x i8]* noalias nonnull readonly align 1 %rest.sroa.0.2, i64 %rest.sroa.33.2, i64 1, i64 %rest.sroa.33.2, %"core::panic::location::Location"* noalias nonnull readonly align 8 dereferenceable(24) bitcast (<{ i8*, [16 x i8] }>* @alloc781 to %"core::panic::location::Location"*)) #19
  unreachable

"_ZN4core3str6traits66_$LT$impl$u20$core..ops..index..Index$LT$I$GT$$u20$for$u20$str$GT$5index17h2725d05bf1020748E.exit239": ; preds = %bb70, %"_ZN4core3str21_$LT$impl$u20$str$GT$16is_char_boundary17hb758182025112b0cE.exit.i.i.i236"
  %111 = getelementptr inbounds [0 x i8], [0 x i8]* %rest.sroa.0.2, i64 0, i64 1
  %len.i.i.i.i238 = add i64 %rest.sroa.33.2, -1
  call void @llvm.lifetime.start.p0i8(i64 24, i8* nonnull %5), !noalias !168
  call void @llvm.lifetime.start.p0i8(i64 48, i8* nonnull %6), !noalias !168
  store i8* %111, i8** %7, align 8, !alias.scope !171, !noalias !174
  store i64 %len.i.i.i.i238, i64* %8, align 8, !alias.scope !171, !noalias !174
  store i64 0, i64* %9, align 8, !alias.scope !171, !noalias !174
  store i64 %len.i.i.i.i238, i64* %10, align 8, !alias.scope !171, !noalias !174
  store i32 36, i32* %11, align 8, !alias.scope !171, !noalias !174
  store i64 1, i64* %12, align 8, !alias.scope !171, !noalias !174
  store i32 36, i32* %_16.sroa.0.0..sroa_cast1.i.i, align 4, !alias.scope !171, !noalias !174
; call <core::str::pattern::CharSearcher as core::str::pattern::Searcher>::next_match
  call fastcc void @"_ZN81_$LT$core..str..pattern..CharSearcher$u20$as$u20$core..str..pattern..Searcher$GT$10next_match17he15cdcbcc6506159E"(%"core::option::Option<(usize, usize)>"* noalias nocapture nonnull dereferenceable(24) %_3.i, %"core::str::pattern::CharSearcher"* noalias nonnull align 8 dereferenceable(48) %_5.i)
  %_3.idx.val.i = load i64, i64* %_3.idx.i, align 8, !noalias !168
  %_3.idx1.val.i = load i64, i64* %_3.idx1.i, align 8, !noalias !168
  %switch.not.i.i240 = icmp eq i64 %_3.idx.val.i, 1
  call void @llvm.lifetime.end.p0i8(i64 24, i8* nonnull %5), !noalias !168
  call void @llvm.lifetime.end.p0i8(i64 48, i8* nonnull %6), !noalias !168
  br i1 %switch.not.i.i240, label %bb73, label %bb144

bb73:                                             ; preds = %"_ZN4core3str6traits66_$LT$impl$u20$core..ops..index..Index$LT$I$GT$$u20$for$u20$str$GT$5index17h2725d05bf1020748E.exit239"
  call void @llvm.experimental.noalias.scope.decl(metadata !176)
  call void @llvm.experimental.noalias.scope.decl(metadata !179)
  %_3.i.i241 = icmp eq i64 %_3.idx1.val.i, -1
  br i1 %_3.i.i241, label %bb2.i.i248, label %bb2.i.i.i.i.i

bb2.i.i.i.i.i:                                    ; preds = %bb73
  %exclusive_end.i.i.i = add nuw i64 %_3.idx1.val.i, 1
  br i1 %_3.i.i.i.i.i.i232, label %"_ZN4core3str21_$LT$impl$u20$str$GT$16is_char_boundary17hb758182025112b0cE.exit.i.i.i.i247", label %bb2.i3.i.i.i.i

"_ZN4core3str21_$LT$impl$u20$str$GT$16is_char_boundary17hb758182025112b0cE.exit.i.i.i.i247": ; preds = %bb2.i.i.i.i.i
  %b.i.i.i.i.i246 = load i8, i8* %111, align 1, !alias.scope !182, !noalias !189
  %112 = icmp sgt i8 %b.i.i.i.i.i246, -65
  br i1 %112, label %bb2.i3.i.i.i.i, label %bb2.i.i.i

bb2.i3.i.i.i.i:                                   ; preds = %bb2.i.i.i.i.i, %"_ZN4core3str21_$LT$impl$u20$str$GT$16is_char_boundary17hb758182025112b0cE.exit.i.i.i.i247"
  %_3.i.i.i2.i.i.i.i = icmp ult i64 %exclusive_end.i.i.i, %rest.sroa.33.2
  br i1 %_3.i.i.i2.i.i.i.i, label %"_ZN4core3str21_$LT$impl$u20$str$GT$16is_char_boundary17hb758182025112b0cE.exit8.i.i.i.i", label %bb7.i4.i.i.i.i

bb7.i4.i.i.i.i:                                   ; preds = %bb2.i3.i.i.i.i
  %113 = icmp eq i64 %exclusive_end.i.i.i, %rest.sroa.33.2
  br i1 %113, label %"_ZN4core3str6traits66_$LT$impl$u20$core..ops..index..Index$LT$I$GT$$u20$for$u20$str$GT$5index17h21970c02d2abd215E.exit", label %bb2.i.i.i

"_ZN4core3str21_$LT$impl$u20$str$GT$16is_char_boundary17hb758182025112b0cE.exit8.i.i.i.i": ; preds = %bb2.i3.i.i.i.i
  %114 = getelementptr inbounds [0 x i8], [0 x i8]* %rest.sroa.0.2, i64 0, i64 %exclusive_end.i.i.i
  %b.i5.i.i.i.i = load i8, i8* %114, align 1, !alias.scope !193, !noalias !189
  %115 = icmp sgt i8 %b.i5.i.i.i.i, -65
  br i1 %115, label %"_ZN4core3str6traits66_$LT$impl$u20$core..ops..index..Index$LT$I$GT$$u20$for$u20$str$GT$5index17h21970c02d2abd215E.exit.thread", label %bb2.i.i.i

"_ZN4core3str6traits66_$LT$impl$u20$core..ops..index..Index$LT$I$GT$$u20$for$u20$str$GT$5index17h21970c02d2abd215E.exit.thread": ; preds = %"_ZN4core3str21_$LT$impl$u20$str$GT$16is_char_boundary17hb758182025112b0cE.exit8.i.i.i.i"
  %_135830 = add nuw i64 %_3.idx1.val.i, 2
  br label %bb2.i.i.i.i250

bb2.i.i.i:                                        ; preds = %"_ZN4core3str21_$LT$impl$u20$str$GT$16is_char_boundary17hb758182025112b0cE.exit8.i.i.i.i", %bb7.i4.i.i.i.i, %"_ZN4core3str21_$LT$impl$u20$str$GT$16is_char_boundary17hb758182025112b0cE.exit.i.i.i.i247"
; call core::str::slice_error_fail
  call void @_ZN4core3str16slice_error_fail17h0d3b5d2bc1b01573E([0 x i8]* noalias nonnull readonly align 1 %rest.sroa.0.2, i64 %rest.sroa.33.2, i64 1, i64 %exclusive_end.i.i.i, %"core::panic::location::Location"* noalias nonnull readonly align 8 dereferenceable(24) bitcast (<{ i8*, [16 x i8] }>* @alloc783 to %"core::panic::location::Location"*)) #19, !noalias !196
  unreachable

bb2.i.i248:                                       ; preds = %bb73
; call core::str::traits::str_index_overflow_fail
  call void @_ZN4core3str6traits23str_index_overflow_fail17h9d3dc7c5a53f2a5eE(%"core::panic::location::Location"* noalias readonly align 8 dereferenceable(24) bitcast (<{ i8*, [16 x i8] }>* @alloc783 to %"core::panic::location::Location"*)) #19, !noalias !197
  unreachable

"_ZN4core3str6traits66_$LT$impl$u20$core..ops..index..Index$LT$I$GT$$u20$for$u20$str$GT$5index17h21970c02d2abd215E.exit": ; preds = %bb7.i4.i.i.i.i
  %_135 = add i64 %_3.idx1.val.i, 2
  %116 = icmp eq i64 %_135, 0
  br i1 %116, label %"_ZN4core3str6traits66_$LT$impl$u20$core..ops..index..Index$LT$I$GT$$u20$for$u20$str$GT$5index17h2725d05bf1020748E.exit256.thread", label %bb2.i.i.i.i250

"_ZN4core3str6traits66_$LT$impl$u20$core..ops..index..Index$LT$I$GT$$u20$for$u20$str$GT$5index17h2725d05bf1020748E.exit256.thread": ; preds = %"_ZN4core3str6traits66_$LT$impl$u20$core..ops..index..Index$LT$I$GT$$u20$for$u20$str$GT$5index17h21970c02d2abd215E.exit"
  %117 = getelementptr inbounds [0 x i8], [0 x i8]* %rest.sroa.0.2, i64 0, i64 %_135
  %len.i.i.i.i255835 = sub nuw nsw i64 %rest.sroa.33.2, %_135
  br label %"_ZN4core3str21_$LT$impl$u20$str$GT$11starts_with17hdf50636638ead970E.exit300"

bb2.i.i.i.i250:                                   ; preds = %"_ZN4core3str6traits66_$LT$impl$u20$core..ops..index..Index$LT$I$GT$$u20$for$u20$str$GT$5index17h21970c02d2abd215E.exit.thread", %"_ZN4core3str6traits66_$LT$impl$u20$core..ops..index..Index$LT$I$GT$$u20$for$u20$str$GT$5index17h21970c02d2abd215E.exit"
  %_135831 = phi i64 [ %_135830, %"_ZN4core3str6traits66_$LT$impl$u20$core..ops..index..Index$LT$I$GT$$u20$for$u20$str$GT$5index17h21970c02d2abd215E.exit.thread" ], [ %_135, %"_ZN4core3str6traits66_$LT$impl$u20$core..ops..index..Index$LT$I$GT$$u20$for$u20$str$GT$5index17h21970c02d2abd215E.exit" ]
  %_3.i.i.i.i.i.i249 = icmp ugt i64 %rest.sroa.33.2, %_135831
  br i1 %_3.i.i.i.i.i.i249, label %"_ZN4core3str21_$LT$impl$u20$str$GT$16is_char_boundary17hb758182025112b0cE.exit.i.i.i253", label %bb7.i.i.i.i251

bb7.i.i.i.i251:                                   ; preds = %bb2.i.i.i.i250
  %118 = icmp eq i64 %rest.sroa.33.2, %_135831
  br i1 %118, label %"_ZN4core3str6traits66_$LT$impl$u20$core..ops..index..Index$LT$I$GT$$u20$for$u20$str$GT$5index17h2725d05bf1020748E.exit256", label %bb3.i.i254

"_ZN4core3str21_$LT$impl$u20$str$GT$16is_char_boundary17hb758182025112b0cE.exit.i.i.i253": ; preds = %bb2.i.i.i.i250
  %119 = getelementptr inbounds [0 x i8], [0 x i8]* %rest.sroa.0.2, i64 0, i64 %_135831
  %b.i.i.i.i252 = load i8, i8* %119, align 1, !alias.scope !198, !noalias !207
  %120 = icmp sgt i8 %b.i.i.i.i252, -65
  br i1 %120, label %"_ZN4core3str6traits66_$LT$impl$u20$core..ops..index..Index$LT$I$GT$$u20$for$u20$str$GT$5index17h2725d05bf1020748E.exit256", label %bb3.i.i254

bb3.i.i254:                                       ; preds = %"_ZN4core3str21_$LT$impl$u20$str$GT$16is_char_boundary17hb758182025112b0cE.exit.i.i.i253", %bb7.i.i.i.i251
; call core::str::slice_error_fail
  call void @_ZN4core3str16slice_error_fail17h0d3b5d2bc1b01573E([0 x i8]* noalias nonnull readonly align 1 %rest.sroa.0.2, i64 %rest.sroa.33.2, i64 %_135831, i64 %rest.sroa.33.2, %"core::panic::location::Location"* noalias nonnull readonly align 8 dereferenceable(24) bitcast (<{ i8*, [16 x i8] }>* @alloc785 to %"core::panic::location::Location"*)) #19
  unreachable

"_ZN4core3str6traits66_$LT$impl$u20$core..ops..index..Index$LT$I$GT$$u20$for$u20$str$GT$5index17h2725d05bf1020748E.exit256": ; preds = %bb7.i.i.i.i251, %"_ZN4core3str21_$LT$impl$u20$str$GT$16is_char_boundary17hb758182025112b0cE.exit.i.i.i253"
  %121 = getelementptr inbounds [0 x i8], [0 x i8]* %rest.sroa.0.2, i64 0, i64 %_135831
  %len.i.i.i.i255 = sub i64 %rest.sroa.33.2, %_135831
  switch i64 %_3.idx1.val.i, label %"_ZN4core3str21_$LT$impl$u20$str$GT$11starts_with17hdf50636638ead970E.exit300" [
    i64 2, label %"_ZN4core3str6traits54_$LT$impl$u20$core..cmp..PartialEq$u20$for$u20$str$GT$2eq17h711088157d21858aE.exit"
    i64 1, label %"_ZN4core3str6traits54_$LT$impl$u20$core..cmp..PartialEq$u20$for$u20$str$GT$2eq17h711088157d21858aE.exit293"
    i64 0, label %bb144
  ]

"_ZN4core3str6traits54_$LT$impl$u20$core..cmp..PartialEq$u20$for$u20$str$GT$2eq17h711088157d21858aE.exit": ; preds = %"_ZN4core3str6traits66_$LT$impl$u20$core..ops..index..Index$LT$I$GT$$u20$for$u20$str$GT$5index17h2725d05bf1020748E.exit256"
  %bcmp.i.i.i.i = call i32 @bcmp(i8* noundef nonnull dereferenceable(2) %111, i8* noundef nonnull dereferenceable(2) getelementptr inbounds (<{ [2 x i8] }>, <{ [2 x i8] }>* @alloc786, i64 0, i32 0, i64 0), i64 2) #20, !alias.scope !210
  %122 = icmp eq i32 %bcmp.i.i.i.i, 0
  br i1 %122, label %bb123, label %"_ZN4core3str6traits54_$LT$impl$u20$core..cmp..PartialEq$u20$for$u20$str$GT$2eq17h711088157d21858aE.exit263"

bb144:                                            ; preds = %"_ZN4core3str6traits54_$LT$impl$u20$core..cmp..PartialEq$u20$for$u20$str$GT$2eq17h711088157d21858aE.exit293", %"_ZN4core3str6traits66_$LT$impl$u20$core..ops..index..Index$LT$I$GT$$u20$for$u20$str$GT$5index17h2725d05bf1020748E.exit256", %_ZN4core4iter6traits8iterator8Iterator3all17h248997625020b537E.exit, %"_ZN4core6option15Option$LT$T$GT$8and_then17hd191c9490210f2acE.exit", %"_ZN4core3str21_$LT$impl$u20$str$GT$11starts_with17hdf50636638ead970E.exit300", %"_ZN4core3str6traits66_$LT$impl$u20$core..ops..index..Index$LT$I$GT$$u20$for$u20$str$GT$5index17h2725d05bf1020748E.exit239", %"_ZN81_$LT$core..str..iter..Chars$u20$as$u20$core..iter..traits..iterator..Iterator$GT$4next17hb034e96f9b490979E.exit.i.i.i.i.i", %bb1.i.i.i, %bb120
; call core::fmt::Formatter::write_str
  %_219 = call zeroext i1 @_ZN4core3fmt9Formatter9write_str17h89723935f155226aE(%"core::fmt::Formatter"* noalias nonnull align 8 dereferenceable(64) %f, [0 x i8]* noalias nonnull readonly align 1 %rest.sroa.0.2, i64 %rest.sroa.33.2)
  br i1 %_219, label %bb157, label %bb2

"_ZN4core3str6traits54_$LT$impl$u20$core..cmp..PartialEq$u20$for$u20$str$GT$2eq17h711088157d21858aE.exit263": ; preds = %"_ZN4core3str6traits54_$LT$impl$u20$core..cmp..PartialEq$u20$for$u20$str$GT$2eq17h711088157d21858aE.exit"
  %bcmp.i.i.i.i260 = call i32 @bcmp(i8* noundef nonnull dereferenceable(2) %111, i8* noundef nonnull dereferenceable(2) getelementptr inbounds (<{ [2 x i8] }>, <{ [2 x i8] }>* @alloc788, i64 0, i32 0, i64 0), i64 2) #20, !alias.scope !220
  %123 = icmp eq i32 %bcmp.i.i.i.i260, 0
  br i1 %123, label %bb123, label %"_ZN4core3str6traits54_$LT$impl$u20$core..cmp..PartialEq$u20$for$u20$str$GT$2eq17h711088157d21858aE.exit268"

bb123:                                            ; preds = %"_ZN4core3str6traits54_$LT$impl$u20$core..cmp..PartialEq$u20$for$u20$str$GT$2eq17h711088157d21858aE.exit293", %"_ZN4core3str6traits54_$LT$impl$u20$core..cmp..PartialEq$u20$for$u20$str$GT$2eq17h711088157d21858aE.exit288", %"_ZN4core3str6traits54_$LT$impl$u20$core..cmp..PartialEq$u20$for$u20$str$GT$2eq17h711088157d21858aE.exit283", %"_ZN4core3str6traits54_$LT$impl$u20$core..cmp..PartialEq$u20$for$u20$str$GT$2eq17h711088157d21858aE.exit278", %"_ZN4core3str6traits54_$LT$impl$u20$core..cmp..PartialEq$u20$for$u20$str$GT$2eq17h711088157d21858aE.exit273", %"_ZN4core3str6traits54_$LT$impl$u20$core..cmp..PartialEq$u20$for$u20$str$GT$2eq17h711088157d21858aE.exit268", %"_ZN4core3str6traits54_$LT$impl$u20$core..cmp..PartialEq$u20$for$u20$str$GT$2eq17h711088157d21858aE.exit263", %"_ZN4core3str6traits54_$LT$impl$u20$core..cmp..PartialEq$u20$for$u20$str$GT$2eq17h711088157d21858aE.exit"
  %unescaped.sroa.0.0 = phi [0 x i8]* [ bitcast (<{ [1 x i8] }>* @alloc787 to [0 x i8]*), %"_ZN4core3str6traits54_$LT$impl$u20$core..cmp..PartialEq$u20$for$u20$str$GT$2eq17h711088157d21858aE.exit" ], [ bitcast (<{ [1 x i8] }>* @alloc1346 to [0 x i8]*), %"_ZN4core3str6traits54_$LT$impl$u20$core..cmp..PartialEq$u20$for$u20$str$GT$2eq17h711088157d21858aE.exit263" ], [ bitcast (<{ [1 x i8] }>* @alloc1336 to [0 x i8]*), %"_ZN4core3str6traits54_$LT$impl$u20$core..cmp..PartialEq$u20$for$u20$str$GT$2eq17h711088157d21858aE.exit268" ], [ bitcast (<{ [1 x i8] }>* @alloc1251 to [0 x i8]*), %"_ZN4core3str6traits54_$LT$impl$u20$core..cmp..PartialEq$u20$for$u20$str$GT$2eq17h711088157d21858aE.exit273" ], [ bitcast (<{ [1 x i8] }>* @alloc1267 to [0 x i8]*), %"_ZN4core3str6traits54_$LT$impl$u20$core..cmp..PartialEq$u20$for$u20$str$GT$2eq17h711088157d21858aE.exit278" ], [ bitcast (<{ [1 x i8] }>* @alloc1309 to [0 x i8]*), %"_ZN4core3str6traits54_$LT$impl$u20$core..cmp..PartialEq$u20$for$u20$str$GT$2eq17h711088157d21858aE.exit283" ], [ bitcast (<{ [1 x i8] }>* @alloc1318 to [0 x i8]*), %"_ZN4core3str6traits54_$LT$impl$u20$core..cmp..PartialEq$u20$for$u20$str$GT$2eq17h711088157d21858aE.exit288" ], [ bitcast (<{ [1 x i8] }>* @alloc1315 to [0 x i8]*), %"_ZN4core3str6traits54_$LT$impl$u20$core..cmp..PartialEq$u20$for$u20$str$GT$2eq17h711088157d21858aE.exit293" ]
; call core::fmt::Formatter::write_str
  %_186 = call zeroext i1 @_ZN4core3fmt9Formatter9write_str17h89723935f155226aE(%"core::fmt::Formatter"* noalias nonnull align 8 dereferenceable(64) %f, [0 x i8]* noalias nonnull readonly align 1 %unescaped.sroa.0.0, i64 1)
  br i1 %_186, label %bb157, label %bb44.backedge

"_ZN4core3str6traits54_$LT$impl$u20$core..cmp..PartialEq$u20$for$u20$str$GT$2eq17h711088157d21858aE.exit268": ; preds = %"_ZN4core3str6traits54_$LT$impl$u20$core..cmp..PartialEq$u20$for$u20$str$GT$2eq17h711088157d21858aE.exit263"
  %bcmp.i.i.i.i265 = call i32 @bcmp(i8* noundef nonnull dereferenceable(2) %111, i8* noundef nonnull dereferenceable(2) getelementptr inbounds (<{ [2 x i8] }>, <{ [2 x i8] }>* @alloc790, i64 0, i32 0, i64 0), i64 2) #20, !alias.scope !230
  %124 = icmp eq i32 %bcmp.i.i.i.i265, 0
  br i1 %124, label %bb123, label %"_ZN4core3str6traits54_$LT$impl$u20$core..cmp..PartialEq$u20$for$u20$str$GT$2eq17h711088157d21858aE.exit273"

"_ZN4core3str6traits54_$LT$impl$u20$core..cmp..PartialEq$u20$for$u20$str$GT$2eq17h711088157d21858aE.exit273": ; preds = %"_ZN4core3str6traits54_$LT$impl$u20$core..cmp..PartialEq$u20$for$u20$str$GT$2eq17h711088157d21858aE.exit268"
  %bcmp.i.i.i.i270 = call i32 @bcmp(i8* noundef nonnull dereferenceable(2) %111, i8* noundef nonnull dereferenceable(2) getelementptr inbounds (<{ [2 x i8] }>, <{ [2 x i8] }>* @alloc792, i64 0, i32 0, i64 0), i64 2) #20, !alias.scope !240
  %125 = icmp eq i32 %bcmp.i.i.i.i270, 0
  br i1 %125, label %bb123, label %"_ZN4core3str6traits54_$LT$impl$u20$core..cmp..PartialEq$u20$for$u20$str$GT$2eq17h711088157d21858aE.exit278"

"_ZN4core3str6traits54_$LT$impl$u20$core..cmp..PartialEq$u20$for$u20$str$GT$2eq17h711088157d21858aE.exit278": ; preds = %"_ZN4core3str6traits54_$LT$impl$u20$core..cmp..PartialEq$u20$for$u20$str$GT$2eq17h711088157d21858aE.exit273"
  %bcmp.i.i.i.i275 = call i32 @bcmp(i8* noundef nonnull dereferenceable(2) %111, i8* noundef nonnull dereferenceable(2) getelementptr inbounds (<{ [2 x i8] }>, <{ [2 x i8] }>* @alloc794, i64 0, i32 0, i64 0), i64 2) #20, !alias.scope !250
  %126 = icmp eq i32 %bcmp.i.i.i.i275, 0
  br i1 %126, label %bb123, label %"_ZN4core3str6traits54_$LT$impl$u20$core..cmp..PartialEq$u20$for$u20$str$GT$2eq17h711088157d21858aE.exit283"

"_ZN4core3str6traits54_$LT$impl$u20$core..cmp..PartialEq$u20$for$u20$str$GT$2eq17h711088157d21858aE.exit283": ; preds = %"_ZN4core3str6traits54_$LT$impl$u20$core..cmp..PartialEq$u20$for$u20$str$GT$2eq17h711088157d21858aE.exit278"
  %bcmp.i.i.i.i280 = call i32 @bcmp(i8* noundef nonnull dereferenceable(2) %111, i8* noundef nonnull dereferenceable(2) getelementptr inbounds (<{ [2 x i8] }>, <{ [2 x i8] }>* @alloc796, i64 0, i32 0, i64 0), i64 2) #20, !alias.scope !260
  %127 = icmp eq i32 %bcmp.i.i.i.i280, 0
  br i1 %127, label %bb123, label %"_ZN4core3str6traits54_$LT$impl$u20$core..cmp..PartialEq$u20$for$u20$str$GT$2eq17h711088157d21858aE.exit288"

"_ZN4core3str6traits54_$LT$impl$u20$core..cmp..PartialEq$u20$for$u20$str$GT$2eq17h711088157d21858aE.exit288": ; preds = %"_ZN4core3str6traits54_$LT$impl$u20$core..cmp..PartialEq$u20$for$u20$str$GT$2eq17h711088157d21858aE.exit283"
  %bcmp.i.i.i.i285 = call i32 @bcmp(i8* noundef nonnull dereferenceable(2) %111, i8* noundef nonnull dereferenceable(2) getelementptr inbounds (<{ [2 x i8] }>, <{ [2 x i8] }>* @alloc798, i64 0, i32 0, i64 0), i64 2) #20, !alias.scope !270
  %128 = icmp eq i32 %bcmp.i.i.i.i285, 0
  br i1 %128, label %bb123, label %"_ZN4core3str21_$LT$impl$u20$str$GT$11starts_with17hdf50636638ead970E.exit300"

"_ZN4core3str6traits54_$LT$impl$u20$core..cmp..PartialEq$u20$for$u20$str$GT$2eq17h711088157d21858aE.exit293": ; preds = %"_ZN4core3str6traits66_$LT$impl$u20$core..ops..index..Index$LT$I$GT$$u20$for$u20$str$GT$5index17h2725d05bf1020748E.exit256"
  %lhsc = load i8, i8* %111, align 1
  switch i8 %lhsc, label %bb144 [
    i8 67, label %bb123
    i8 117, label %"_ZN4core3str6traits66_$LT$impl$u20$core..ops..index..Index$LT$I$GT$$u20$for$u20$str$GT$5index17h2725d05bf1020748E.exit308"
  ]

"_ZN4core3str21_$LT$impl$u20$str$GT$11starts_with17hdf50636638ead970E.exit300": ; preds = %"_ZN4core3str6traits66_$LT$impl$u20$core..ops..index..Index$LT$I$GT$$u20$for$u20$str$GT$5index17h2725d05bf1020748E.exit256", %"_ZN4core3str6traits54_$LT$impl$u20$core..cmp..PartialEq$u20$for$u20$str$GT$2eq17h711088157d21858aE.exit288", %"_ZN4core3str6traits66_$LT$impl$u20$core..ops..index..Index$LT$I$GT$$u20$for$u20$str$GT$5index17h2725d05bf1020748E.exit256.thread"
  %.ph = phi i8* [ %121, %"_ZN4core3str6traits54_$LT$impl$u20$core..cmp..PartialEq$u20$for$u20$str$GT$2eq17h711088157d21858aE.exit288" ], [ %117, %"_ZN4core3str6traits66_$LT$impl$u20$core..ops..index..Index$LT$I$GT$$u20$for$u20$str$GT$5index17h2725d05bf1020748E.exit256.thread" ], [ %121, %"_ZN4core3str6traits66_$LT$impl$u20$core..ops..index..Index$LT$I$GT$$u20$for$u20$str$GT$5index17h2725d05bf1020748E.exit256" ]
  %len.i.i.i.i255836841.ph = phi i64 [ %len.i.i.i.i255, %"_ZN4core3str6traits54_$LT$impl$u20$core..cmp..PartialEq$u20$for$u20$str$GT$2eq17h711088157d21858aE.exit288" ], [ %len.i.i.i.i255835, %"_ZN4core3str6traits66_$LT$impl$u20$core..ops..index..Index$LT$I$GT$$u20$for$u20$str$GT$5index17h2725d05bf1020748E.exit256.thread" ], [ %len.i.i.i.i255, %"_ZN4core3str6traits66_$LT$impl$u20$core..ops..index..Index$LT$I$GT$$u20$for$u20$str$GT$5index17h2725d05bf1020748E.exit256" ]
  %rhsc372.pr = load i8, i8* %111, align 1
  %129 = icmp eq i8 %rhsc372.pr, 117
  br i1 %129, label %bb103, label %bb144

bb103:                                            ; preds = %"_ZN4core3str21_$LT$impl$u20$str$GT$11starts_with17hdf50636638ead970E.exit300"
  %_3.i.i.i.i.i.i301 = icmp ugt i64 %_3.idx1.val.i, 1
  br i1 %_3.i.i.i.i.i.i301, label %"_ZN4core3str21_$LT$impl$u20$str$GT$16is_char_boundary17hb758182025112b0cE.exit.i.i.i305", label %bb3.i.i306

"_ZN4core3str21_$LT$impl$u20$str$GT$16is_char_boundary17hb758182025112b0cE.exit.i.i.i305": ; preds = %bb103
  %130 = getelementptr inbounds [0 x i8], [0 x i8]* %rest.sroa.0.2, i64 0, i64 2
  %b.i.i.i.i304 = load i8, i8* %130, align 1, !alias.scope !280, !noalias !289
  %131 = icmp sgt i8 %b.i.i.i.i304, -65
  br i1 %131, label %"_ZN4core3str6traits66_$LT$impl$u20$core..ops..index..Index$LT$I$GT$$u20$for$u20$str$GT$5index17h2725d05bf1020748E.exit308", label %bb3.i.i306

bb3.i.i306:                                       ; preds = %bb103, %"_ZN4core3str21_$LT$impl$u20$str$GT$16is_char_boundary17hb758182025112b0cE.exit.i.i.i305"
  %132 = bitcast i8* %111 to [0 x i8]*
; call core::str::slice_error_fail
  call void @_ZN4core3str16slice_error_fail17h0d3b5d2bc1b01573E([0 x i8]* noalias nonnull readonly align 1 %132, i64 %_3.idx1.val.i, i64 1, i64 %_3.idx1.val.i, %"core::panic::location::Location"* noalias nonnull readonly align 8 dereferenceable(24) bitcast (<{ i8*, [16 x i8] }>* @alloc805 to %"core::panic::location::Location"*)) #19
  unreachable

"_ZN4core3str6traits66_$LT$impl$u20$core..ops..index..Index$LT$I$GT$$u20$for$u20$str$GT$5index17h2725d05bf1020748E.exit308": ; preds = %"_ZN4core3str6traits54_$LT$impl$u20$core..cmp..PartialEq$u20$for$u20$str$GT$2eq17h711088157d21858aE.exit293", %"_ZN4core3str21_$LT$impl$u20$str$GT$16is_char_boundary17hb758182025112b0cE.exit.i.i.i305"
  %133 = phi i8* [ %.ph, %"_ZN4core3str21_$LT$impl$u20$str$GT$16is_char_boundary17hb758182025112b0cE.exit.i.i.i305" ], [ %121, %"_ZN4core3str6traits54_$LT$impl$u20$core..cmp..PartialEq$u20$for$u20$str$GT$2eq17h711088157d21858aE.exit293" ]
  %len.i.i.i.i255836841849853 = phi i64 [ %len.i.i.i.i255836841.ph, %"_ZN4core3str21_$LT$impl$u20$str$GT$16is_char_boundary17hb758182025112b0cE.exit.i.i.i305" ], [ %len.i.i.i.i255, %"_ZN4core3str6traits54_$LT$impl$u20$core..cmp..PartialEq$u20$for$u20$str$GT$2eq17h711088157d21858aE.exit293" ]
  %134 = getelementptr inbounds [0 x i8], [0 x i8]* %rest.sroa.0.2, i64 0, i64 2
  %len.i.i.i.i307 = add i64 %_3.idx1.val.i, -1
  %135 = bitcast i8* %134 to [0 x i8]*
  %136 = getelementptr inbounds i8, i8* %134, i64 %len.i.i.i.i307
  br label %bb1.i.i

bb1.i.i:                                          ; preds = %bb3.i.i311, %"_ZN4core3str6traits66_$LT$impl$u20$core..ops..index..Index$LT$I$GT$$u20$for$u20$str$GT$5index17h2725d05bf1020748E.exit308"
  %_15.i.i.i.i.i = phi i8* [ %_15.i.i.i17.i.i, %bb3.i.i311 ], [ %134, %"_ZN4core3str6traits66_$LT$impl$u20$core..ops..index..Index$LT$I$GT$$u20$for$u20$str$GT$5index17h2725d05bf1020748E.exit308" ]
  %_12.i.i.i.i.i = icmp eq i8* %_15.i.i.i.i.i, %136
  br i1 %_12.i.i.i.i.i, label %_ZN4core4iter6traits8iterator8Iterator3all17h248997625020b537E.exit, label %bb3.i.i.i.i

bb3.i.i.i.i:                                      ; preds = %bb1.i.i
  %137 = getelementptr inbounds i8, i8* %_15.i.i.i.i.i, i64 1
  %x.i.i.i.i = load i8, i8* %_15.i.i.i.i.i, align 1, !noalias !292
  %_11.i.i.i.i = icmp sgt i8 %x.i.i.i.i, -1
  br i1 %_11.i.i.i.i, label %bb7.i.i.i.i310, label %bb8.i.i.i.i

bb8.i.i.i.i:                                      ; preds = %bb3.i.i.i.i
  %_3.i.i.i.i.i = and i8 %x.i.i.i.i, 31
  %138 = zext i8 %_3.i.i.i.i.i to i32
  %139 = getelementptr inbounds i8, i8* %_15.i.i.i.i.i, i64 2
  %y.i.i.i.i = load i8, i8* %137, align 1, !noalias !292
  %_3.i10.i.i.i.i = shl nuw nsw i32 %138, 6
  %_6.i.i.i.i.i = and i8 %y.i.i.i.i, 63
  %_5.i.i.i.i.i = zext i8 %_6.i.i.i.i.i to i32
  %140 = or i32 %_3.i10.i.i.i.i, %_5.i.i.i.i.i
  %_24.i.i.i.i = icmp ugt i8 %x.i.i.i.i, -33
  br i1 %_24.i.i.i.i, label %bb13.i.i.i.i, label %bb3.i.i311

bb7.i.i.i.i310:                                   ; preds = %bb3.i.i.i.i
  %_13.i.i.i.i = zext i8 %x.i.i.i.i to i32
  br label %bb3.i.i311

bb13.i.i.i.i:                                     ; preds = %bb8.i.i.i.i
  %141 = getelementptr inbounds i8, i8* %_15.i.i.i.i.i, i64 3
  %z.i.i.i.i = load i8, i8* %139, align 1, !noalias !292
  %_3.i17.i.i.i.i = shl nuw nsw i32 %_5.i.i.i.i.i, 6
  %_6.i18.i.i.i.i = and i8 %z.i.i.i.i, 63
  %_5.i19.i.i.i.i = zext i8 %_6.i18.i.i.i.i to i32
  %142 = or i32 %_3.i17.i.i.i.i, %_5.i19.i.i.i.i
  %_35.i.i.i.i = shl nuw nsw i32 %138, 12
  %143 = or i32 %142, %_35.i.i.i.i
  %_38.i.i.i.i = icmp ugt i8 %x.i.i.i.i, -17
  br i1 %_38.i.i.i.i, label %"_ZN81_$LT$core..str..iter..Chars$u20$as$u20$core..iter..traits..iterator..Iterator$GT$4next17hb034e96f9b490979E.exit.i.i", label %bb3.i.i311

"_ZN81_$LT$core..str..iter..Chars$u20$as$u20$core..iter..traits..iterator..Iterator$GT$4next17hb034e96f9b490979E.exit.i.i": ; preds = %bb13.i.i.i.i
  %144 = getelementptr inbounds i8, i8* %_15.i.i.i.i.i, i64 4
  %w.i.i.i.i = load i8, i8* %141, align 1, !noalias !292
  %_45.i.i.i.i = shl nuw nsw i32 %138, 18
  %_44.i.i.i.i = and i32 %_45.i.i.i.i, 1835008
  %_3.i26.i.i.i.i = shl nuw nsw i32 %142, 6
  %_6.i27.i.i.i.i = and i8 %w.i.i.i.i, 63
  %_5.i28.i.i.i.i = zext i8 %_6.i27.i.i.i.i to i32
  %145 = or i32 %_3.i26.i.i.i.i, %_5.i28.i.i.i.i
  %146 = or i32 %145, %_44.i.i.i.i
  %.not.i.i = icmp eq i32 %146, 1114112
  br i1 %.not.i.i, label %_ZN4core4iter6traits8iterator8Iterator3all17h248997625020b537E.exit, label %bb3.i.i311

bb3.i.i311:                                       ; preds = %"_ZN81_$LT$core..str..iter..Chars$u20$as$u20$core..iter..traits..iterator..Iterator$GT$4next17hb034e96f9b490979E.exit.i.i", %bb13.i.i.i.i, %bb7.i.i.i.i310, %bb8.i.i.i.i
  %_15.i.i.i17.i.i = phi i8* [ %144, %"_ZN81_$LT$core..str..iter..Chars$u20$as$u20$core..iter..traits..iterator..Iterator$GT$4next17hb034e96f9b490979E.exit.i.i" ], [ %137, %bb7.i.i.i.i310 ], [ %141, %bb13.i.i.i.i ], [ %139, %bb8.i.i.i.i ]
  %147 = phi i32 [ %146, %"_ZN81_$LT$core..str..iter..Chars$u20$as$u20$core..iter..traits..iterator..Iterator$GT$4next17hb034e96f9b490979E.exit.i.i" ], [ %_13.i.i.i.i, %bb7.i.i.i.i310 ], [ %143, %bb13.i.i.i.i ], [ %140, %bb8.i.i.i.i ]
  %c.off.i.i.i.i = add i32 %147, -48
  %148 = icmp ugt i32 %c.off.i.i.i.i, 9
  %c.off1.i.i.i.i = add i32 %147, -97
  %149 = icmp ugt i32 %c.off1.i.i.i.i, 5
  %150 = and i1 %148, %149
  br i1 %150, label %_ZN4core4iter6traits8iterator8Iterator3all17h248997625020b537E.exit, label %bb1.i.i

_ZN4core4iter6traits8iterator8Iterator3all17h248997625020b537E.exit: ; preds = %bb1.i.i, %"_ZN81_$LT$core..str..iter..Chars$u20$as$u20$core..iter..traits..iterator..Iterator$GT$4next17hb034e96f9b490979E.exit.i.i", %bb3.i.i311
  %_10.i4.i = phi i1 [ false, %"_ZN81_$LT$core..str..iter..Chars$u20$as$u20$core..iter..traits..iterator..Iterator$GT$4next17hb034e96f9b490979E.exit.i.i" ], [ false, %bb1.i.i ], [ true, %bb3.i.i311 ]
; call core::num::<impl u32>::from_str_radix
  %151 = call i64 @"_ZN4core3num21_$LT$impl$u20$u32$GT$14from_str_radix17h60a77ec35cdee814E"([0 x i8]* noalias nonnull readonly align 1 %135, i64 %len.i.i.i.i307, i32 16)
  %.sroa.5.0.extract.shift.i = lshr i64 %151, 32
  %.sroa.5.0.extract.trunc.i = trunc i64 %.sroa.5.0.extract.shift.i to i32
  %152 = and i64 %151, 1
  %switch.i.not = icmp eq i64 %152, 0
  br i1 %switch.i.not, label %"_ZN4core6option15Option$LT$T$GT$8and_then17hd191c9490210f2acE.exit", label %bb144

"_ZN4core6option15Option$LT$T$GT$8and_then17hd191c9490210f2acE.exit": ; preds = %_ZN4core4iter6traits8iterator8Iterator3all17h248997625020b537E.exit
  %_3.i.i.i.i = icmp ugt i32 %.sroa.5.0.extract.trunc.i, 1114111
  %153 = and i32 %.sroa.5.0.extract.trunc.i, -2048
  %154 = icmp eq i32 %153, 55296
  %or.cond.i.i.i.i = or i1 %_3.i.i.i.i, %154
  %155 = select i1 %or.cond.i.i.i.i, i32 1114112, i32 %.sroa.5.0.extract.trunc.i
  %.not = icmp eq i32 %155, 1114112
  %or.cond = select i1 %_10.i4.i, i1 true, i1 %.not
  br i1 %or.cond, label %bb144, label %bb111

bb111:                                            ; preds = %"_ZN4core6option15Option$LT$T$GT$8and_then17hd191c9490210f2acE.exit"
  call void @llvm.lifetime.start.p0i8(i64 4, i8* nonnull %13)
  store i32 %155, i32* %c, align 4
; call core::unicode::unicode_data::cc::lookup
  %156 = call zeroext i1 @_ZN4core7unicode12unicode_data2cc6lookup17h85a266066af423d2E(i32 %155)
  br i1 %156, label %bb120, label %bb113

bb120:                                            ; preds = %bb111
  call void @llvm.lifetime.end.p0i8(i64 4, i8* nonnull %13)
  br label %bb144

bb113:                                            ; preds = %bb111
; call <char as core::fmt::Display>::fmt
  %_177 = call zeroext i1 @"_ZN43_$LT$char$u20$as$u20$core..fmt..Display$GT$3fmt17h28f84c7c7478cb87E"(i32* noalias nonnull readonly align 4 dereferenceable(4) %c, %"core::fmt::Formatter"* noalias nonnull align 8 dereferenceable(64) %f)
  call void @llvm.lifetime.end.p0i8(i64 4, i8* nonnull %13)
  br i1 %_177, label %bb157, label %bb44.backedge

bb44.backedge:                                    ; preds = %bb113, %bb59.thread, %"_ZN4core3str6traits66_$LT$impl$u20$core..ops..index..Index$LT$I$GT$$u20$for$u20$str$GT$5index17h2725d05bf1020748E.exit230", %bb62, %"_ZN4core3str21_$LT$impl$u20$str$GT$16is_char_boundary17hb758182025112b0cE.exit.i.i.i219", %"_ZN4core3str6traits66_$LT$impl$u20$core..ops..index..Index$LT$I$GT$$u20$for$u20$str$GT$5index17h2725d05bf1020748E.exit327", %bb123
  %rest.sroa.33.2.be = phi i64 [ %len.i.i.i.i326, %"_ZN4core3str6traits66_$LT$impl$u20$core..ops..index..Index$LT$I$GT$$u20$for$u20$str$GT$5index17h2725d05bf1020748E.exit327" ], [ %len.i.i.i.i255, %bb123 ], [ %len.i.i.i.i229, %"_ZN4core3str6traits66_$LT$impl$u20$core..ops..index..Index$LT$I$GT$$u20$for$u20$str$GT$5index17h2725d05bf1020748E.exit230" ], [ %len.i.i.i.i183, %bb62 ], [ %len.i.i.i.i183, %"_ZN4core3str21_$LT$impl$u20$str$GT$16is_char_boundary17hb758182025112b0cE.exit.i.i.i219" ], [ 0, %bb59.thread ], [ %len.i.i.i.i255836841849853, %bb113 ]
  %rest.sroa.0.2.be.in = phi i8* [ %164, %"_ZN4core3str6traits66_$LT$impl$u20$core..ops..index..Index$LT$I$GT$$u20$for$u20$str$GT$5index17h2725d05bf1020748E.exit327" ], [ %121, %bb123 ], [ %93, %"_ZN4core3str6traits66_$LT$impl$u20$core..ops..index..Index$LT$I$GT$$u20$for$u20$str$GT$5index17h2725d05bf1020748E.exit230" ], [ %78, %bb62 ], [ %78, %"_ZN4core3str21_$LT$impl$u20$str$GT$16is_char_boundary17hb758182025112b0cE.exit.i.i.i219" ], [ %76, %bb59.thread ], [ %133, %bb113 ]
  %rest.sroa.0.2.be = bitcast i8* %rest.sroa.0.2.be.in to [0 x i8]*
  br label %bb44

bb132:                                            ; preds = %"_ZN97_$LT$core..str..pattern..MultiCharEqSearcher$LT$C$GT$$u20$as$u20$core..str..pattern..Searcher$GT$4next17he30be5bbf0fe91f1E.exit.i.i.i", %"_ZN97_$LT$core..str..pattern..MultiCharEqSearcher$LT$C$GT$$u20$as$u20$core..str..pattern..Searcher$GT$4next17he30be5bbf0fe91f1E.exit.i.i.i"
  %157 = icmp eq i64 %_5.sroa.4.0.i, 0
  br i1 %157, label %"_ZN4core3str6traits66_$LT$impl$u20$core..ops..index..Index$LT$I$GT$$u20$for$u20$str$GT$5index17h6f34acbde65192b2E.exit319.thread", label %bb2.i.i.i.i314

bb2.i.i.i.i314:                                   ; preds = %bb132
  %_3.i.i.i.i.i.i313 = icmp ugt i64 %rest.sroa.33.2, %_5.sroa.4.0.i
  br i1 %_3.i.i.i.i.i.i313, label %"_ZN4core3str21_$LT$impl$u20$str$GT$16is_char_boundary17hb758182025112b0cE.exit.i.i.i317", label %bb7.i.i.i.i315

bb7.i.i.i.i315:                                   ; preds = %bb2.i.i.i.i314
  %158 = icmp eq i64 %rest.sroa.33.2, %_5.sroa.4.0.i
  br i1 %158, label %"_ZN4core3str6traits66_$LT$impl$u20$core..ops..index..Index$LT$I$GT$$u20$for$u20$str$GT$5index17h6f34acbde65192b2E.exit319", label %bb2.i.i318

"_ZN4core3str21_$LT$impl$u20$str$GT$16is_char_boundary17hb758182025112b0cE.exit.i.i.i317": ; preds = %bb2.i.i.i.i314
  %159 = getelementptr inbounds [0 x i8], [0 x i8]* %rest.sroa.0.2, i64 0, i64 %_5.sroa.4.0.i
  %b.i.i.i.i316 = load i8, i8* %159, align 1, !alias.scope !301, !noalias !310
  %160 = icmp sgt i8 %b.i.i.i.i316, -65
  br i1 %160, label %"_ZN4core3str6traits66_$LT$impl$u20$core..ops..index..Index$LT$I$GT$$u20$for$u20$str$GT$5index17h6f34acbde65192b2E.exit319", label %bb2.i.i318

bb2.i.i318:                                       ; preds = %"_ZN4core3str21_$LT$impl$u20$str$GT$16is_char_boundary17hb758182025112b0cE.exit.i.i.i317", %bb7.i.i.i.i315
; call core::str::slice_error_fail
  call void @_ZN4core3str16slice_error_fail17h0d3b5d2bc1b01573E([0 x i8]* noalias nonnull readonly align 1 %rest.sroa.0.2, i64 %rest.sroa.33.2, i64 0, i64 %_5.sroa.4.0.i, %"core::panic::location::Location"* noalias nonnull readonly align 8 dereferenceable(24) bitcast (<{ i8*, [16 x i8] }>* @alloc811 to %"core::panic::location::Location"*)) #19
  unreachable

"_ZN4core3str6traits66_$LT$impl$u20$core..ops..index..Index$LT$I$GT$$u20$for$u20$str$GT$5index17h6f34acbde65192b2E.exit319": ; preds = %bb7.i.i.i.i315, %"_ZN4core3str21_$LT$impl$u20$str$GT$16is_char_boundary17hb758182025112b0cE.exit.i.i.i317"
; call core::fmt::Formatter::write_str
  %_200 = call zeroext i1 @_ZN4core3fmt9Formatter9write_str17h89723935f155226aE(%"core::fmt::Formatter"* noalias nonnull align 8 dereferenceable(64) %f, [0 x i8]* noalias nonnull readonly align 1 %rest.sroa.0.2, i64 %_5.sroa.4.0.i)
  br i1 %_200, label %bb157, label %bb136

"_ZN4core3str6traits66_$LT$impl$u20$core..ops..index..Index$LT$I$GT$$u20$for$u20$str$GT$5index17h6f34acbde65192b2E.exit319.thread": ; preds = %bb132
; call core::fmt::Formatter::write_str
  %_200843 = call zeroext i1 @_ZN4core3fmt9Formatter9write_str17h89723935f155226aE(%"core::fmt::Formatter"* noalias nonnull align 8 dereferenceable(64) %f, [0 x i8]* noalias nonnull readonly align 1 %rest.sroa.0.2, i64 %_5.sroa.4.0.i)
  br i1 %_200843, label %bb157, label %"_ZN4core3str6traits66_$LT$impl$u20$core..ops..index..Index$LT$I$GT$$u20$for$u20$str$GT$5index17h2725d05bf1020748E.exit327"

bb136:                                            ; preds = %"_ZN4core3str6traits66_$LT$impl$u20$core..ops..index..Index$LT$I$GT$$u20$for$u20$str$GT$5index17h6f34acbde65192b2E.exit319"
  br i1 %157, label %"_ZN4core3str6traits66_$LT$impl$u20$core..ops..index..Index$LT$I$GT$$u20$for$u20$str$GT$5index17h2725d05bf1020748E.exit327", label %bb2.i.i.i.i321

bb2.i.i.i.i321:                                   ; preds = %bb136
  %_3.i.i.i.i.i.i320 = icmp ugt i64 %rest.sroa.33.2, %_5.sroa.4.0.i
  br i1 %_3.i.i.i.i.i.i320, label %"_ZN4core3str21_$LT$impl$u20$str$GT$16is_char_boundary17hb758182025112b0cE.exit.i.i.i324", label %bb7.i.i.i.i322

bb7.i.i.i.i322:                                   ; preds = %bb2.i.i.i.i321
  %161 = icmp eq i64 %rest.sroa.33.2, %_5.sroa.4.0.i
  br i1 %161, label %"_ZN4core3str6traits66_$LT$impl$u20$core..ops..index..Index$LT$I$GT$$u20$for$u20$str$GT$5index17h2725d05bf1020748E.exit327", label %bb3.i.i325

"_ZN4core3str21_$LT$impl$u20$str$GT$16is_char_boundary17hb758182025112b0cE.exit.i.i.i324": ; preds = %bb2.i.i.i.i321
  %162 = getelementptr inbounds [0 x i8], [0 x i8]* %rest.sroa.0.2, i64 0, i64 %_5.sroa.4.0.i
  %b.i.i.i.i323 = load i8, i8* %162, align 1, !alias.scope !313, !noalias !322
  %163 = icmp sgt i8 %b.i.i.i.i323, -65
  br i1 %163, label %"_ZN4core3str6traits66_$LT$impl$u20$core..ops..index..Index$LT$I$GT$$u20$for$u20$str$GT$5index17h2725d05bf1020748E.exit327", label %bb3.i.i325

bb3.i.i325:                                       ; preds = %"_ZN4core3str21_$LT$impl$u20$str$GT$16is_char_boundary17hb758182025112b0cE.exit.i.i.i324", %bb7.i.i.i.i322
; call core::str::slice_error_fail
  call void @_ZN4core3str16slice_error_fail17h0d3b5d2bc1b01573E([0 x i8]* noalias nonnull readonly align 1 %rest.sroa.0.2, i64 %rest.sroa.33.2, i64 %_5.sroa.4.0.i, i64 %rest.sroa.33.2, %"core::panic::location::Location"* noalias nonnull readonly align 8 dereferenceable(24) bitcast (<{ i8*, [16 x i8] }>* @alloc815 to %"core::panic::location::Location"*)) #19
  unreachable

"_ZN4core3str6traits66_$LT$impl$u20$core..ops..index..Index$LT$I$GT$$u20$for$u20$str$GT$5index17h2725d05bf1020748E.exit327": ; preds = %"_ZN4core3str6traits66_$LT$impl$u20$core..ops..index..Index$LT$I$GT$$u20$for$u20$str$GT$5index17h6f34acbde65192b2E.exit319.thread", %bb136, %bb7.i.i.i.i322, %"_ZN4core3str21_$LT$impl$u20$str$GT$16is_char_boundary17hb758182025112b0cE.exit.i.i.i324"
  %_5.sroa.4.0.i657 = phi i64 [ 0, %bb136 ], [ %rest.sroa.33.2, %bb7.i.i.i.i322 ], [ %_5.sroa.4.0.i, %"_ZN4core3str21_$LT$impl$u20$str$GT$16is_char_boundary17hb758182025112b0cE.exit.i.i.i324" ], [ 0, %"_ZN4core3str6traits66_$LT$impl$u20$core..ops..index..Index$LT$I$GT$$u20$for$u20$str$GT$5index17h6f34acbde65192b2E.exit319.thread" ]
  %164 = getelementptr inbounds [0 x i8], [0 x i8]* %rest.sroa.0.2, i64 0, i64 %_5.sroa.4.0.i
  %len.i.i.i.i326 = sub i64 %rest.sroa.33.2, %_5.sroa.4.0.i657
  br label %bb44.backedge

bb157:                                            ; preds = %bb2.i, %bb2, %bb144, %bb31, %"_ZN81_$LT$core..str..iter..Chars$u20$as$u20$core..iter..traits..iterator..Iterator$GT$4next17hb034e96f9b490979E.exit.i.i.i", %bb1.backedge.i.i.i, %"_ZN4core3str6traits66_$LT$impl$u20$core..ops..index..Index$LT$I$GT$$u20$for$u20$str$GT$5index17h6f34acbde65192b2E.exit319", %bb123, %bb51, %bb59, %bb59.thread, %"_ZN4core3str6traits66_$LT$impl$u20$core..ops..index..Index$LT$I$GT$$u20$for$u20$str$GT$5index17h6f34acbde65192b2E.exit319.thread", %bb113
  %.3 = phi i1 [ true, %bb113 ], [ true, %"_ZN4core3str6traits66_$LT$impl$u20$core..ops..index..Index$LT$I$GT$$u20$for$u20$str$GT$5index17h6f34acbde65192b2E.exit319.thread" ], [ true, %bb59.thread ], [ true, %bb59 ], [ true, %bb51 ], [ true, %bb123 ], [ true, %"_ZN4core3str6traits66_$LT$impl$u20$core..ops..index..Index$LT$I$GT$$u20$for$u20$str$GT$5index17h6f34acbde65192b2E.exit319" ], [ false, %bb1.backedge.i.i.i ], [ false, %"_ZN81_$LT$core..str..iter..Chars$u20$as$u20$core..iter..traits..iterator..Iterator$GT$4next17hb034e96f9b490979E.exit.i.i.i" ], [ false, %bb2.i ], [ false, %bb2 ], [ true, %bb144 ], [ true, %bb31 ]
  ret i1 %.3
}

; <rustc_demangle::v0::Demangle as core::fmt::Display>::fmt
; Function Attrs: nonlazybind uwtable
define zeroext i1 @"_ZN67_$LT$rustc_demangle..v0..Demangle$u20$as$u20$core..fmt..Display$GT$3fmt17h4d68204209274afdE"({ i8*, i64 }* noalias nocapture readonly align 8 dereferenceable(16) %self, %"core::fmt::Formatter"* noalias align 8 dereferenceable(64) %f) unnamed_addr #1 {
start:
  %printer = alloca %"v0::Printer", align 8
  %0 = getelementptr inbounds %"v0::Printer", %"v0::Printer"* %printer, i64 0, i32 0, i32 0
  call void @llvm.lifetime.start.p0i8(i64 56, i8* nonnull %0)
  %1 = bitcast { i8*, i64 }* %self to [0 x i8]**
  %_6.0 = load [0 x i8]*, [0 x i8]** %1, align 8, !nonnull !2
  %2 = getelementptr inbounds { i8*, i64 }, { i8*, i64 }* %self, i64 0, i32 1
  %_6.1 = load i64, i64* %2, align 8
  %3 = getelementptr inbounds %"core::fmt::Formatter", %"core::fmt::Formatter"* %f, i64 0, i32 0, i32 0
  store i8 0, i8* %0, align 8
  %_4.sroa.4.sroa.3.0._4.sroa.4.0..sroa_idx.sroa_idx12 = getelementptr inbounds %"v0::Printer", %"v0::Printer"* %printer, i64 0, i32 0, i32 1, i64 7
  %_4.sroa.4.sroa.3.0._4.sroa.4.0..sroa_idx.sroa_cast = bitcast i8* %_4.sroa.4.sroa.3.0._4.sroa.4.0..sroa_idx.sroa_idx12 to [0 x i8]**
  store [0 x i8]* %_6.0, [0 x i8]** %_4.sroa.4.sroa.3.0._4.sroa.4.0..sroa_idx.sroa_cast, align 8
  %_4.sroa.4.sroa.4.0._4.sroa.4.0..sroa_idx.sroa_idx14 = getelementptr inbounds %"v0::Printer", %"v0::Printer"* %printer, i64 0, i32 0, i32 1, i64 15
  %_4.sroa.4.sroa.4.0._4.sroa.4.0..sroa_idx.sroa_cast = bitcast i8* %_4.sroa.4.sroa.4.0._4.sroa.4.0..sroa_idx.sroa_idx14 to i64*
  store i64 %_6.1, i64* %_4.sroa.4.sroa.4.0._4.sroa.4.0..sroa_idx.sroa_cast, align 8
  %_4.sroa.4.sroa.5.0._4.sroa.4.0..sroa_idx.sroa_idx16 = getelementptr inbounds %"v0::Printer", %"v0::Printer"* %printer, i64 0, i32 0, i32 1, i64 23
  %_4.sroa.4.sroa.5.0._4.sroa.4.0..sroa_idx.sroa_cast = bitcast i8* %_4.sroa.4.sroa.5.0._4.sroa.4.0..sroa_idx.sroa_idx16 to i64*
  store i64 0, i64* %_4.sroa.4.sroa.5.0._4.sroa.4.0..sroa_idx.sroa_cast, align 8
  %_4.sroa.4.sroa.6.0._4.sroa.4.0..sroa_idx.sroa_idx18 = getelementptr inbounds %"v0::Printer", %"v0::Printer"* %printer, i64 0, i32 0, i32 1, i64 31
  %_4.sroa.4.sroa.6.0._4.sroa.4.0..sroa_idx.sroa_cast = bitcast i8* %_4.sroa.4.sroa.6.0._4.sroa.4.0..sroa_idx.sroa_idx18 to i32*
  store i32 0, i32* %_4.sroa.4.sroa.6.0._4.sroa.4.0..sroa_idx.sroa_cast, align 8
  %4 = getelementptr inbounds %"v0::Printer", %"v0::Printer"* %printer, i64 0, i32 1
  store i64* %3, i64** %4, align 8
  %5 = getelementptr inbounds %"v0::Printer", %"v0::Printer"* %printer, i64 0, i32 2
  store i32 0, i32* %5, align 8
; call rustc_demangle::v0::Printer::print_path
  %6 = call fastcc zeroext i1 @_ZN14rustc_demangle2v07Printer10print_path17hdc57822f76edc8d3E(%"v0::Printer"* noalias nonnull align 8 dereferenceable(56) %printer, i1 zeroext true)
  call void @llvm.lifetime.end.p0i8(i64 56, i8* nonnull %0)
  ret i1 %6
}

; <rustc_demangle::v0::Ident as core::fmt::Display>::fmt
; Function Attrs: nonlazybind uwtable
define zeroext i1 @"_ZN64_$LT$rustc_demangle..v0..Ident$u20$as$u20$core..fmt..Display$GT$3fmt17h4188910e655a9b22E"(%"v0::Ident"* noalias readonly align 8 dereferenceable(32) %0, %"core::fmt::Formatter"* noalias align 8 dereferenceable(64) %1) unnamed_addr #1 personality i32 (...)* @rust_eh_personality {
start:
  %c.i.i = alloca i32, align 4
  %out.i = alloca [128 x i32], align 4
  tail call void @llvm.experimental.noalias.scope.decl(metadata !325)
  %2 = bitcast [128 x i32]* %out.i to i8*
  call void @llvm.lifetime.start.p0i8(i64 512, i8* nonnull %2), !noalias !328
  call void @llvm.memset.p0i8.i64(i8* noundef nonnull align 4 dereferenceable(512) %2, i8 0, i64 512, i1 false), !noalias !328
  tail call void @llvm.experimental.noalias.scope.decl(metadata !330)
  tail call void @llvm.experimental.noalias.scope.decl(metadata !333)
  %3 = getelementptr inbounds %"v0::Ident", %"v0::Ident"* %0, i64 0, i32 1, i32 0
  %_5.0.i.i = load [0 x i8]*, [0 x i8]** %3, align 8, !alias.scope !335, !noalias !336, !nonnull !2
  %4 = getelementptr inbounds %"v0::Ident", %"v0::Ident"* %0, i64 0, i32 1, i32 1
  %_5.1.i.i = load i64, i64* %4, align 8, !alias.scope !335, !noalias !336
  %5 = getelementptr inbounds [0 x i8], [0 x i8]* %_5.0.i.i, i64 0, i64 %_5.1.i.i
  %_12.i.i.i.i.i.i.i.i = icmp eq i64 %_5.1.i.i, 0
  br i1 %_12.i.i.i.i.i.i.i.i, label %bb1.i.thread, label %bb6.i.i

bb1.i.thread:                                     ; preds = %start
  call void @llvm.lifetime.end.p0i8(i64 512, i8* nonnull %2), !noalias !328
  br label %bb31.i.i

bb6.i.i:                                          ; preds = %start
  %6 = getelementptr [0 x i8], [0 x i8]* %_5.0.i.i, i64 0, i64 0
  %7 = getelementptr inbounds [0 x i8], [0 x i8]* %_5.0.i.i, i64 0, i64 1
  %v.i.i.i.i.i.i.i.i = load i8, i8* %6, align 1, !alias.scope !338, !noalias !341
  %8 = getelementptr inbounds %"v0::Ident", %"v0::Ident"* %0, i64 0, i32 0, i32 0
  %_13.0.i.i = load [0 x i8]*, [0 x i8]** %8, align 8, !alias.scope !335, !noalias !336, !nonnull !2
  %9 = getelementptr inbounds %"v0::Ident", %"v0::Ident"* %0, i64 0, i32 0, i32 1
  %_13.1.i.i = load i64, i64* %9, align 8, !alias.scope !335, !noalias !336
  %10 = getelementptr inbounds [0 x i8], [0 x i8]* %_13.0.i.i, i64 0, i64 %_13.1.i.i
  %_12.i.i.i201.i.i = icmp eq i64 %_13.1.i.i, 0
  br i1 %_12.i.i.i201.i.i, label %bb20.i.i.preheader, label %bb3.i.i.preheader.i.i

bb3.i.i.preheader.i.i:                            ; preds = %bb6.i.i
  %11 = getelementptr [0 x i8], [0 x i8]* %_13.0.i.i, i64 0, i64 0
  br label %bb3.i.i.i.i

bb3.i.i.i.i:                                      ; preds = %bb16.i.i, %bb3.i.i.preheader.i.i
  %out_len.0.i = phi i64 [ 0, %bb3.i.i.preheader.i.i ], [ %24, %bb16.i.i ]
  %iter.sroa.0.0202.i.i = phi i8* [ %11, %bb3.i.i.preheader.i.i ], [ %iter.sroa.0.1183.i.i, %bb16.i.i ]
  %12 = getelementptr inbounds i8, i8* %iter.sroa.0.0202.i.i, i64 1
  %x.i.i.i.i = load i8, i8* %iter.sroa.0.0202.i.i, align 1, !noalias !353
  %_11.i.i.i.i = icmp sgt i8 %x.i.i.i.i, -1
  br i1 %_11.i.i.i.i, label %bb7.i.i.i.i, label %bb8.i.i.i.i

bb8.i.i.i.i:                                      ; preds = %bb3.i.i.i.i
  %_3.i.i.i.i.i = and i8 %x.i.i.i.i, 31
  %13 = zext i8 %_3.i.i.i.i.i to i32
  %14 = getelementptr inbounds i8, i8* %iter.sroa.0.0202.i.i, i64 2
  %y.i.i.i.i = load i8, i8* %12, align 1, !noalias !353
  %_3.i10.i.i.i.i = shl nuw nsw i32 %13, 6
  %_6.i.i.i.i.i = and i8 %y.i.i.i.i, 63
  %_5.i.i.i.i.i = zext i8 %_6.i.i.i.i.i to i32
  %15 = or i32 %_3.i10.i.i.i.i, %_5.i.i.i.i.i
  %_24.i.i.i.i = icmp ugt i8 %x.i.i.i.i, -33
  br i1 %_24.i.i.i.i, label %bb13.i.i.i.i, label %bb11.i.i

bb7.i.i.i.i:                                      ; preds = %bb3.i.i.i.i
  %_13.i.i.i.i = zext i8 %x.i.i.i.i to i32
  br label %bb11.i.i

bb13.i.i.i.i:                                     ; preds = %bb8.i.i.i.i
  %16 = getelementptr inbounds i8, i8* %iter.sroa.0.0202.i.i, i64 3
  %z.i.i.i.i = load i8, i8* %14, align 1, !noalias !353
  %_3.i17.i.i.i.i = shl nuw nsw i32 %_5.i.i.i.i.i, 6
  %_6.i18.i.i.i.i = and i8 %z.i.i.i.i, 63
  %_5.i19.i.i.i.i = zext i8 %_6.i18.i.i.i.i to i32
  %17 = or i32 %_3.i17.i.i.i.i, %_5.i19.i.i.i.i
  %_35.i.i.i.i = shl nuw nsw i32 %13, 12
  %18 = or i32 %17, %_35.i.i.i.i
  %_38.i.i.i.i = icmp ugt i8 %x.i.i.i.i, -17
  br i1 %_38.i.i.i.i, label %"_ZN81_$LT$core..str..iter..Chars$u20$as$u20$core..iter..traits..iterator..Iterator$GT$4next17hb034e96f9b490979E.exit.i.i", label %bb11.i.i

"_ZN81_$LT$core..str..iter..Chars$u20$as$u20$core..iter..traits..iterator..Iterator$GT$4next17hb034e96f9b490979E.exit.i.i": ; preds = %bb13.i.i.i.i
  %19 = getelementptr inbounds i8, i8* %iter.sroa.0.0202.i.i, i64 4
  %w.i.i.i.i = load i8, i8* %16, align 1, !noalias !353
  %_45.i.i.i.i = shl nuw nsw i32 %13, 18
  %_44.i.i.i.i = and i32 %_45.i.i.i.i, 1835008
  %_3.i26.i.i.i.i = shl nuw nsw i32 %17, 6
  %_6.i27.i.i.i.i = and i8 %w.i.i.i.i, 63
  %_5.i28.i.i.i.i = zext i8 %_6.i27.i.i.i.i to i32
  %20 = or i32 %_3.i26.i.i.i.i, %_5.i28.i.i.i.i
  %21 = or i32 %20, %_44.i.i.i.i
  %22 = icmp eq i32 %21, 1114112
  br i1 %22, label %bb20.i.i.preheader, label %bb11.i.i

bb11.i.i:                                         ; preds = %"_ZN81_$LT$core..str..iter..Chars$u20$as$u20$core..iter..traits..iterator..Iterator$GT$4next17hb034e96f9b490979E.exit.i.i", %bb13.i.i.i.i, %bb7.i.i.i.i, %bb8.i.i.i.i
  %23 = phi i32 [ %21, %"_ZN81_$LT$core..str..iter..Chars$u20$as$u20$core..iter..traits..iterator..Iterator$GT$4next17hb034e96f9b490979E.exit.i.i" ], [ %_13.i.i.i.i, %bb7.i.i.i.i ], [ %18, %bb13.i.i.i.i ], [ %15, %bb8.i.i.i.i ]
  %iter.sroa.0.1183.i.i = phi i8* [ %19, %"_ZN81_$LT$core..str..iter..Chars$u20$as$u20$core..iter..traits..iterator..Iterator$GT$4next17hb034e96f9b490979E.exit.i.i" ], [ %12, %bb7.i.i.i.i ], [ %16, %bb13.i.i.i.i ], [ %14, %bb8.i.i.i.i ]
  %exitcond.i = icmp eq i64 %out_len.0.i, 128
  br i1 %exitcond.i, label %bb1.i, label %bb16.i.i

bb16.i.i:                                         ; preds = %bb11.i.i
  %24 = add nuw nsw i64 %out_len.0.i, 1
  %25 = getelementptr inbounds [128 x i32], [128 x i32]* %out.i, i64 0, i64 %out_len.0.i
  store i32 %23, i32* %25, align 4, !alias.scope !333, !noalias !358
  %_12.i.i.i.i.i = icmp eq i8* %iter.sroa.0.1183.i.i, %10
  br i1 %_12.i.i.i.i.i, label %bb20.i.i.preheader, label %bb3.i.i.i.i

bb20.i.i.preheader:                               ; preds = %bb16.i.i, %"_ZN81_$LT$core..str..iter..Chars$u20$as$u20$core..iter..traits..iterator..Iterator$GT$4next17hb034e96f9b490979E.exit.i.i", %bb6.i.i
  %out_len.2.i.ph = phi i64 [ 0, %bb6.i.i ], [ %out_len.0.i, %"_ZN81_$LT$core..str..iter..Chars$u20$as$u20$core..iter..traits..iterator..Iterator$GT$4next17hb034e96f9b490979E.exit.i.i" ], [ %24, %bb16.i.i ]
  br label %bb20.i.i

bb20.i.i:                                         ; preds = %bb20.i.i.preheader, %bb98.i.i
  %out_len.2.i = phi i64 [ %45, %bb98.i.i ], [ %out_len.2.i.ph, %bb20.i.i.preheader ]
  %punycode_bytes.sroa.10.sroa.8.0.i.i = phi i8 [ %v.i.i.i.i.i.i165.i.i, %bb98.i.i ], [ %v.i.i.i.i.i.i.i.i, %bb20.i.i.preheader ]
  %punycode_bytes.sroa.0.1.i.i = phi i8* [ %61, %bb98.i.i ], [ %7, %bb20.i.i.preheader ]
  %n.0.i.i = phi i64 [ %51, %bb98.i.i ], [ 128, %bb20.i.i.preheader ]
  %i.0.i.i = phi i64 [ %59, %bb98.i.i ], [ 0, %bb20.i.i.preheader ]
  %bias.0.i.i = phi i64 [ %67, %bb98.i.i ], [ 72, %bb20.i.i.preheader ]
  %damp.0.i.i = phi i64 [ 2, %bb98.i.i ], [ 700, %bb20.i.i.preheader ]
  br label %bb21.i.i

bb21.i.i:                                         ; preds = %bb49.i.i, %bb20.i.i
  %26 = phi i1 [ true, %bb49.i.i ], [ false, %bb20.i.i ]
  %_15.i.i.i.i210.i.i = phi i8* [ %_15.i.i.i.i208.i69.i, %bb49.i.i ], [ %punycode_bytes.sroa.0.1.i.i, %bb20.i.i ]
  %delta.0.i.i = phi i64 [ %39, %bb49.i.i ], [ 0, %bb20.i.i ]
  %w.0.i.i = phi i64 [ %42, %bb49.i.i ], [ 1, %bb20.i.i ]
  %k.0.i.i = phi i64 [ %27, %bb49.i.i ], [ 0, %bb20.i.i ]
  %27 = add i64 %k.0.i.i, 36
  %28 = tail call i64 @llvm.usub.sat.i64(i64 %27, i64 %bias.0.i.i) #20
  %29 = icmp ugt i64 %28, 1
  %.0.sroa.speculated.i.i.i.i.i = select i1 %29, i64 %28, i64 1
  %30 = icmp ult i64 %.0.sroa.speculated.i.i.i.i.i, 26
  %.0.sroa.speculated.i.i.i115.i.i = select i1 %30, i64 %.0.sroa.speculated.i.i.i.i.i, i64 26
  br i1 %26, label %bb2.i.i.i, label %bb27.i.i

bb2.i.i.i:                                        ; preds = %bb21.i.i
  %_12.i.i.i.i.i.i = icmp eq i8* %_15.i.i.i.i210.i.i, %5
  br i1 %_12.i.i.i.i.i.i, label %bb1.i, label %"_ZN108_$LT$core..iter..adapters..peekable..Peekable$LT$I$GT$$u20$as$u20$core..iter..traits..iterator..Iterator$GT$4next17h12e7f75dc38d49feE.exit.i.i"

"_ZN108_$LT$core..iter..adapters..peekable..Peekable$LT$I$GT$$u20$as$u20$core..iter..traits..iterator..Iterator$GT$4next17h12e7f75dc38d49feE.exit.i.i": ; preds = %bb2.i.i.i
  %31 = getelementptr inbounds i8, i8* %_15.i.i.i.i210.i.i, i64 1
  %v.i.i.i.i.i.i = load i8, i8* %_15.i.i.i.i210.i.i, align 1, !alias.scope !361, !noalias !364
  br label %bb27.i.i

bb27.i.i:                                         ; preds = %"_ZN108_$LT$core..iter..adapters..peekable..Peekable$LT$I$GT$$u20$as$u20$core..iter..traits..iterator..Iterator$GT$4next17h12e7f75dc38d49feE.exit.i.i", %bb21.i.i
  %.sroa.3.0.i.i.i.pn.i.i70.i = phi i8 [ %v.i.i.i.i.i.i, %"_ZN108_$LT$core..iter..adapters..peekable..Peekable$LT$I$GT$$u20$as$u20$core..iter..traits..iterator..Iterator$GT$4next17h12e7f75dc38d49feE.exit.i.i" ], [ %punycode_bytes.sroa.10.sroa.8.0.i.i, %bb21.i.i ]
  %_15.i.i.i.i208.i69.i = phi i8* [ %31, %"_ZN108_$LT$core..iter..adapters..peekable..Peekable$LT$I$GT$$u20$as$u20$core..iter..traits..iterator..Iterator$GT$4next17h12e7f75dc38d49feE.exit.i.i" ], [ %_15.i.i.i.i210.i.i, %bb21.i.i ]
  %.sroa.3.0.i.i.i.pn.i.off.i.i = add i8 %.sroa.3.0.i.i.i.pn.i.i70.i, -97
  %32 = icmp ult i8 %.sroa.3.0.i.i.i.pn.i.off.i.i, 26
  br i1 %32, label %bb33.i.i, label %bb29.i.i

bb29.i.i:                                         ; preds = %bb27.i.i
  %.sroa.3.0.i.i.i.pn.i.off191.i.i = add i8 %.sroa.3.0.i.i.i.pn.i.i70.i, -48
  %33 = icmp ult i8 %.sroa.3.0.i.i.i.pn.i.off191.i.i, 10
  br i1 %33, label %bb32.i.i, label %bb1.i

bb33.i.i:                                         ; preds = %bb32.i.i, %bb27.i.i
  %d.0.i.i = phi i8 [ %36, %bb32.i.i ], [ %.sroa.3.0.i.i.i.pn.i.off.i.i, %bb27.i.i ]
  %d4.i.i = zext i8 %d.0.i.i to i64
  %34 = tail call { i64, i1 } @llvm.umul.with.overflow.i64(i64 %d4.i.i, i64 %w.0.i.i) #20
  %35 = extractvalue { i64, i1 } %34, 1
  br i1 %35, label %bb1.i, label %bb37.i.i

bb32.i.i:                                         ; preds = %bb29.i.i
  %36 = add nsw i8 %.sroa.3.0.i.i.i.pn.i.i70.i, -22
  br label %bb33.i.i

bb37.i.i:                                         ; preds = %bb33.i.i
  %37 = extractvalue { i64, i1 } %34, 0
  %38 = tail call { i64, i1 } @llvm.uadd.with.overflow.i64(i64 %delta.0.i.i, i64 %37) #20
  %39 = extractvalue { i64, i1 } %38, 0
  %40 = extractvalue { i64, i1 } %38, 1
  br i1 %40, label %bb1.i, label %bb44.i.i

bb44.i.i:                                         ; preds = %bb37.i.i
  %_85.i.i = icmp ugt i64 %.0.sroa.speculated.i.i.i115.i.i, %d4.i.i
  br i1 %_85.i.i, label %bb48.i.i, label %bb49.i.i

bb49.i.i:                                         ; preds = %bb44.i.i
  %_93.i.i = sub nuw nsw i64 36, %.0.sroa.speculated.i.i.i115.i.i
  %41 = tail call { i64, i1 } @llvm.umul.with.overflow.i64(i64 %w.0.i.i, i64 %_93.i.i) #20
  %42 = extractvalue { i64, i1 } %41, 0
  %43 = extractvalue { i64, i1 } %41, 1
  br i1 %43, label %bb1.i, label %bb21.i.i

bb48.i.i:                                         ; preds = %bb44.i.i
  %44 = extractvalue { i64, i1 } %38, 0
  %45 = add nuw nsw i64 %out_len.2.i, 1
  %46 = tail call { i64, i1 } @llvm.uadd.with.overflow.i64(i64 %i.0.i.i, i64 %44) #20
  %47 = extractvalue { i64, i1 } %46, 0
  %48 = extractvalue { i64, i1 } %46, 1
  br i1 %48, label %bb1.i, label %bb64.i.i

bb64.i.i:                                         ; preds = %bb48.i.i
  %_117.i.i = udiv i64 %47, %45
  %49 = urem i64 %47, %45
  %50 = tail call { i64, i1 } @llvm.uadd.with.overflow.i64(i64 %n.0.i.i, i64 %_117.i.i) #20
  %51 = extractvalue { i64, i1 } %50, 0
  %52 = extractvalue { i64, i1 } %50, 1
  %.not = xor i1 %52, true
  %53 = icmp ult i64 %51, 4294967296
  %or.cond = and i1 %.not, %53
  br i1 %or.cond, label %bb73.i.i, label %bb1.i

bb73.i.i:                                         ; preds = %bb64.i.i
  %n_u32.i.i = trunc i64 %51 to i32
  %_3.i.i.i.i = icmp ugt i32 %n_u32.i.i, 1114111
  %54 = and i32 %n_u32.i.i, -2048
  %55 = icmp eq i32 %54, 55296
  %or.cond.i.i.i.i = or i1 %_3.i.i.i.i, %55
  %_3.i.i.i145.i.i = icmp ugt i64 %out_len.2.i, 127
  %or.cond.i = select i1 %or.cond.i.i.i.i, i1 true, i1 %_3.i.i.i145.i.i
  br i1 %or.cond.i, label %bb1.i, label %bb4.i147.i.i

bb4.i147.i.i:                                     ; preds = %bb73.i.i
  %_1613.i146.i.i = icmp ugt i64 %out_len.2.i, %49
  br i1 %_1613.i146.i.i, label %bb9.i153.i.i, label %bb12.i149.thread.i.i

bb12.i149.i.i:                                    ; preds = %bb11.i157.i.i
  %_30.i148.i.i = icmp ult i64 %49, 128
  br i1 %_30.i148.i.i, label %bb1.i.i164.i.i, label %panic2.i159.i.i, !prof !371

bb12.i149.thread.i.i:                             ; preds = %bb4.i147.i.i
  %_30.i148188.i.i = icmp ult i64 %49, 128
  br i1 %_30.i148188.i.i, label %bb1.i.i164.i.i, label %panic2.i159.i.i, !prof !371

bb9.i153.i.i:                                     ; preds = %bb4.i147.i.i, %bb11.i157.i.i
  %j.014.i150.i.i = phi i64 [ %_20.i151.i.i, %bb11.i157.i.i ], [ %out_len.2.i, %bb4.i147.i.i ]
  %_20.i151.i.i = add nsw i64 %j.014.i150.i.i, -1
  %_23.i152.i.i = icmp ult i64 %_20.i151.i.i, 128
  br i1 %_23.i152.i.i, label %bb11.i157.i.i, label %panic.i154.i.i, !prof !371

panic.i154.i.i:                                   ; preds = %bb9.i153.i.i
; call core::panicking::panic_bounds_check
  tail call void @_ZN4core9panicking18panic_bounds_check17h12b597476ba48ffaE(i64 %_20.i151.i.i, i64 128, %"core::panic::location::Location"* noalias readonly align 8 dereferenceable(24) bitcast (<{ i8*, [16 x i8] }>* @alloc840 to %"core::panic::location::Location"*)) #19, !noalias !372
  unreachable

bb11.i157.i.i:                                    ; preds = %bb9.i153.i.i
  %56 = getelementptr inbounds [128 x i32], [128 x i32]* %out.i, i64 0, i64 %_20.i151.i.i
  %_19.i155.i.i = load i32, i32* %56, align 4, !range !375, !alias.scope !333, !noalias !376
  %57 = getelementptr inbounds [128 x i32], [128 x i32]* %out.i, i64 0, i64 %j.014.i150.i.i
  store i32 %_19.i155.i.i, i32* %57, align 4, !alias.scope !333, !noalias !376
  %_16.i156.i.i = icmp ugt i64 %_20.i151.i.i, %49
  br i1 %_16.i156.i.i, label %bb9.i153.i.i, label %bb12.i149.i.i

panic2.i159.i.i:                                  ; preds = %bb12.i149.thread.i.i, %bb12.i149.i.i
; call core::panicking::panic_bounds_check
  tail call void @_ZN4core9panicking18panic_bounds_check17h12b597476ba48ffaE(i64 %49, i64 128, %"core::panic::location::Location"* noalias readonly align 8 dereferenceable(24) bitcast (<{ i8*, [16 x i8] }>* @alloc844 to %"core::panic::location::Location"*)) #19, !noalias !372
  unreachable

bb1.i.i164.i.i:                                   ; preds = %bb12.i149.thread.i.i, %bb12.i149.i.i
  %58 = getelementptr inbounds [128 x i32], [128 x i32]* %out.i, i64 0, i64 %49
  store i32 %n_u32.i.i, i32* %58, align 4, !alias.scope !333, !noalias !376
  %59 = add nuw nsw i64 %49, 1
  %60 = icmp ne i8* %_15.i.i.i.i208.i69.i, null
  tail call void @llvm.assume(i1 %60)
  %_12.i.i.i.i.i.i163.i.i = icmp eq i8* %_15.i.i.i.i208.i69.i, %5
  br i1 %_12.i.i.i.i.i.i163.i.i, label %"_ZN4core5array85_$LT$impl$u20$core..ops..index..Index$LT$I$GT$$u20$for$u20$$u5b$T$u3b$$u20$N$u5d$$GT$5index17hfc276b456ab702faE.exit.i", label %bb92.i.i

bb92.i.i:                                         ; preds = %bb1.i.i164.i.i
  %61 = getelementptr inbounds i8, i8* %_15.i.i.i.i208.i69.i, i64 1
  %v.i.i.i.i.i.i165.i.i = load i8, i8* %_15.i.i.i.i208.i69.i, align 1, !alias.scope !377, !noalias !380
  %62 = udiv i64 %44, %damp.0.i.i
  %_160.i.i = udiv i64 %62, %45
  %63 = add i64 %_160.i.i, %62
  %_165212.i.i = icmp ugt i64 %63, 455
  br i1 %_165212.i.i, label %bb96.i.i, label %bb98.i.i

bb96.i.i:                                         ; preds = %bb92.i.i, %bb96.i.i
  %k1.0214.i.i = phi i64 [ %65, %bb96.i.i ], [ 0, %bb92.i.i ]
  %delta.1213.i.i = phi i64 [ %64, %bb96.i.i ], [ %63, %bb92.i.i ]
  %64 = udiv i64 %delta.1213.i.i, 35
  %65 = add i64 %k1.0214.i.i, 36
  %_165.i.i = icmp ugt i64 %delta.1213.i.i, 15959
  br i1 %_165.i.i, label %bb96.i.i, label %bb98.i.i

bb98.i.i:                                         ; preds = %bb96.i.i, %bb92.i.i
  %delta.1.lcssa.i.i = phi i64 [ %63, %bb92.i.i ], [ %64, %bb96.i.i ]
  %k1.0.lcssa.i.i = phi i64 [ 0, %bb92.i.i ], [ %65, %bb96.i.i ]
  %66 = trunc i64 %delta.1.lcssa.i.i to i16
  %_179.lhs.trunc.i.i = mul i16 %66, 36
  %_179.rhs.trunc.i.i = add i16 %66, 38
  %_179190.i.i = udiv i16 %_179.lhs.trunc.i.i, %_179.rhs.trunc.i.i
  %_179.zext.i.i = zext i16 %_179190.i.i to i64
  %67 = add i64 %k1.0.lcssa.i.i, %_179.zext.i.i
  br label %bb20.i.i

"_ZN4core5array85_$LT$impl$u20$core..ops..index..Index$LT$I$GT$$u20$for$u20$$u5b$T$u3b$$u20$N$u5d$$GT$5index17hfc276b456ab702faE.exit.i": ; preds = %bb1.i.i164.i.i
  tail call void @llvm.experimental.noalias.scope.decl(metadata !392)
  %68 = getelementptr inbounds [128 x i32], [128 x i32]* %out.i, i64 0, i64 %45
  %69 = bitcast i32* %c.i.i to i8*
  %70 = getelementptr inbounds [128 x i32], [128 x i32]* %out.i, i64 0, i64 0
  br label %"_ZN91_$LT$core..slice..iter..Iter$LT$T$GT$$u20$as$u20$core..iter..traits..iterator..Iterator$GT$4next17h5633c4d50af8f758E.exit.i.i"

"_ZN91_$LT$core..slice..iter..Iter$LT$T$GT$$u20$as$u20$core..iter..traits..iterator..Iterator$GT$4next17h5633c4d50af8f758E.exit.i.i": ; preds = %bb9.i.i, %"_ZN4core5array85_$LT$impl$u20$core..ops..index..Index$LT$I$GT$$u20$for$u20$$u5b$T$u3b$$u20$N$u5d$$GT$5index17hfc276b456ab702faE.exit.i"
  %iter.sroa.0.013.i.i = phi i32* [ %71, %bb9.i.i ], [ %70, %"_ZN4core5array85_$LT$impl$u20$core..ops..index..Index$LT$I$GT$$u20$for$u20$$u5b$T$u3b$$u20$N$u5d$$GT$5index17hfc276b456ab702faE.exit.i" ]
  %71 = getelementptr inbounds i32, i32* %iter.sroa.0.013.i.i, i64 1
  call void @llvm.lifetime.start.p0i8(i64 4, i8* nonnull %69), !noalias !395
  %72 = load i32, i32* %iter.sroa.0.013.i.i, align 4, !range !375, !alias.scope !392, !noalias !397
  store i32 %72, i32* %c.i.i, align 4, !noalias !395
; call <char as core::fmt::Display>::fmt
  %_12.i.i = call zeroext i1 @"_ZN43_$LT$char$u20$as$u20$core..fmt..Display$GT$3fmt17h28f84c7c7478cb87E"(i32* noalias nonnull readonly align 4 dereferenceable(4) %c.i.i, %"core::fmt::Formatter"* noalias nonnull align 8 dereferenceable(64) %1), !noalias !397
  call void @llvm.lifetime.end.p0i8(i64 4, i8* nonnull %69), !noalias !395
  br i1 %_12.i.i, label %_ZN14rustc_demangle2v05Ident25try_small_punycode_decode17h635dc45f94f439d8E.exit, label %bb9.i.i

bb9.i.i:                                          ; preds = %"_ZN91_$LT$core..slice..iter..Iter$LT$T$GT$$u20$as$u20$core..iter..traits..iterator..Iterator$GT$4next17h5633c4d50af8f758E.exit.i.i"
  %_12.i.i.i = icmp eq i32* %71, %68
  br i1 %_12.i.i.i, label %_ZN14rustc_demangle2v05Ident25try_small_punycode_decode17h635dc45f94f439d8E.exit, label %"_ZN91_$LT$core..slice..iter..Iter$LT$T$GT$$u20$as$u20$core..iter..traits..iterator..Iterator$GT$4next17h5633c4d50af8f758E.exit.i.i"

_ZN14rustc_demangle2v05Ident25try_small_punycode_decode17h635dc45f94f439d8E.exit: ; preds = %"_ZN91_$LT$core..slice..iter..Iter$LT$T$GT$$u20$as$u20$core..iter..traits..iterator..Iterator$GT$4next17h5633c4d50af8f758E.exit.i.i", %bb9.i.i
  %.0.i = phi i8 [ 1, %"_ZN91_$LT$core..slice..iter..Iter$LT$T$GT$$u20$as$u20$core..iter..traits..iterator..Iterator$GT$4next17h5633c4d50af8f758E.exit.i.i" ], [ 0, %bb9.i.i ]
  call void @llvm.lifetime.end.p0i8(i64 512, i8* nonnull %2), !noalias !328
  br label %"_ZN4core6option15Option$LT$T$GT$14unwrap_or_else17he27de6b62bdbb90dE.exit"

bb1.i:                                            ; preds = %bb11.i.i, %bb73.i.i, %bb64.i.i, %bb48.i.i, %bb49.i.i, %bb37.i.i, %bb33.i.i, %bb29.i.i, %bb2.i.i.i
  call void @llvm.lifetime.end.p0i8(i64 512, i8* nonnull %2), !noalias !328
  br i1 %_12.i.i.i.i.i.i.i.i, label %bb31.i.i, label %bb2.i.i

bb31.i.i:                                         ; preds = %bb1.i.thread, %bb1.i
  %73 = getelementptr inbounds %"v0::Ident", %"v0::Ident"* %0, i64 0, i32 0, i32 0
  %_46.0.i.i = load [0 x i8]*, [0 x i8]** %73, align 8, !noalias !398, !nonnull !2
  %74 = getelementptr inbounds %"v0::Ident", %"v0::Ident"* %0, i64 0, i32 0, i32 1
  %_46.1.i.i = load i64, i64* %74, align 8, !noalias !398
; call core::fmt::Formatter::write_str
  %75 = call zeroext i1 @_ZN4core3fmt9Formatter9write_str17h89723935f155226aE(%"core::fmt::Formatter"* noalias nonnull align 8 dereferenceable(64) %1, [0 x i8]* noalias nonnull readonly align 1 %_46.0.i.i, i64 %_46.1.i.i), !noalias !398
  br label %"_ZN64_$LT$rustc_demangle..v0..Ident$u20$as$u20$core..fmt..Display$GT$3fmt28_$u7b$$u7b$closure$u7d$$u7d$17hfafa4e0825ca9b54E.exit.i"

bb2.i.i:                                          ; preds = %bb1.i
; call core::fmt::Formatter::write_str
  %_6.i.i = call zeroext i1 @_ZN4core3fmt9Formatter9write_str17h89723935f155226aE(%"core::fmt::Formatter"* noalias nonnull align 8 dereferenceable(64) %1, [0 x i8]* noalias nonnull readonly align 1 bitcast (<{ [9 x i8] }>* @alloc873 to [0 x i8]*), i64 9), !noalias !398
  br i1 %_6.i.i, label %"_ZN64_$LT$rustc_demangle..v0..Ident$u20$as$u20$core..fmt..Display$GT$3fmt28_$u7b$$u7b$closure$u7d$$u7d$17hfafa4e0825ca9b54E.exit.i", label %bb5.i.i

bb5.i.i:                                          ; preds = %bb2.i.i
  %76 = getelementptr inbounds %"v0::Ident", %"v0::Ident"* %0, i64 0, i32 0, i32 1
  %_16.1.i.i = load i64, i64* %76, align 8, !noalias !398
  %77 = icmp eq i64 %_16.1.i.i, 0
  br i1 %77, label %bb23.i.i, label %bb10.i.i

bb23.i.i:                                         ; preds = %bb13.i.i4, %bb5.i.i
; call core::fmt::Formatter::write_str
  %_35.i.i = call zeroext i1 @_ZN4core3fmt9Formatter9write_str17h89723935f155226aE(%"core::fmt::Formatter"* noalias nonnull align 8 dereferenceable(64) %1, [0 x i8]* noalias nonnull readonly align 1 %_5.0.i.i, i64 %_5.1.i.i), !noalias !398
  br i1 %_35.i.i, label %"_ZN64_$LT$rustc_demangle..v0..Ident$u20$as$u20$core..fmt..Display$GT$3fmt28_$u7b$$u7b$closure$u7d$$u7d$17hfafa4e0825ca9b54E.exit.i", label %bb26.i.i

bb10.i.i:                                         ; preds = %bb5.i.i
  %78 = getelementptr inbounds %"v0::Ident", %"v0::Ident"* %0, i64 0, i32 0, i32 0
  %_20.0.i.i = load [0 x i8]*, [0 x i8]** %78, align 8, !noalias !398, !nonnull !2
; call core::fmt::Formatter::write_str
  %_18.i.i = call zeroext i1 @_ZN4core3fmt9Formatter9write_str17h89723935f155226aE(%"core::fmt::Formatter"* noalias nonnull align 8 dereferenceable(64) %1, [0 x i8]* noalias nonnull readonly align 1 %_20.0.i.i, i64 %_16.1.i.i), !noalias !398
  br i1 %_18.i.i, label %"_ZN64_$LT$rustc_demangle..v0..Ident$u20$as$u20$core..fmt..Display$GT$3fmt28_$u7b$$u7b$closure$u7d$$u7d$17hfafa4e0825ca9b54E.exit.i", label %bb13.i.i4

bb13.i.i4:                                        ; preds = %bb10.i.i
; call core::fmt::Formatter::write_str
  %_26.i.i = call zeroext i1 @_ZN4core3fmt9Formatter9write_str17h89723935f155226aE(%"core::fmt::Formatter"* noalias nonnull align 8 dereferenceable(64) %1, [0 x i8]* noalias nonnull readonly align 1 bitcast (<{ [1 x i8] }>* @alloc1369 to [0 x i8]*), i64 1), !noalias !398
  br i1 %_26.i.i, label %"_ZN64_$LT$rustc_demangle..v0..Ident$u20$as$u20$core..fmt..Display$GT$3fmt28_$u7b$$u7b$closure$u7d$$u7d$17hfafa4e0825ca9b54E.exit.i", label %bb23.i.i

bb26.i.i:                                         ; preds = %bb23.i.i
; call core::fmt::Formatter::write_str
  %79 = call zeroext i1 @_ZN4core3fmt9Formatter9write_str17h89723935f155226aE(%"core::fmt::Formatter"* noalias nonnull align 8 dereferenceable(64) %1, [0 x i8]* noalias nonnull readonly align 1 bitcast (<{ [1 x i8] }>* @alloc1379 to [0 x i8]*), i64 1), !noalias !398
  br label %"_ZN64_$LT$rustc_demangle..v0..Ident$u20$as$u20$core..fmt..Display$GT$3fmt28_$u7b$$u7b$closure$u7d$$u7d$17hfafa4e0825ca9b54E.exit.i"

"_ZN64_$LT$rustc_demangle..v0..Ident$u20$as$u20$core..fmt..Display$GT$3fmt28_$u7b$$u7b$closure$u7d$$u7d$17hfafa4e0825ca9b54E.exit.i": ; preds = %bb26.i.i, %bb13.i.i4, %bb10.i.i, %bb23.i.i, %bb2.i.i, %bb31.i.i
  %.0.shrunk.i.i = phi i1 [ %79, %bb26.i.i ], [ %75, %bb31.i.i ], [ true, %bb2.i.i ], [ true, %bb10.i.i ], [ true, %bb13.i.i4 ], [ true, %bb23.i.i ]
  %80 = zext i1 %.0.shrunk.i.i to i8
  br label %"_ZN4core6option15Option$LT$T$GT$14unwrap_or_else17he27de6b62bdbb90dE.exit"

"_ZN4core6option15Option$LT$T$GT$14unwrap_or_else17he27de6b62bdbb90dE.exit": ; preds = %_ZN14rustc_demangle2v05Ident25try_small_punycode_decode17h635dc45f94f439d8E.exit, %"_ZN64_$LT$rustc_demangle..v0..Ident$u20$as$u20$core..fmt..Display$GT$3fmt28_$u7b$$u7b$closure$u7d$$u7d$17hfafa4e0825ca9b54E.exit.i"
  %.0.i5 = phi i8 [ %80, %"_ZN64_$LT$rustc_demangle..v0..Ident$u20$as$u20$core..fmt..Display$GT$3fmt28_$u7b$$u7b$closure$u7d$$u7d$17hfafa4e0825ca9b54E.exit.i" ], [ %.0.i, %_ZN14rustc_demangle2v05Ident25try_small_punycode_decode17h635dc45f94f439d8E.exit ]
  %81 = icmp ne i8 %.0.i5, 0
  ret i1 %81
}

; rustc_demangle::v0::HexNibbles::try_parse_uint
; Function Attrs: nonlazybind uwtable
define internal fastcc { i64, i64 } @_ZN14rustc_demangle2v010HexNibbles14try_parse_uint17hbb94b5dd9f1c47d1E({ i8*, i64 }* noalias nocapture readonly align 8 dereferenceable(16) %self) unnamed_addr #1 personality i32 (...)* @rust_eh_personality {
start:
  %_2.i.i = alloca %"core::str::pattern::SearchStep", align 8
  %matcher.i = alloca %"core::str::pattern::StrSearcher", align 8
  %0 = bitcast { i8*, i64 }* %self to [0 x i8]**
  %_3.0 = load [0 x i8]*, [0 x i8]** %0, align 8, !nonnull !2
  %1 = getelementptr inbounds { i8*, i64 }, { i8*, i64 }* %self, i64 0, i32 1
  %_3.1 = load i64, i64* %1, align 8
  %2 = bitcast %"core::str::pattern::StrSearcher"* %matcher.i to i8*
  call void @llvm.lifetime.start.p0i8(i64 104, i8* nonnull %2), !noalias !405
; call core::str::pattern::StrSearcher::new
  call void @_ZN4core3str7pattern11StrSearcher3new17h6ae7735913737082E(%"core::str::pattern::StrSearcher"* noalias nocapture nonnull sret(%"core::str::pattern::StrSearcher") dereferenceable(104) %matcher.i, [0 x i8]* noalias nonnull readonly align 1 %_3.0, i64 %_3.1, [0 x i8]* noalias nonnull readonly align 1 bitcast (<{ [1 x i8] }>* @alloc884 to [0 x i8]*), i64 1)
  %3 = bitcast %"core::str::pattern::SearchStep"* %_2.i.i to i8*
  %4 = getelementptr inbounds %"core::str::pattern::SearchStep", %"core::str::pattern::SearchStep"* %_2.i.i, i64 0, i32 0
  br label %bb1.i.i

bb1.i.i:                                          ; preds = %bb5.i.i, %start
  call void @llvm.lifetime.start.p0i8(i64 24, i8* nonnull %3), !noalias !408
; call <core::str::pattern::StrSearcher as core::str::pattern::Searcher>::next
  call fastcc void @"_ZN80_$LT$core..str..pattern..StrSearcher$u20$as$u20$core..str..pattern..Searcher$GT$4next17h67bd699ff7419e22E"(%"core::str::pattern::SearchStep"* noalias nocapture nonnull dereferenceable(24) %_2.i.i, %"core::str::pattern::StrSearcher"* noalias nonnull align 8 dereferenceable(104) %matcher.i), !noalias !412
  %_4.i.i = load i64, i64* %4, align 8, !range !413, !noalias !408
  switch i64 %_4.i.i, label %bb5.i.i [
    i64 1, label %5
    i64 2, label %_ZN4core3str7pattern8Searcher11next_reject17hb9d8175a10078503E.exit.i
  ]

bb5.i.i:                                          ; preds = %bb1.i.i
  call void @llvm.lifetime.end.p0i8(i64 24, i8* nonnull %3), !noalias !408
  br label %bb1.i.i

_ZN4core3str7pattern8Searcher11next_reject17hb9d8175a10078503E.exit.i: ; preds = %bb1.i.i
  call void @llvm.lifetime.end.p0i8(i64 24, i8* nonnull %3), !noalias !408
  br label %"_ZN4core3str21_$LT$impl$u20$str$GT$18trim_start_matches17h6c1899b555b6cb04E.exit"

5:                                                ; preds = %bb1.i.i
  %6 = getelementptr inbounds %"core::str::pattern::SearchStep", %"core::str::pattern::SearchStep"* %_2.i.i, i64 0, i32 1, i64 0
  %a.i.i = load i64, i64* %6, align 8, !noalias !408
  call void @llvm.lifetime.end.p0i8(i64 24, i8* nonnull %3), !noalias !408
  br label %"_ZN4core3str21_$LT$impl$u20$str$GT$18trim_start_matches17h6c1899b555b6cb04E.exit"

"_ZN4core3str21_$LT$impl$u20$str$GT$18trim_start_matches17h6c1899b555b6cb04E.exit": ; preds = %_ZN4core3str7pattern8Searcher11next_reject17hb9d8175a10078503E.exit.i, %5
  %7 = phi i64 [ %a.i.i, %5 ], [ %_3.1, %_ZN4core3str7pattern8Searcher11next_reject17hb9d8175a10078503E.exit.i ]
  %len.i.i.i = sub i64 %_3.1, %7
  call void @llvm.lifetime.end.p0i8(i64 104, i8* nonnull %2), !noalias !405
  %_4 = icmp ugt i64 %len.i.i.i, 16
  br i1 %_4, label %bb14, label %bb4

bb4:                                              ; preds = %"_ZN4core3str21_$LT$impl$u20$str$GT$18trim_start_matches17h6c1899b555b6cb04E.exit"
  %8 = getelementptr inbounds [0 x i8], [0 x i8]* %_3.0, i64 0, i64 %_3.1
  %_12.i.i.i17 = icmp eq i64 %_3.1, %7
  br i1 %_12.i.i.i17, label %bb14, label %bb3.i.i.preheader

bb3.i.i.preheader:                                ; preds = %bb4
  %9 = getelementptr inbounds [0 x i8], [0 x i8]* %_3.0, i64 0, i64 %7
  br label %bb3.i.i

bb14:                                             ; preds = %"_ZN81_$LT$core..str..iter..Chars$u20$as$u20$core..iter..traits..iterator..Iterator$GT$4next17hb034e96f9b490979E.exit", %"_ZN4core6option15Option$LT$T$GT$6unwrap17h8dd338061fab0a01E.exit", %bb4, %"_ZN4core3str21_$LT$impl$u20$str$GT$18trim_start_matches17h6c1899b555b6cb04E.exit"
  %.sroa.3.0 = phi i64 [ undef, %"_ZN4core3str21_$LT$impl$u20$str$GT$18trim_start_matches17h6c1899b555b6cb04E.exit" ], [ 0, %bb4 ], [ %v.019, %"_ZN81_$LT$core..str..iter..Chars$u20$as$u20$core..iter..traits..iterator..Iterator$GT$4next17hb034e96f9b490979E.exit" ], [ %28, %"_ZN4core6option15Option$LT$T$GT$6unwrap17h8dd338061fab0a01E.exit" ]
  %.sroa.0.0 = phi i64 [ 0, %"_ZN4core3str21_$LT$impl$u20$str$GT$18trim_start_matches17h6c1899b555b6cb04E.exit" ], [ 1, %bb4 ], [ 1, %"_ZN4core6option15Option$LT$T$GT$6unwrap17h8dd338061fab0a01E.exit" ], [ 1, %"_ZN81_$LT$core..str..iter..Chars$u20$as$u20$core..iter..traits..iterator..Iterator$GT$4next17hb034e96f9b490979E.exit" ]
  %10 = insertvalue { i64, i64 } undef, i64 %.sroa.0.0, 0
  %11 = insertvalue { i64, i64 } %10, i64 %.sroa.3.0, 1
  ret { i64, i64 } %11

bb3.i.i:                                          ; preds = %bb3.i.i.preheader, %"_ZN4core6option15Option$LT$T$GT$6unwrap17h8dd338061fab0a01E.exit"
  %v.019 = phi i64 [ %28, %"_ZN4core6option15Option$LT$T$GT$6unwrap17h8dd338061fab0a01E.exit" ], [ 0, %bb3.i.i.preheader ]
  %iter.sroa.0.018 = phi i8* [ %iter.sroa.0.19, %"_ZN4core6option15Option$LT$T$GT$6unwrap17h8dd338061fab0a01E.exit" ], [ %9, %bb3.i.i.preheader ]
  %12 = getelementptr inbounds i8, i8* %iter.sroa.0.018, i64 1
  %x.i.i = load i8, i8* %iter.sroa.0.018, align 1, !noalias !414
  %_11.i.i = icmp sgt i8 %x.i.i, -1
  br i1 %_11.i.i, label %bb7.i.i, label %bb8.i.i

bb8.i.i:                                          ; preds = %bb3.i.i
  %_3.i.i.i = and i8 %x.i.i, 31
  %13 = zext i8 %_3.i.i.i to i32
  %14 = getelementptr inbounds i8, i8* %iter.sroa.0.018, i64 2
  %y.i.i = load i8, i8* %12, align 1, !noalias !414
  %_3.i10.i.i = shl nuw nsw i32 %13, 6
  %_6.i.i.i = and i8 %y.i.i, 63
  %_5.i.i.i = zext i8 %_6.i.i.i to i32
  %15 = or i32 %_3.i10.i.i, %_5.i.i.i
  %_24.i.i = icmp ugt i8 %x.i.i, -33
  br i1 %_24.i.i, label %bb13.i.i, label %bb9

bb7.i.i:                                          ; preds = %bb3.i.i
  %_13.i.i = zext i8 %x.i.i to i32
  br label %bb9

bb13.i.i:                                         ; preds = %bb8.i.i
  %16 = getelementptr inbounds i8, i8* %iter.sroa.0.018, i64 3
  %z.i.i = load i8, i8* %14, align 1, !noalias !414
  %_3.i17.i.i = shl nuw nsw i32 %_5.i.i.i, 6
  %_6.i18.i.i = and i8 %z.i.i, 63
  %_5.i19.i.i = zext i8 %_6.i18.i.i to i32
  %17 = or i32 %_3.i17.i.i, %_5.i19.i.i
  %_35.i.i = shl nuw nsw i32 %13, 12
  %18 = or i32 %17, %_35.i.i
  %_38.i.i = icmp ugt i8 %x.i.i, -17
  br i1 %_38.i.i, label %"_ZN81_$LT$core..str..iter..Chars$u20$as$u20$core..iter..traits..iterator..Iterator$GT$4next17hb034e96f9b490979E.exit", label %bb9

"_ZN81_$LT$core..str..iter..Chars$u20$as$u20$core..iter..traits..iterator..Iterator$GT$4next17hb034e96f9b490979E.exit": ; preds = %bb13.i.i
  %19 = getelementptr inbounds i8, i8* %iter.sroa.0.018, i64 4
  %w.i.i = load i8, i8* %16, align 1, !noalias !414
  %_45.i.i = shl nuw nsw i32 %13, 18
  %_44.i.i = and i32 %_45.i.i, 1835008
  %_3.i26.i.i = shl nuw nsw i32 %17, 6
  %_6.i27.i.i = and i8 %w.i.i, 63
  %_5.i28.i.i = zext i8 %_6.i27.i.i to i32
  %20 = or i32 %_3.i26.i.i, %_5.i28.i.i
  %21 = or i32 %20, %_44.i.i
  %22 = icmp eq i32 %21, 1114112
  br i1 %22, label %bb14, label %bb9

bb9:                                              ; preds = %bb7.i.i, %bb13.i.i, %bb8.i.i, %"_ZN81_$LT$core..str..iter..Chars$u20$as$u20$core..iter..traits..iterator..Iterator$GT$4next17hb034e96f9b490979E.exit"
  %23 = phi i32 [ %21, %"_ZN81_$LT$core..str..iter..Chars$u20$as$u20$core..iter..traits..iterator..Iterator$GT$4next17hb034e96f9b490979E.exit" ], [ %_13.i.i, %bb7.i.i ], [ %18, %bb13.i.i ], [ %15, %bb8.i.i ]
  %iter.sroa.0.19 = phi i8* [ %19, %"_ZN81_$LT$core..str..iter..Chars$u20$as$u20$core..iter..traits..iterator..Iterator$GT$4next17hb034e96f9b490979E.exit" ], [ %12, %bb7.i.i ], [ %16, %bb13.i.i ], [ %14, %bb8.i.i ]
  %_17 = shl i64 %v.019, 4
  %24 = icmp ult i32 %23, 1114112
  tail call void @llvm.assume(i1 %24) #20
  %25 = add nsw i32 %23, -48
  %_12.i = icmp ult i32 %25, 10
  br i1 %_12.i, label %"_ZN4core6option15Option$LT$T$GT$6unwrap17h8dd338061fab0a01E.exit", label %"_ZN4core4char7methods22_$LT$impl$u20$char$GT$8to_digit17h5e58b682e9b8ee4dE.exit"

"_ZN4core4char7methods22_$LT$impl$u20$char$GT$8to_digit17h5e58b682e9b8ee4dE.exit": ; preds = %bb9
  %_17.i = or i32 %23, 32
  %26 = add nsw i32 %_17.i, -97
  %27 = tail call i32 @llvm.uadd.sat.i32(i32 %26, i32 10) #20
  %_21.i = icmp ugt i32 %27, 15
  br i1 %_21.i, label %bb1.i, label %"_ZN4core6option15Option$LT$T$GT$6unwrap17h8dd338061fab0a01E.exit"

bb1.i:                                            ; preds = %"_ZN4core4char7methods22_$LT$impl$u20$char$GT$8to_digit17h5e58b682e9b8ee4dE.exit"
; call core::panicking::panic
  tail call void @_ZN4core9panicking5panic17he84354dce55c9beeE([0 x i8]* noalias nonnull readonly align 1 bitcast (<{ [43 x i8] }>* @alloc1451 to [0 x i8]*), i64 43, %"core::panic::location::Location"* noalias nonnull readonly align 8 dereferenceable(24) bitcast (<{ i8*, [16 x i8] }>* @alloc886 to %"core::panic::location::Location"*)) #19
  unreachable

"_ZN4core6option15Option$LT$T$GT$6unwrap17h8dd338061fab0a01E.exit": ; preds = %bb9, %"_ZN4core4char7methods22_$LT$impl$u20$char$GT$8to_digit17h5e58b682e9b8ee4dE.exit"
  %.sroa.4.0.i15 = phi i32 [ %27, %"_ZN4core4char7methods22_$LT$impl$u20$char$GT$8to_digit17h5e58b682e9b8ee4dE.exit" ], [ %25, %bb9 ]
  %_19 = zext i32 %.sroa.4.0.i15 to i64
  %28 = or i64 %_17, %_19
  %_12.i.i.i = icmp eq i8* %iter.sroa.0.19, %8
  br i1 %_12.i.i.i, label %bb14, label %bb3.i.i
}

; rustc_demangle::v0::HexNibbles::try_parse_str_chars::{{closure}}::{{closure}}::utf8_len_from_first_byte
; Function Attrs: mustprogress nofree norecurse nosync nounwind nonlazybind readnone uwtable willreturn
define i128 @"_ZN14rustc_demangle2v010HexNibbles19try_parse_str_chars28_$u7b$$u7b$closure$u7d$$u7d$28_$u7b$$u7b$closure$u7d$$u7d$24utf8_len_from_first_byte17h2ebda888db69ab5dE"(i8 %byte) unnamed_addr #2 {
start:
  %_13 = icmp sgt i8 %byte, -1
  br i1 %_13, label %bb19, label %bb2

bb2:                                              ; preds = %start
  %_11 = icmp ult i8 %byte, -64
  br i1 %_11, label %bb19, label %bb4

bb19:                                             ; preds = %bb6, %bb8, %bb4, %bb2, %start
  %.sroa.95.0 = phi i64 [ 1, %start ], [ undef, %bb2 ], [ 2, %bb4 ], [ 4, %bb8 ], [ 3, %bb6 ]
  %.sroa.7.0 = phi i8 [ undef, %start ], [ 0, %bb2 ], [ undef, %bb4 ], [ 1, %bb8 ], [ undef, %bb6 ]
  %.sroa.0.0 = phi i8 [ 0, %start ], [ 1, %bb2 ], [ 0, %bb4 ], [ %.7, %bb8 ], [ 0, %bb6 ]
  %.sroa.95.0.insert.ext = zext i64 %.sroa.95.0 to i128
  %.sroa.95.0.insert.shift = shl nuw nsw i128 %.sroa.95.0.insert.ext, 64
  %.sroa.7.0.insert.ext = zext i8 %.sroa.7.0 to i128
  %.sroa.7.0.insert.shift = shl nuw nsw i128 %.sroa.7.0.insert.ext, 8
  %.sroa.7.0.insert.insert = or i128 %.sroa.7.0.insert.shift, %.sroa.95.0.insert.shift
  %.sroa.0.0.insert.ext = zext i8 %.sroa.0.0 to i128
  %.sroa.0.0.insert.insert = or i128 %.sroa.7.0.insert.insert, %.sroa.0.0.insert.ext
  ret i128 %.sroa.0.0.insert.insert

bb4:                                              ; preds = %bb2
  %_9 = icmp ult i8 %byte, -32
  br i1 %_9, label %bb19, label %bb6

bb6:                                              ; preds = %bb4
  %_7 = icmp ult i8 %byte, -16
  br i1 %_7, label %bb19, label %bb8

bb8:                                              ; preds = %bb6
  %_5 = icmp ugt i8 %byte, -9
  %.7 = zext i1 %_5 to i8
  br label %bb19
}

; rustc_demangle::v0::Parser::hex_nibbles
; Function Attrs: nonlazybind uwtable
define internal fastcc void @_ZN14rustc_demangle2v06Parser11hex_nibbles17h8428d0fadac42f41E(%"core::result::Result<v0::HexNibbles, v0::ParseError>"* noalias nocapture dereferenceable(24) %0, %"v0::Parser"* noalias nocapture align 8 dereferenceable(32) %self) unnamed_addr #1 {
start:
  %1 = getelementptr %"v0::Parser", %"v0::Parser"* %self, i64 0, i32 1
  %start1 = load i64, i64* %1, align 8
  %self.idx.i = getelementptr %"v0::Parser", %"v0::Parser"* %self, i64 0, i32 0, i32 0
  %self.idx.val.i = load [0 x i8]*, [0 x i8]** %self.idx.i, align 8, !alias.scope !419
  %self.idx5.i = getelementptr %"v0::Parser", %"v0::Parser"* %self, i64 0, i32 0, i32 1
  %self.idx5.val.i = load i64, i64* %self.idx5.i, align 8, !alias.scope !419
  %2 = icmp eq [0 x i8]* %self.idx.val.i, null
  br i1 %2, label %bb6.sink.split, label %start.split

start.split:                                      ; preds = %start
  %.not = icmp ult i64 %start1, %self.idx5.val.i
  br i1 %.not, label %bb1, label %bb6.sink.split

bb1:                                              ; preds = %start.split, %bb4
  %self.idx6.val.i = phi i64 [ %4, %bb4 ], [ %start1, %start.split ]
  tail call void @llvm.experimental.noalias.scope.decl(metadata !419)
  %_3.i.i.i.i.not = icmp ult i64 %self.idx6.val.i, %self.idx5.val.i
  br i1 %_3.i.i.i.i.not, label %bb4, label %bb6

bb4:                                              ; preds = %bb1
  %3 = getelementptr inbounds [0 x i8], [0 x i8]* %self.idx.val.i, i64 0, i64 %self.idx6.val.i
  %.val.i.i.i = load i8, i8* %3, align 1, !alias.scope !422, !noalias !419
  %4 = add nuw i64 %self.idx6.val.i, 1
  store i64 %4, i64* %1, align 8, !alias.scope !419
  %.fca.1.extract.off = add i8 %.val.i.i.i, -48
  %5 = icmp ult i8 %.fca.1.extract.off, 10
  %.fca.1.extract.off9 = add i8 %.val.i.i.i, -97
  %6 = icmp ult i8 %.fca.1.extract.off9, 6
  %or.cond = or i1 %5, %6
  br i1 %or.cond, label %bb1, label %bb11, !llvm.loop !425

bb6.sink.split:                                   ; preds = %start.split, %start
  tail call void @llvm.experimental.noalias.scope.decl(metadata !419)
  br label %bb6

bb6:                                              ; preds = %bb1, %bb6.sink.split
  %7 = getelementptr inbounds %"core::result::Result<v0::HexNibbles, v0::ParseError>", %"core::result::Result<v0::HexNibbles, v0::ParseError>"* %0, i64 0, i32 1, i64 0
  store i8 0, i8* %7, align 1, !alias.scope !427
  br label %bb17

bb11:                                             ; preds = %bb4
  %phi.cmp = icmp eq i8 %.val.i.i.i, 95
  br i1 %phi.cmp, label %bb14, label %bb12

bb14:                                             ; preds = %bb11
  %_5.not.i.i.i = icmp ult i64 %self.idx6.val.i, %start1
  br i1 %_5.not.i.i.i, label %bb2.i.i, label %bb5.i.i.i

bb5.i.i.i:                                        ; preds = %bb14
  %8 = icmp eq i64 %start1, 0
  br i1 %8, label %bb2.i.i.i, label %bb2.i.i.i.i

bb2.i.i.i.i:                                      ; preds = %bb5.i.i.i
  br i1 %.not, label %"_ZN4core3str21_$LT$impl$u20$str$GT$16is_char_boundary17hb758182025112b0cE.exit.i.i.i", label %bb7.i.i.i.i

bb7.i.i.i.i:                                      ; preds = %bb2.i.i.i.i
  %9 = icmp eq i64 %self.idx5.val.i, %start1
  br i1 %9, label %bb2.i.i.i, label %bb2.i.i

"_ZN4core3str21_$LT$impl$u20$str$GT$16is_char_boundary17hb758182025112b0cE.exit.i.i.i": ; preds = %bb2.i.i.i.i
  %10 = getelementptr inbounds [0 x i8], [0 x i8]* %self.idx.val.i, i64 0, i64 %start1
  %b.i.i.i.i = load i8, i8* %10, align 1, !alias.scope !430, !noalias !439
  %11 = icmp sgt i8 %b.i.i.i.i, -65
  br i1 %11, label %bb2.i.i.i, label %bb2.i.i

bb2.i.i.i:                                        ; preds = %"_ZN4core3str21_$LT$impl$u20$str$GT$16is_char_boundary17hb758182025112b0cE.exit.i.i.i", %bb7.i.i.i.i, %bb5.i.i.i
  %12 = icmp eq i64 %self.idx6.val.i, 0
  br i1 %12, label %"_ZN4core3str6traits66_$LT$impl$u20$core..ops..index..Index$LT$I$GT$$u20$for$u20$str$GT$5index17h4d26f96aabf066fbE.exit", label %bb2.i3.i.i.i

bb2.i3.i.i.i:                                     ; preds = %bb2.i.i.i
  %_3.i.i.i2.i.i.i = icmp ult i64 %self.idx6.val.i, %self.idx5.val.i
  br i1 %_3.i.i.i2.i.i.i, label %"_ZN4core3str21_$LT$impl$u20$str$GT$16is_char_boundary17hb758182025112b0cE.exit8.i.i.i", label %bb7.i4.i.i.i

bb7.i4.i.i.i:                                     ; preds = %bb2.i3.i.i.i
  %13 = icmp eq i64 %self.idx5.val.i, %self.idx6.val.i
  br i1 %13, label %"_ZN4core3str6traits66_$LT$impl$u20$core..ops..index..Index$LT$I$GT$$u20$for$u20$str$GT$5index17h4d26f96aabf066fbE.exit", label %bb2.i.i

"_ZN4core3str21_$LT$impl$u20$str$GT$16is_char_boundary17hb758182025112b0cE.exit8.i.i.i": ; preds = %bb2.i3.i.i.i
  %14 = getelementptr inbounds [0 x i8], [0 x i8]* %self.idx.val.i, i64 0, i64 %self.idx6.val.i
  %b.i5.i.i.i = load i8, i8* %14, align 1, !alias.scope !442, !noalias !439
  %15 = icmp sgt i8 %b.i5.i.i.i, -65
  br i1 %15, label %"_ZN4core3str6traits66_$LT$impl$u20$core..ops..index..Index$LT$I$GT$$u20$for$u20$str$GT$5index17h4d26f96aabf066fbE.exit", label %bb2.i.i

bb2.i.i:                                          ; preds = %"_ZN4core3str21_$LT$impl$u20$str$GT$16is_char_boundary17hb758182025112b0cE.exit8.i.i.i", %bb7.i4.i.i.i, %"_ZN4core3str21_$LT$impl$u20$str$GT$16is_char_boundary17hb758182025112b0cE.exit.i.i.i", %bb7.i.i.i.i, %bb14
; call core::str::slice_error_fail
  tail call void @_ZN4core3str16slice_error_fail17h0d3b5d2bc1b01573E([0 x i8]* noalias nonnull readonly align 1 %self.idx.val.i, i64 %self.idx5.val.i, i64 %start1, i64 %self.idx6.val.i, %"core::panic::location::Location"* noalias nonnull readonly align 8 dereferenceable(24) bitcast (<{ i8*, [16 x i8] }>* @alloc930 to %"core::panic::location::Location"*)) #19
  unreachable

"_ZN4core3str6traits66_$LT$impl$u20$core..ops..index..Index$LT$I$GT$$u20$for$u20$str$GT$5index17h4d26f96aabf066fbE.exit": ; preds = %bb2.i.i.i, %bb7.i4.i.i.i, %"_ZN4core3str21_$LT$impl$u20$str$GT$16is_char_boundary17hb758182025112b0cE.exit8.i.i.i"
  %16 = getelementptr inbounds [0 x i8], [0 x i8]* %self.idx.val.i, i64 0, i64 %start1
  %len.i.i.i.i = sub i64 %self.idx6.val.i, %start1
  %17 = getelementptr inbounds %"core::result::Result<v0::HexNibbles, v0::ParseError>", %"core::result::Result<v0::HexNibbles, v0::ParseError>"* %0, i64 0, i32 1, i64 7
  %18 = bitcast i8* %17 to i8**
  store i8* %16, i8** %18, align 8
  %19 = getelementptr inbounds %"core::result::Result<v0::HexNibbles, v0::ParseError>", %"core::result::Result<v0::HexNibbles, v0::ParseError>"* %0, i64 0, i32 1, i64 15
  %20 = bitcast i8* %19 to i64*
  store i64 %len.i.i.i.i, i64* %20, align 8
  br label %bb17

bb12:                                             ; preds = %bb11
  %21 = getelementptr inbounds %"core::result::Result<v0::HexNibbles, v0::ParseError>", %"core::result::Result<v0::HexNibbles, v0::ParseError>"* %0, i64 0, i32 1, i64 0
  store i8 0, i8* %21, align 1
  br label %bb17

bb17:                                             ; preds = %bb6, %bb12, %"_ZN4core3str6traits66_$LT$impl$u20$core..ops..index..Index$LT$I$GT$$u20$for$u20$str$GT$5index17h4d26f96aabf066fbE.exit"
  %.sink = phi i8 [ 1, %bb6 ], [ 1, %bb12 ], [ 0, %"_ZN4core3str6traits66_$LT$impl$u20$core..ops..index..Index$LT$I$GT$$u20$for$u20$str$GT$5index17h4d26f96aabf066fbE.exit" ]
  %22 = getelementptr inbounds %"core::result::Result<v0::HexNibbles, v0::ParseError>", %"core::result::Result<v0::HexNibbles, v0::ParseError>"* %0, i64 0, i32 0
  store i8 %.sink, i8* %22, align 8
  ret void
}

; rustc_demangle::v0::Parser::integer_62
; Function Attrs: nofree nosync nounwind nonlazybind uwtable
define internal fastcc i128 @_ZN14rustc_demangle2v06Parser10integer_6217h89fa80c80c0b691cE(%"v0::Parser"* noalias nocapture align 8 dereferenceable(32) %self) unnamed_addr #3 {
start:
  tail call void @llvm.experimental.noalias.scope.decl(metadata !445)
  %self.idx.i = getelementptr %"v0::Parser", %"v0::Parser"* %self, i64 0, i32 0, i32 0
  %self.idx.val.i = load [0 x i8]*, [0 x i8]** %self.idx.i, align 8, !alias.scope !445
  %self.idx1.i = getelementptr %"v0::Parser", %"v0::Parser"* %self, i64 0, i32 0, i32 1
  %self.idx1.val.i = load i64, i64* %self.idx1.i, align 8, !alias.scope !445
  %self.idx2.i = getelementptr %"v0::Parser", %"v0::Parser"* %self, i64 0, i32 1
  %self.idx2.val.i = load i64, i64* %self.idx2.i, align 8, !alias.scope !445
  %_3.i.i.i.i = icmp uge i64 %self.idx2.val.i, %self.idx1.val.i
  %0 = icmp eq [0 x i8]* %self.idx.val.i, null
  %1 = select i1 %_3.i.i.i.i, i1 true, i1 %0
  br i1 %1, label %_ZN14rustc_demangle2v06Parser3eat17hefa37a98ca3635c8E.exit, label %"_ZN70_$LT$core..option..Option$LT$T$GT$$u20$as$u20$core..cmp..PartialEq$GT$2eq17hc8c71ec5e32672e4E.exit.i"

"_ZN70_$LT$core..option..Option$LT$T$GT$$u20$as$u20$core..cmp..PartialEq$GT$2eq17hc8c71ec5e32672e4E.exit.i": ; preds = %start
  %2 = getelementptr inbounds [0 x i8], [0 x i8]* %self.idx.val.i, i64 0, i64 %self.idx2.val.i
  %.val.i.i.i = load i8, i8* %2, align 1, !alias.scope !448, !noalias !445
  %3 = icmp eq i8 %.val.i.i.i, 95
  br i1 %3, label %_ZN14rustc_demangle2v06Parser3eat17hefa37a98ca3635c8E.exit.thread, label %_ZN14rustc_demangle2v06Parser3eat17hefa37a98ca3635c8E.exit

_ZN14rustc_demangle2v06Parser3eat17hefa37a98ca3635c8E.exit.thread: ; preds = %"_ZN70_$LT$core..option..Option$LT$T$GT$$u20$as$u20$core..cmp..PartialEq$GT$2eq17hc8c71ec5e32672e4E.exit.i"
  %4 = add nuw i64 %self.idx2.val.i, 1
  store i64 %4, i64* %self.idx2.i, align 8, !alias.scope !445
  br label %bb31

_ZN14rustc_demangle2v06Parser3eat17hefa37a98ca3635c8E.exit: ; preds = %start, %"_ZN70_$LT$core..option..Option$LT$T$GT$$u20$as$u20$core..cmp..PartialEq$GT$2eq17hc8c71ec5e32672e4E.exit.i"
  br i1 %0, label %_ZN14rustc_demangle2v06Parser3eat17hefa37a98ca3635c8E.exit.split.us, label %bb4.preheader

bb4.preheader:                                    ; preds = %_ZN14rustc_demangle2v06Parser3eat17hefa37a98ca3635c8E.exit
  %_3.i.i.i.i108.not180 = icmp ult i64 %self.idx2.val.i, %self.idx1.val.i
  br i1 %_3.i.i.i.i108.not180, label %"_ZN70_$LT$core..option..Option$LT$T$GT$$u20$as$u20$core..cmp..PartialEq$GT$2eq17hc8c71ec5e32672e4E.exit.i110", label %bb11.sink.split

_ZN14rustc_demangle2v06Parser3eat17hefa37a98ca3635c8E.exit.split.us: ; preds = %_ZN14rustc_demangle2v06Parser3eat17hefa37a98ca3635c8E.exit
  tail call void @llvm.experimental.noalias.scope.decl(metadata !451)
  br label %bb11.sink.split

bb31:                                             ; preds = %bb7.i, %bb9, %bb16, %bb11.sink.split, %_ZN14rustc_demangle2v06Parser3eat17hefa37a98ca3635c8E.exit.thread, %bb27
  %.sroa.625.0 = phi i64 [ %9, %bb27 ], [ 0, %_ZN14rustc_demangle2v06Parser3eat17hefa37a98ca3635c8E.exit.thread ], [ 0, %bb11.sink.split ], [ 0, %bb16 ], [ 0, %bb9 ], [ 0, %bb7.i ]
  %.sroa.0.0 = phi i8 [ %.sroa.097.0.extract.trunc, %bb27 ], [ 0, %_ZN14rustc_demangle2v06Parser3eat17hefa37a98ca3635c8E.exit.thread ], [ 1, %bb11.sink.split ], [ 1, %bb16 ], [ 1, %bb9 ], [ 1, %bb7.i ]
  %.sroa.625.0.insert.ext = zext i64 %.sroa.625.0 to i128
  %.sroa.625.0.insert.shift = shl nuw i128 %.sroa.625.0.insert.ext, 64
  %.sroa.0.0.insert.ext = zext i8 %.sroa.0.0 to i128
  %.sroa.0.0.insert.insert = or i128 %.sroa.625.0.insert.shift, %.sroa.0.0.insert.ext
  ret i128 %.sroa.0.0.insert.insert

"_ZN70_$LT$core..option..Option$LT$T$GT$$u20$as$u20$core..cmp..PartialEq$GT$2eq17hc8c71ec5e32672e4E.exit.i110": ; preds = %bb4.preheader, %bb23
  %x.0182 = phi i64 [ %23, %bb23 ], [ 0, %bb4.preheader ]
  %self.idx15.val.i181 = phi i64 [ %17, %bb23 ], [ %self.idx2.val.i, %bb4.preheader ]
  tail call void @llvm.experimental.noalias.scope.decl(metadata !451)
  %5 = getelementptr inbounds [0 x i8], [0 x i8]* %self.idx.val.i, i64 0, i64 %self.idx15.val.i181
  %.val.i.i.i109 = load i8, i8* %5, align 1, !alias.scope !454, !noalias !451
  %6 = icmp eq i8 %.val.i.i.i109, 95
  br i1 %6, label %bb27, label %bb3.i118

bb27:                                             ; preds = %"_ZN70_$LT$core..option..Option$LT$T$GT$$u20$as$u20$core..cmp..PartialEq$GT$2eq17hc8c71ec5e32672e4E.exit.i110"
  %7 = add nuw i64 %self.idx15.val.i181, 1
  store i64 %7, i64* %self.idx2.i, align 8, !alias.scope !451
  %8 = tail call { i64, i1 } @llvm.uadd.with.overflow.i64(i64 %x.0182, i64 1) #20
  %9 = extractvalue { i64, i1 } %8, 0
  %10 = extractvalue { i64, i1 } %8, 1
  %.sroa.097.0.extract.trunc = zext i1 %10 to i8
  br label %bb31

bb3.i118:                                         ; preds = %"_ZN70_$LT$core..option..Option$LT$T$GT$$u20$as$u20$core..cmp..PartialEq$GT$2eq17hc8c71ec5e32672e4E.exit.i110"
  %11 = getelementptr inbounds [0 x i8], [0 x i8]* %self.idx.val.i, i64 0, i64 %self.idx15.val.i181
  %.val.i.i.i117 = load i8, i8* %11, align 1, !alias.scope !457, !noalias !460
  %.val.i.i.off.i = add i8 %.val.i.i.i117, -48
  %12 = icmp ult i8 %.val.i.i.off.i, 10
  br i1 %12, label %bb9, label %bb5.i

bb5.i:                                            ; preds = %bb3.i118
  %.val.i.i.off18.i = add i8 %.val.i.i.i117, -97
  %13 = icmp ult i8 %.val.i.i.off18.i, 26
  br i1 %13, label %bb10.i, label %bb7.i

bb7.i:                                            ; preds = %bb5.i
  %.val.i.i.off19.i = add i8 %.val.i.i.i117, -65
  %14 = icmp ult i8 %.val.i.i.off19.i, 26
  br i1 %14, label %bb11.i, label %bb31

bb10.i:                                           ; preds = %bb5.i
  %15 = add nsw i8 %.val.i.i.i117, -87
  br label %bb9

bb11.i:                                           ; preds = %bb7.i
  %16 = add nsw i8 %.val.i.i.i117, -29
  br label %bb9

bb9:                                              ; preds = %bb3.i118, %bb10.i, %bb11.i
  %d.0.i = phi i8 [ %15, %bb10.i ], [ %16, %bb11.i ], [ %.val.i.i.off.i, %bb3.i118 ]
  %17 = add nuw i64 %self.idx15.val.i181, 1
  store i64 %17, i64* %self.idx2.i, align 8, !alias.scope !460
  %18 = tail call { i64, i1 } @llvm.umul.with.overflow.i64(i64 %x.0182, i64 62) #20
  %19 = extractvalue { i64, i1 } %18, 1
  br i1 %19, label %bb31, label %bb16

bb11.sink.split:                                  ; preds = %bb23, %bb4.preheader, %_ZN14rustc_demangle2v06Parser3eat17hefa37a98ca3635c8E.exit.split.us
  tail call void @llvm.experimental.noalias.scope.decl(metadata !460)
  br label %bb31

bb16:                                             ; preds = %bb9
  %20 = extractvalue { i64, i1 } %18, 0
  %d = zext i8 %d.0.i to i64
  %21 = tail call { i64, i1 } @llvm.uadd.with.overflow.i64(i64 %20, i64 %d) #20
  %22 = extractvalue { i64, i1 } %21, 1
  br i1 %22, label %bb31, label %bb23

bb23:                                             ; preds = %bb16
  %23 = extractvalue { i64, i1 } %21, 0
  %_3.i.i.i.i108.not = icmp ult i64 %17, %self.idx1.val.i
  br i1 %_3.i.i.i.i108.not, label %"_ZN70_$LT$core..option..Option$LT$T$GT$$u20$as$u20$core..cmp..PartialEq$GT$2eq17hc8c71ec5e32672e4E.exit.i110", label %bb11.sink.split
}

; rustc_demangle::v0::Parser::disambiguator
; Function Attrs: nofree nosync nounwind nonlazybind uwtable
define internal fastcc i128 @_ZN14rustc_demangle2v06Parser13disambiguator17he46cb40b833ca40dE(%"v0::Parser"* noalias nocapture align 8 dereferenceable(32) %self) unnamed_addr #3 {
start:
  tail call void @llvm.experimental.noalias.scope.decl(metadata !463)
  tail call void @llvm.experimental.noalias.scope.decl(metadata !466) #20
  %self.idx.i.i = getelementptr %"v0::Parser", %"v0::Parser"* %self, i64 0, i32 0, i32 0
  %self.idx.val.i.i = load [0 x i8]*, [0 x i8]** %self.idx.i.i, align 8, !alias.scope !469
  %self.idx1.i.i = getelementptr %"v0::Parser", %"v0::Parser"* %self, i64 0, i32 0, i32 1
  %self.idx1.val.i.i = load i64, i64* %self.idx1.i.i, align 8, !alias.scope !469
  %self.idx2.i.i = getelementptr %"v0::Parser", %"v0::Parser"* %self, i64 0, i32 1
  %self.idx2.val.i.i = load i64, i64* %self.idx2.i.i, align 8, !alias.scope !469
  %_3.i.i.i.i.i = icmp uge i64 %self.idx2.val.i.i, %self.idx1.val.i.i
  %0 = icmp eq [0 x i8]* %self.idx.val.i.i, null
  %1 = select i1 %_3.i.i.i.i.i, i1 true, i1 %0
  br i1 %1, label %_ZN14rustc_demangle2v06Parser14opt_integer_6217hc8ea761f0ae2e85aE.exit, label %"_ZN70_$LT$core..option..Option$LT$T$GT$$u20$as$u20$core..cmp..PartialEq$GT$2eq17hc8c71ec5e32672e4E.exit.i.i"

"_ZN70_$LT$core..option..Option$LT$T$GT$$u20$as$u20$core..cmp..PartialEq$GT$2eq17hc8c71ec5e32672e4E.exit.i.i": ; preds = %start
  %2 = getelementptr inbounds [0 x i8], [0 x i8]* %self.idx.val.i.i, i64 0, i64 %self.idx2.val.i.i
  %.val.i.i.i.i = load i8, i8* %2, align 1, !alias.scope !470, !noalias !469
  %3 = icmp eq i8 %.val.i.i.i.i, 115
  br i1 %3, label %bb3.i, label %_ZN14rustc_demangle2v06Parser14opt_integer_6217hc8ea761f0ae2e85aE.exit

bb3.i:                                            ; preds = %"_ZN70_$LT$core..option..Option$LT$T$GT$$u20$as$u20$core..cmp..PartialEq$GT$2eq17hc8c71ec5e32672e4E.exit.i.i"
  %4 = add nuw i64 %self.idx2.val.i.i, 1
  store i64 %4, i64* %self.idx2.i.i, align 8, !alias.scope !469
  tail call void @llvm.experimental.noalias.scope.decl(metadata !473) #20
  tail call void @llvm.experimental.noalias.scope.decl(metadata !476) #20
  %_3.i.i.i.i.i.not.i = icmp ult i64 %4, %self.idx1.val.i.i
  br i1 %_3.i.i.i.i.i.not.i, label %"_ZN70_$LT$core..option..Option$LT$T$GT$$u20$as$u20$core..cmp..PartialEq$GT$2eq17hc8c71ec5e32672e4E.exit.i.i.i", label %_ZN14rustc_demangle2v06Parser14opt_integer_6217hc8ea761f0ae2e85aE.exit

"_ZN70_$LT$core..option..Option$LT$T$GT$$u20$as$u20$core..cmp..PartialEq$GT$2eq17hc8c71ec5e32672e4E.exit.i.i.i": ; preds = %bb3.i
  %5 = getelementptr inbounds [0 x i8], [0 x i8]* %self.idx.val.i.i, i64 0, i64 %4
  %.val.i.i.i.i.i = load i8, i8* %5, align 1, !alias.scope !479, !noalias !482
  %6 = icmp eq i8 %.val.i.i.i.i.i, 95
  br i1 %6, label %_ZN14rustc_demangle2v06Parser10integer_6217h89fa80c80c0b691cE.exit.thread53.i, label %bb3.i118.i.i

_ZN14rustc_demangle2v06Parser10integer_6217h89fa80c80c0b691cE.exit.thread53.i: ; preds = %"_ZN70_$LT$core..option..Option$LT$T$GT$$u20$as$u20$core..cmp..PartialEq$GT$2eq17hc8c71ec5e32672e4E.exit.i.i.i"
  %7 = add nuw i64 %self.idx2.val.i.i, 2
  store i64 %7, i64* %self.idx2.i.i, align 8, !alias.scope !482
  br label %bb6.i

bb3.i118.i.i:                                     ; preds = %"_ZN70_$LT$core..option..Option$LT$T$GT$$u20$as$u20$core..cmp..PartialEq$GT$2eq17hc8c71ec5e32672e4E.exit.i.i.i", %"bb16.i.i._ZN70_$LT$core..option..Option$LT$T$GT$$u20$as$u20$core..cmp..PartialEq$GT$2eq17hc8c71ec5e32672e4E.exit.i110.i.i_crit_edge"
  %self.idx15.val.i.i47.i13 = phi i64 [ %13, %"bb16.i.i._ZN70_$LT$core..option..Option$LT$T$GT$$u20$as$u20$core..cmp..PartialEq$GT$2eq17hc8c71ec5e32672e4E.exit.i110.i.i_crit_edge" ], [ %4, %"_ZN70_$LT$core..option..Option$LT$T$GT$$u20$as$u20$core..cmp..PartialEq$GT$2eq17hc8c71ec5e32672e4E.exit.i.i.i" ]
  %x.0.i48.i12 = phi i64 [ %19, %"bb16.i.i._ZN70_$LT$core..option..Option$LT$T$GT$$u20$as$u20$core..cmp..PartialEq$GT$2eq17hc8c71ec5e32672e4E.exit.i110.i.i_crit_edge" ], [ 0, %"_ZN70_$LT$core..option..Option$LT$T$GT$$u20$as$u20$core..cmp..PartialEq$GT$2eq17hc8c71ec5e32672e4E.exit.i.i.i" ]
  %.val.i.i.i109.i.i11 = phi i8 [ %.val.i.i.i109.i.i.pre, %"bb16.i.i._ZN70_$LT$core..option..Option$LT$T$GT$$u20$as$u20$core..cmp..PartialEq$GT$2eq17hc8c71ec5e32672e4E.exit.i110.i.i_crit_edge" ], [ %.val.i.i.i.i.i, %"_ZN70_$LT$core..option..Option$LT$T$GT$$u20$as$u20$core..cmp..PartialEq$GT$2eq17hc8c71ec5e32672e4E.exit.i.i.i" ]
  tail call void @llvm.experimental.noalias.scope.decl(metadata !483) #20
  %.val.i.i.off.i.i.i = add i8 %.val.i.i.i109.i.i11, -48
  %8 = icmp ult i8 %.val.i.i.off.i.i.i, 10
  br i1 %8, label %bb9.i.i, label %bb5.i.i.i

bb5.i.i.i:                                        ; preds = %bb3.i118.i.i
  %.val.i.i.off18.i.i.i = add i8 %.val.i.i.i109.i.i11, -97
  %9 = icmp ult i8 %.val.i.i.off18.i.i.i, 26
  br i1 %9, label %bb10.i.i.i, label %bb7.i.i.i

bb7.i.i.i:                                        ; preds = %bb5.i.i.i
  %.val.i.i.off19.i.i.i = add i8 %.val.i.i.i109.i.i11, -65
  %10 = icmp ult i8 %.val.i.i.off19.i.i.i, 26
  br i1 %10, label %bb11.i.i.i, label %_ZN14rustc_demangle2v06Parser14opt_integer_6217hc8ea761f0ae2e85aE.exit

bb10.i.i.i:                                       ; preds = %bb5.i.i.i
  %11 = add nsw i8 %.val.i.i.i109.i.i11, -87
  br label %bb9.i.i

bb11.i.i.i:                                       ; preds = %bb7.i.i.i
  %12 = add nsw i8 %.val.i.i.i109.i.i11, -29
  br label %bb9.i.i

bb9.i.i:                                          ; preds = %bb11.i.i.i, %bb10.i.i.i, %bb3.i118.i.i
  %d.0.i.i.i = phi i8 [ %11, %bb10.i.i.i ], [ %12, %bb11.i.i.i ], [ %.val.i.i.off.i.i.i, %bb3.i118.i.i ]
  %13 = add i64 %self.idx15.val.i.i47.i13, 1
  store i64 %13, i64* %self.idx2.i.i, align 8, !alias.scope !486
  %14 = tail call { i64, i1 } @llvm.umul.with.overflow.i64(i64 %x.0.i48.i12, i64 62) #20
  %15 = extractvalue { i64, i1 } %14, 1
  br i1 %15, label %_ZN14rustc_demangle2v06Parser14opt_integer_6217hc8ea761f0ae2e85aE.exit, label %bb16.i.i

bb16.i.i:                                         ; preds = %bb9.i.i
  %16 = extractvalue { i64, i1 } %14, 0
  %d.i.i = zext i8 %d.0.i.i.i to i64
  %17 = tail call { i64, i1 } @llvm.uadd.with.overflow.i64(i64 %16, i64 %d.i.i) #20
  %18 = extractvalue { i64, i1 } %17, 1
  %exitcond.not.i = icmp eq i64 %13, %self.idx1.val.i.i
  %or.cond.i = select i1 %18, i1 true, i1 %exitcond.not.i
  br i1 %or.cond.i, label %_ZN14rustc_demangle2v06Parser14opt_integer_6217hc8ea761f0ae2e85aE.exit, label %"bb16.i.i._ZN70_$LT$core..option..Option$LT$T$GT$$u20$as$u20$core..cmp..PartialEq$GT$2eq17hc8c71ec5e32672e4E.exit.i110.i.i_crit_edge"

"bb16.i.i._ZN70_$LT$core..option..Option$LT$T$GT$$u20$as$u20$core..cmp..PartialEq$GT$2eq17hc8c71ec5e32672e4E.exit.i110.i.i_crit_edge": ; preds = %bb16.i.i
  %19 = extractvalue { i64, i1 } %17, 0
  %.phi.trans.insert = getelementptr inbounds [0 x i8], [0 x i8]* %self.idx.val.i.i, i64 0, i64 %13
  %.val.i.i.i109.i.i.pre = load i8, i8* %.phi.trans.insert, align 1, !alias.scope !489, !noalias !492
  %20 = icmp eq i8 %.val.i.i.i109.i.i.pre, 95
  br i1 %20, label %_ZN14rustc_demangle2v06Parser10integer_6217h89fa80c80c0b691cE.exit.i, label %bb3.i118.i.i

_ZN14rustc_demangle2v06Parser10integer_6217h89fa80c80c0b691cE.exit.i: ; preds = %"bb16.i.i._ZN70_$LT$core..option..Option$LT$T$GT$$u20$as$u20$core..cmp..PartialEq$GT$2eq17hc8c71ec5e32672e4E.exit.i110.i.i_crit_edge"
  %21 = extractvalue { i64, i1 } %17, 0
  %22 = add i64 %self.idx15.val.i.i47.i13, 2
  store i64 %22, i64* %self.idx2.i.i, align 8, !alias.scope !492
  %23 = tail call { i64, i1 } @llvm.uadd.with.overflow.i64(i64 %21, i64 1) #20
  %24 = extractvalue { i64, i1 } %23, 0
  %25 = extractvalue { i64, i1 } %23, 1
  br i1 %25, label %_ZN14rustc_demangle2v06Parser14opt_integer_6217hc8ea761f0ae2e85aE.exit, label %bb6.i

bb6.i:                                            ; preds = %_ZN14rustc_demangle2v06Parser10integer_6217h89fa80c80c0b691cE.exit.i, %_ZN14rustc_demangle2v06Parser10integer_6217h89fa80c80c0b691cE.exit.thread53.i
  %.sroa.625.0.i56.i = phi i64 [ 0, %_ZN14rustc_demangle2v06Parser10integer_6217h89fa80c80c0b691cE.exit.thread53.i ], [ %24, %_ZN14rustc_demangle2v06Parser10integer_6217h89fa80c80c0b691cE.exit.i ]
  %26 = tail call { i64, i1 } @llvm.uadd.with.overflow.i64(i64 %.sroa.625.0.i56.i, i64 1) #20
  %27 = extractvalue { i64, i1 } %26, 0
  %28 = extractvalue { i64, i1 } %26, 1
  %.sroa.035.0.extract.trunc.i = zext i1 %28 to i8
  br label %_ZN14rustc_demangle2v06Parser14opt_integer_6217hc8ea761f0ae2e85aE.exit

_ZN14rustc_demangle2v06Parser14opt_integer_6217hc8ea761f0ae2e85aE.exit: ; preds = %bb7.i.i.i, %bb9.i.i, %bb16.i.i, %bb3.i, %start, %"_ZN70_$LT$core..option..Option$LT$T$GT$$u20$as$u20$core..cmp..PartialEq$GT$2eq17hc8c71ec5e32672e4E.exit.i.i", %_ZN14rustc_demangle2v06Parser10integer_6217h89fa80c80c0b691cE.exit.i, %bb6.i
  %.sroa.47.0.i = phi i64 [ %27, %bb6.i ], [ 0, %"_ZN70_$LT$core..option..Option$LT$T$GT$$u20$as$u20$core..cmp..PartialEq$GT$2eq17hc8c71ec5e32672e4E.exit.i.i" ], [ 0, %start ], [ 0, %_ZN14rustc_demangle2v06Parser10integer_6217h89fa80c80c0b691cE.exit.i ], [ 0, %bb3.i ], [ 0, %bb16.i.i ], [ 0, %bb9.i.i ], [ 0, %bb7.i.i.i ]
  %.sroa.0.0.i = phi i8 [ %.sroa.035.0.extract.trunc.i, %bb6.i ], [ 0, %"_ZN70_$LT$core..option..Option$LT$T$GT$$u20$as$u20$core..cmp..PartialEq$GT$2eq17hc8c71ec5e32672e4E.exit.i.i" ], [ 0, %start ], [ 1, %_ZN14rustc_demangle2v06Parser10integer_6217h89fa80c80c0b691cE.exit.i ], [ 1, %bb3.i ], [ 1, %bb16.i.i ], [ 1, %bb9.i.i ], [ 1, %bb7.i.i.i ]
  %.sroa.47.0.insert.ext.i = zext i64 %.sroa.47.0.i to i128
  %.sroa.47.0.insert.shift.i = shl nuw i128 %.sroa.47.0.insert.ext.i, 64
  %.sroa.0.0.insert.ext.i = zext i8 %.sroa.0.0.i to i128
  %.sroa.0.0.insert.insert.i = or i128 %.sroa.47.0.insert.shift.i, %.sroa.0.0.insert.ext.i
  ret i128 %.sroa.0.0.insert.insert.i
}

; rustc_demangle::v0::Parser::namespace
; Function Attrs: mustprogress nofree nosync nounwind nonlazybind uwtable willreturn
define internal fastcc i64 @_ZN14rustc_demangle2v06Parser9namespace17h3fa2243bca20ab04E(%"v0::Parser"* noalias nocapture align 8 dereferenceable(32) %self) unnamed_addr #4 {
start:
  tail call void @llvm.experimental.noalias.scope.decl(metadata !493)
  %self.idx.i = getelementptr %"v0::Parser", %"v0::Parser"* %self, i64 0, i32 0, i32 0
  %self.idx.val.i = load [0 x i8]*, [0 x i8]** %self.idx.i, align 8, !alias.scope !493
  %self.idx5.i = getelementptr %"v0::Parser", %"v0::Parser"* %self, i64 0, i32 0, i32 1
  %self.idx5.val.i = load i64, i64* %self.idx5.i, align 8, !alias.scope !493
  %self.idx6.i = getelementptr %"v0::Parser", %"v0::Parser"* %self, i64 0, i32 1
  %self.idx6.val.i = load i64, i64* %self.idx6.i, align 8, !alias.scope !493
  %_3.i.i.i.i = icmp uge i64 %self.idx6.val.i, %self.idx5.val.i
  %0 = icmp eq [0 x i8]* %self.idx.val.i, null
  %1 = select i1 %_3.i.i.i.i, i1 true, i1 %0
  br i1 %1, label %bb14, label %bb3

bb3:                                              ; preds = %start
  %2 = getelementptr inbounds [0 x i8], [0 x i8]* %self.idx.val.i, i64 0, i64 %self.idx6.val.i
  %.val.i.i.i = load i8, i8* %2, align 1, !alias.scope !496, !noalias !493
  %3 = add nuw i64 %self.idx6.val.i, 1
  store i64 %3, i64* %self.idx6.i, align 8, !alias.scope !493
  %.fca.1.extract.off = add i8 %.val.i.i.i, -65
  %4 = icmp ult i8 %.fca.1.extract.off, 26
  br i1 %4, label %bb11, label %bb8

bb14:                                             ; preds = %start, %bb11, %bb8
  %.sroa.63.0 = phi i64 [ %_16, %bb11 ], [ %., %bb8 ], [ 0, %start ]
  %.sroa.0.0 = phi i64 [ 0, %bb11 ], [ %.13, %bb8 ], [ 1, %start ]
  %.sroa.63.0.insert.shift = shl nuw nsw i64 %.sroa.63.0, 32
  %.sroa.0.0.insert.insert = or i64 %.sroa.0.0, %.sroa.63.0.insert.shift
  ret i64 %.sroa.0.0.insert.insert

bb8:                                              ; preds = %bb3
  %.fca.1.extract.off12 = add i8 %.val.i.i.i, -97
  %5 = icmp ult i8 %.fca.1.extract.off12, 26
  %. = select i1 %5, i64 1114112, i64 0
  %not. = xor i1 %5, true
  %.13 = zext i1 %not. to i64
  br label %bb14

bb11:                                             ; preds = %bb3
  %_16 = zext i8 %.val.i.i.i to i64
  br label %bb14
}

; rustc_demangle::v0::Parser::ident
; Function Attrs: nonlazybind uwtable
define internal fastcc void @_ZN14rustc_demangle2v06Parser5ident17hf4fab10d38be4866E(%"core::result::Result<v0::Ident, v0::ParseError>"* noalias nocapture dereferenceable(40) %0, %"v0::Parser"* noalias nocapture align 8 dereferenceable(32) %self) unnamed_addr #1 personality i32 (...)* @rust_eh_personality {
start:
  tail call void @llvm.experimental.noalias.scope.decl(metadata !499)
  %self.idx.i = getelementptr %"v0::Parser", %"v0::Parser"* %self, i64 0, i32 0, i32 0
  %self.idx.val.i = load [0 x i8]*, [0 x i8]** %self.idx.i, align 8, !alias.scope !499
  %self.idx1.i = getelementptr %"v0::Parser", %"v0::Parser"* %self, i64 0, i32 0, i32 1
  %self.idx1.val.i = load i64, i64* %self.idx1.i, align 8, !alias.scope !499
  %self.idx2.i = getelementptr %"v0::Parser", %"v0::Parser"* %self, i64 0, i32 1
  %self.idx2.val.i = load i64, i64* %self.idx2.i, align 8, !alias.scope !499
  %_3.i.i.i.i = icmp uge i64 %self.idx2.val.i, %self.idx1.val.i
  %1 = icmp eq [0 x i8]* %self.idx.val.i, null
  %2 = select i1 %_3.i.i.i.i, i1 true, i1 %1
  br i1 %2, label %_ZN14rustc_demangle2v06Parser3eat17hefa37a98ca3635c8E.exit, label %"_ZN70_$LT$core..option..Option$LT$T$GT$$u20$as$u20$core..cmp..PartialEq$GT$2eq17hc8c71ec5e32672e4E.exit.i"

"_ZN70_$LT$core..option..Option$LT$T$GT$$u20$as$u20$core..cmp..PartialEq$GT$2eq17hc8c71ec5e32672e4E.exit.i": ; preds = %start
  %3 = getelementptr inbounds [0 x i8], [0 x i8]* %self.idx.val.i, i64 0, i64 %self.idx2.val.i
  %.val.i.i.i = load i8, i8* %3, align 1, !alias.scope !502, !noalias !499
  %4 = icmp eq i8 %.val.i.i.i, 117
  br i1 %4, label %bb3.i, label %_ZN14rustc_demangle2v06Parser3eat17hefa37a98ca3635c8E.exit

bb3.i:                                            ; preds = %"_ZN70_$LT$core..option..Option$LT$T$GT$$u20$as$u20$core..cmp..PartialEq$GT$2eq17hc8c71ec5e32672e4E.exit.i"
  %5 = add nuw i64 %self.idx2.val.i, 1
  store i64 %5, i64* %self.idx2.i, align 8, !alias.scope !499
  br label %_ZN14rustc_demangle2v06Parser3eat17hefa37a98ca3635c8E.exit

_ZN14rustc_demangle2v06Parser3eat17hefa37a98ca3635c8E.exit: ; preds = %start, %"_ZN70_$LT$core..option..Option$LT$T$GT$$u20$as$u20$core..cmp..PartialEq$GT$2eq17hc8c71ec5e32672e4E.exit.i", %bb3.i
  %self.idx6.val.i = phi i64 [ %self.idx2.val.i, %"_ZN70_$LT$core..option..Option$LT$T$GT$$u20$as$u20$core..cmp..PartialEq$GT$2eq17hc8c71ec5e32672e4E.exit.i" ], [ %5, %bb3.i ], [ %self.idx2.val.i, %start ]
  %.1.i8.i = phi i1 [ false, %"_ZN70_$LT$core..option..Option$LT$T$GT$$u20$as$u20$core..cmp..PartialEq$GT$2eq17hc8c71ec5e32672e4E.exit.i" ], [ true, %bb3.i ], [ false, %start ]
  tail call void @llvm.experimental.noalias.scope.decl(metadata !505)
  %_3.i.i.i.i126 = icmp uge i64 %self.idx6.val.i, %self.idx1.val.i
  %6 = select i1 %_3.i.i.i.i126, i1 true, i1 %1
  br i1 %6, label %bb6, label %_ZN14rustc_demangle2v06Parser4peek17hd4a0f83d17dc5a89E.exit.i

_ZN14rustc_demangle2v06Parser4peek17hd4a0f83d17dc5a89E.exit.i: ; preds = %_ZN14rustc_demangle2v06Parser3eat17hefa37a98ca3635c8E.exit
  %7 = getelementptr inbounds [0 x i8], [0 x i8]* %self.idx.val.i, i64 0, i64 %self.idx6.val.i
  %.val.i.i.i127 = load i8, i8* %7, align 1, !alias.scope !508, !noalias !505
  %.val.i.i.i127.off = add i8 %.val.i.i.i127, -48
  %8 = icmp ult i8 %.val.i.i.i127.off, 10
  br i1 %8, label %bb4, label %bb6

bb4:                                              ; preds = %_ZN14rustc_demangle2v06Parser4peek17hd4a0f83d17dc5a89E.exit.i
  %9 = add nuw i64 %self.idx6.val.i, 1
  store i64 %9, i64* %self.idx2.i, align 8, !alias.scope !505
  %10 = zext i8 %.val.i.i.i127.off to i64
  %11 = icmp eq i8 %.val.i.i.i127.off, 0
  br i1 %11, label %bb27, label %bb9.preheader

bb9.preheader:                                    ; preds = %bb4
  %_3.i.i.i.i135213 = icmp uge i64 %9, %self.idx1.val.i
  %12 = select i1 %_3.i.i.i.i135213, i1 true, i1 %1
  br i1 %12, label %bb27, label %_ZN14rustc_demangle2v06Parser4peek17hd4a0f83d17dc5a89E.exit.i141

bb6:                                              ; preds = %_ZN14rustc_demangle2v06Parser4peek17hd4a0f83d17dc5a89E.exit.i, %_ZN14rustc_demangle2v06Parser3eat17hefa37a98ca3635c8E.exit
  %13 = getelementptr inbounds %"core::result::Result<v0::Ident, v0::ParseError>", %"core::result::Result<v0::Ident, v0::ParseError>"* %0, i64 0, i32 1, i64 0
  store i8 0, i8* %13, align 1, !alias.scope !511
  br label %bb57

_ZN14rustc_demangle2v06Parser4peek17hd4a0f83d17dc5a89E.exit.i141: ; preds = %bb9.preheader, %bb22
  %self.idx6.val.i134215 = phi i64 [ %16, %bb22 ], [ %9, %bb9.preheader ]
  %len.0214 = phi i64 [ %31, %bb22 ], [ %10, %bb9.preheader ]
  tail call void @llvm.experimental.noalias.scope.decl(metadata !514)
  %14 = getelementptr inbounds [0 x i8], [0 x i8]* %self.idx.val.i, i64 0, i64 %self.idx6.val.i134215
  %.val.i.i.i136 = load i8, i8* %14, align 1, !alias.scope !517, !noalias !514
  %.val.i.i.i136.off = add i8 %.val.i.i.i136, -48
  %15 = icmp ult i8 %.val.i.i.i136.off, 10
  br i1 %15, label %bb11, label %bb27

bb11:                                             ; preds = %_ZN14rustc_demangle2v06Parser4peek17hd4a0f83d17dc5a89E.exit.i141
  %16 = add nuw i64 %self.idx6.val.i134215, 1
  store i64 %16, i64* %self.idx2.i, align 8, !alias.scope !514
  %17 = tail call { i64, i1 } @llvm.umul.with.overflow.i64(i64 %len.0214, i64 10) #20
  %18 = extractvalue { i64, i1 } %17, 1
  br i1 %18, label %bb17, label %bb15

bb27.loopexit.split.loop.exit:                    ; preds = %bb22
  %19 = extractvalue { i64, i1 } %28, 0
  br label %bb27

bb27:                                             ; preds = %_ZN14rustc_demangle2v06Parser4peek17hd4a0f83d17dc5a89E.exit.i141, %bb27.loopexit.split.loop.exit, %bb9.preheader, %bb4
  %start5.pr = phi i64 [ %9, %bb4 ], [ %9, %bb9.preheader ], [ %16, %bb27.loopexit.split.loop.exit ], [ %self.idx6.val.i134215, %_ZN14rustc_demangle2v06Parser4peek17hd4a0f83d17dc5a89E.exit.i141 ]
  %len.1 = phi i64 [ 0, %bb4 ], [ %10, %bb9.preheader ], [ %19, %bb27.loopexit.split.loop.exit ], [ %len.0214, %_ZN14rustc_demangle2v06Parser4peek17hd4a0f83d17dc5a89E.exit.i141 ]
  tail call void @llvm.experimental.noalias.scope.decl(metadata !520)
  %_3.i.i.i.i153 = icmp uge i64 %start5.pr, %self.idx1.val.i
  %20 = select i1 %_3.i.i.i.i153, i1 true, i1 %1
  br i1 %20, label %_ZN14rustc_demangle2v06Parser3eat17hefa37a98ca3635c8E.exit159, label %"_ZN70_$LT$core..option..Option$LT$T$GT$$u20$as$u20$core..cmp..PartialEq$GT$2eq17hc8c71ec5e32672e4E.exit.i155"

"_ZN70_$LT$core..option..Option$LT$T$GT$$u20$as$u20$core..cmp..PartialEq$GT$2eq17hc8c71ec5e32672e4E.exit.i155": ; preds = %bb27
  %21 = getelementptr inbounds [0 x i8], [0 x i8]* %self.idx.val.i, i64 0, i64 %start5.pr
  %.val.i.i.i154 = load i8, i8* %21, align 1, !alias.scope !523, !noalias !520
  %22 = icmp eq i8 %.val.i.i.i154, 95
  br i1 %22, label %bb3.i156, label %_ZN14rustc_demangle2v06Parser3eat17hefa37a98ca3635c8E.exit159

bb3.i156:                                         ; preds = %"_ZN70_$LT$core..option..Option$LT$T$GT$$u20$as$u20$core..cmp..PartialEq$GT$2eq17hc8c71ec5e32672e4E.exit.i155"
  %23 = add nuw i64 %start5.pr, 1
  store i64 %23, i64* %self.idx2.i, align 8, !alias.scope !520
  br label %_ZN14rustc_demangle2v06Parser3eat17hefa37a98ca3635c8E.exit159

_ZN14rustc_demangle2v06Parser3eat17hefa37a98ca3635c8E.exit159: ; preds = %"_ZN70_$LT$core..option..Option$LT$T$GT$$u20$as$u20$core..cmp..PartialEq$GT$2eq17hc8c71ec5e32672e4E.exit.i155", %bb27, %bb3.i156
  %start5 = phi i64 [ %start5.pr, %bb27 ], [ %23, %bb3.i156 ], [ %start5.pr, %"_ZN70_$LT$core..option..Option$LT$T$GT$$u20$as$u20$core..cmp..PartialEq$GT$2eq17hc8c71ec5e32672e4E.exit.i155" ]
  %24 = tail call { i64, i1 } @llvm.uadd.with.overflow.i64(i64 %start5, i64 %len.1) #20
  %25 = extractvalue { i64, i1 } %24, 0
  %26 = extractvalue { i64, i1 } %24, 1
  br i1 %26, label %bb34, label %bb32

bb15:                                             ; preds = %bb11
  %27 = extractvalue { i64, i1 } %17, 0
  %_33 = zext i8 %.val.i.i.i136.off to i64
  %28 = tail call { i64, i1 } @llvm.uadd.with.overflow.i64(i64 %27, i64 %_33) #20
  %29 = extractvalue { i64, i1 } %28, 1
  br i1 %29, label %bb24, label %bb22

bb17:                                             ; preds = %bb11
  %30 = getelementptr inbounds %"core::result::Result<v0::Ident, v0::ParseError>", %"core::result::Result<v0::Ident, v0::ParseError>"* %0, i64 0, i32 1, i64 0
  store i8 0, i8* %30, align 1, !alias.scope !526
  br label %bb57

bb22:                                             ; preds = %bb15
  %31 = extractvalue { i64, i1 } %28, 0
  %_3.i.i.i.i135.not = icmp ult i64 %16, %self.idx1.val.i
  br i1 %_3.i.i.i.i135.not, label %_ZN14rustc_demangle2v06Parser4peek17hd4a0f83d17dc5a89E.exit.i141, label %bb27.loopexit.split.loop.exit

bb24:                                             ; preds = %bb15
  %32 = getelementptr inbounds %"core::result::Result<v0::Ident, v0::ParseError>", %"core::result::Result<v0::Ident, v0::ParseError>"* %0, i64 0, i32 1, i64 0
  store i8 0, i8* %32, align 1, !alias.scope !529
  br label %bb57

bb32:                                             ; preds = %_ZN14rustc_demangle2v06Parser3eat17hefa37a98ca3635c8E.exit159
  store i64 %25, i64* %self.idx2.i, align 8
  %_54 = icmp ult i64 %self.idx1.val.i, %25
  br i1 %_54, label %bb37, label %bb2.i.i.i.i

bb34:                                             ; preds = %_ZN14rustc_demangle2v06Parser3eat17hefa37a98ca3635c8E.exit159
  %33 = getelementptr inbounds %"core::result::Result<v0::Ident, v0::ParseError>", %"core::result::Result<v0::Ident, v0::ParseError>"* %0, i64 0, i32 1, i64 0
  store i8 0, i8* %33, align 1, !alias.scope !532
  br label %bb57

bb2.i.i.i.i:                                      ; preds = %bb32
  %_3.i.i.i.i.i.i = icmp ult i64 %start5, %self.idx1.val.i
  br i1 %_3.i.i.i.i.i.i, label %"_ZN4core3str21_$LT$impl$u20$str$GT$16is_char_boundary17hb758182025112b0cE.exit.i.i.i", label %bb7.i.i.i.i

bb7.i.i.i.i:                                      ; preds = %bb2.i.i.i.i
  %34 = icmp eq i64 %self.idx1.val.i, %start5
  br i1 %34, label %bb2.i.i.i, label %bb2.i.i

"_ZN4core3str21_$LT$impl$u20$str$GT$16is_char_boundary17hb758182025112b0cE.exit.i.i.i": ; preds = %bb2.i.i.i.i
  %35 = getelementptr inbounds [0 x i8], [0 x i8]* %self.idx.val.i, i64 0, i64 %start5
  %b.i.i.i.i = load i8, i8* %35, align 1, !alias.scope !535, !noalias !544
  %36 = icmp sgt i8 %b.i.i.i.i, -65
  br i1 %36, label %bb2.i.i.i, label %bb2.i.i

bb2.i.i.i:                                        ; preds = %"_ZN4core3str21_$LT$impl$u20$str$GT$16is_char_boundary17hb758182025112b0cE.exit.i.i.i", %bb7.i.i.i.i
  %37 = icmp eq i64 %25, 0
  br i1 %37, label %"_ZN4core3str6traits66_$LT$impl$u20$core..ops..index..Index$LT$I$GT$$u20$for$u20$str$GT$5index17h4d26f96aabf066fbE.exit", label %bb2.i3.i.i.i

bb2.i3.i.i.i:                                     ; preds = %bb2.i.i.i
  %_3.i.i.i2.i.i.i = icmp ult i64 %25, %self.idx1.val.i
  br i1 %_3.i.i.i2.i.i.i, label %"_ZN4core3str21_$LT$impl$u20$str$GT$16is_char_boundary17hb758182025112b0cE.exit8.i.i.i", label %bb7.i4.i.i.i

bb7.i4.i.i.i:                                     ; preds = %bb2.i3.i.i.i
  %38 = icmp eq i64 %self.idx1.val.i, %25
  br i1 %38, label %"_ZN4core3str6traits66_$LT$impl$u20$core..ops..index..Index$LT$I$GT$$u20$for$u20$str$GT$5index17h4d26f96aabf066fbE.exit", label %bb2.i.i

"_ZN4core3str21_$LT$impl$u20$str$GT$16is_char_boundary17hb758182025112b0cE.exit8.i.i.i": ; preds = %bb2.i3.i.i.i
  %39 = getelementptr inbounds [0 x i8], [0 x i8]* %self.idx.val.i, i64 0, i64 %25
  %b.i5.i.i.i = load i8, i8* %39, align 1, !alias.scope !547, !noalias !544
  %40 = icmp sgt i8 %b.i5.i.i.i, -65
  br i1 %40, label %"_ZN4core3str6traits66_$LT$impl$u20$core..ops..index..Index$LT$I$GT$$u20$for$u20$str$GT$5index17h4d26f96aabf066fbE.exit", label %bb2.i.i

bb2.i.i:                                          ; preds = %"_ZN4core3str21_$LT$impl$u20$str$GT$16is_char_boundary17hb758182025112b0cE.exit8.i.i.i", %bb7.i4.i.i.i, %"_ZN4core3str21_$LT$impl$u20$str$GT$16is_char_boundary17hb758182025112b0cE.exit.i.i.i", %bb7.i.i.i.i
; call core::str::slice_error_fail
  tail call void @_ZN4core3str16slice_error_fail17h0d3b5d2bc1b01573E([0 x i8]* noalias nonnull readonly align 1 %self.idx.val.i, i64 %self.idx1.val.i, i64 %start5, i64 %25, %"core::panic::location::Location"* noalias nonnull readonly align 8 dereferenceable(24) bitcast (<{ i8*, [16 x i8] }>* @alloc954 to %"core::panic::location::Location"*)) #19
  unreachable

"_ZN4core3str6traits66_$LT$impl$u20$core..ops..index..Index$LT$I$GT$$u20$for$u20$str$GT$5index17h4d26f96aabf066fbE.exit": ; preds = %bb2.i.i.i, %bb7.i4.i.i.i, %"_ZN4core3str21_$LT$impl$u20$str$GT$16is_char_boundary17hb758182025112b0cE.exit8.i.i.i"
  %41 = getelementptr inbounds [0 x i8], [0 x i8]* %self.idx.val.i, i64 0, i64 %start5
  %len.i.i.i.i = sub i64 %25, %start5
  %42 = bitcast i8* %41 to [0 x i8]*
  br i1 %.1.i8.i, label %bb40, label %bb52

bb37:                                             ; preds = %bb32
  %43 = getelementptr inbounds %"core::result::Result<v0::Ident, v0::ParseError>", %"core::result::Result<v0::Ident, v0::ParseError>"* %0, i64 0, i32 1, i64 0
  store i8 0, i8* %43, align 1
  br label %bb57

bb52:                                             ; preds = %"_ZN4core3str6traits66_$LT$impl$u20$core..ops..index..Index$LT$I$GT$$u20$for$u20$str$GT$5index17h4d26f96aabf066fbE.exit"
  %_92.sroa.0.0..sroa_idx = getelementptr inbounds %"core::result::Result<v0::Ident, v0::ParseError>", %"core::result::Result<v0::Ident, v0::ParseError>"* %0, i64 0, i32 1, i64 7
  %44 = bitcast i8* %_92.sroa.0.0..sroa_idx to i8**
  store i8* %41, i8** %44, align 8
  %_92.sroa.4.0..sroa_idx84 = getelementptr inbounds %"core::result::Result<v0::Ident, v0::ParseError>", %"core::result::Result<v0::Ident, v0::ParseError>"* %0, i64 0, i32 1, i64 15
  %45 = bitcast i8* %_92.sroa.4.0..sroa_idx84 to i64*
  store i64 %len.i.i.i.i, i64* %45, align 8
  %_92.sroa.5.0..sroa_idx86 = getelementptr inbounds %"core::result::Result<v0::Ident, v0::ParseError>", %"core::result::Result<v0::Ident, v0::ParseError>"* %0, i64 0, i32 1, i64 23
  %46 = bitcast i8* %_92.sroa.5.0..sroa_idx86 to [0 x i8]**
  store [0 x i8]* getelementptr inbounds (<{ [0 x i8] }>, <{ [0 x i8] }>* @alloc701, i32 0, i32 0), [0 x i8]** %46, align 8
  %_92.sroa.6.0..sroa_idx88 = getelementptr inbounds %"core::result::Result<v0::Ident, v0::ParseError>", %"core::result::Result<v0::Ident, v0::ParseError>"* %0, i64 0, i32 1, i64 31
  %47 = bitcast i8* %_92.sroa.6.0..sroa_idx88 to i64*
  store i64 0, i64* %47, align 8
  br label %bb57

bb40:                                             ; preds = %"_ZN4core3str6traits66_$LT$impl$u20$core..ops..index..Index$LT$I$GT$$u20$for$u20$str$GT$5index17h4d26f96aabf066fbE.exit"
  %48 = getelementptr inbounds [0 x i8], [0 x i8]* %self.idx.val.i, i64 0, i64 %25
  %_14.i.i.i.i.i = ptrtoint i8* %48 to i64
  %_16.i.i.i.i.i = ptrtoint i8* %41 to i64
  %49 = sub nuw i64 %_14.i.i.i.i.i, %_16.i.i.i.i.i
  br label %bb1.i.i.i.i

bb1.i.i.i.i:                                      ; preds = %bb3.i.i.i.i, %bb40
  %_11.i.i.i.i.i = phi i8* [ %48, %bb40 ], [ %50, %bb3.i.i.i.i ]
  %accum.0.i.i.i.i = phi i64 [ %49, %bb40 ], [ %i1.i.i.i.i.i.i, %bb3.i.i.i.i ]
  %_12.i.i.i.i.i = icmp eq i8* %41, %_11.i.i.i.i.i
  br i1 %_12.i.i.i.i.i, label %bb48, label %bb3.i.i.i.i

bb3.i.i.i.i:                                      ; preds = %bb1.i.i.i.i
  %50 = getelementptr inbounds i8, i8* %_11.i.i.i.i.i, i64 -1
  %.val.i.i.i.i = load i8, i8* %50, align 1, !noalias !550
  %.not.i.i.i.i = icmp eq i8 %.val.i.i.i.i, 95
  %i1.i.i.i.i.i.i = add i64 %accum.0.i.i.i.i, -1
  br i1 %.not.i.i.i.i, label %bb45, label %bb1.i.i.i.i

bb45:                                             ; preds = %bb3.i.i.i.i
  %51 = icmp eq i64 %i1.i.i.i.i.i.i, 0
  br i1 %51, label %bb2.i.i.i.i193, label %bb2.i.i.i.i187

bb2.i.i.i.i187:                                   ; preds = %bb45
  %_3.i.i.i.i.i.i186 = icmp ult i64 %i1.i.i.i.i.i.i, %len.i.i.i.i
  br i1 %_3.i.i.i.i.i.i186, label %"_ZN4core3str21_$LT$impl$u20$str$GT$16is_char_boundary17hb758182025112b0cE.exit.i.i.i190", label %bb7.i.i.i.i188

bb7.i.i.i.i188:                                   ; preds = %bb2.i.i.i.i187
  %52 = icmp eq i64 %len.i.i.i.i, %i1.i.i.i.i.i.i
  br i1 %52, label %"_ZN4core3str6traits66_$LT$impl$u20$core..ops..index..Index$LT$I$GT$$u20$for$u20$str$GT$5index17h6f34acbde65192b2E.exit", label %bb2.i.i191

"_ZN4core3str21_$LT$impl$u20$str$GT$16is_char_boundary17hb758182025112b0cE.exit.i.i.i190": ; preds = %bb2.i.i.i.i187
  %53 = getelementptr inbounds i8, i8* %41, i64 %i1.i.i.i.i.i.i
  %b.i.i.i.i189 = load i8, i8* %53, align 1, !alias.scope !559, !noalias !568
  %54 = icmp sgt i8 %b.i.i.i.i189, -65
  br i1 %54, label %bb2.i.i.i.i193, label %bb2.i.i191

bb2.i.i191:                                       ; preds = %"_ZN4core3str21_$LT$impl$u20$str$GT$16is_char_boundary17hb758182025112b0cE.exit.i.i.i190", %bb7.i.i.i.i188
; call core::str::slice_error_fail
  tail call void @_ZN4core3str16slice_error_fail17h0d3b5d2bc1b01573E([0 x i8]* noalias nonnull readonly align 1 %42, i64 %len.i.i.i.i, i64 0, i64 %i1.i.i.i.i.i.i, %"core::panic::location::Location"* noalias nonnull readonly align 8 dereferenceable(24) bitcast (<{ i8*, [16 x i8] }>* @alloc956 to %"core::panic::location::Location"*)) #19
  unreachable

"_ZN4core3str6traits66_$LT$impl$u20$core..ops..index..Index$LT$I$GT$$u20$for$u20$str$GT$5index17h6f34acbde65192b2E.exit": ; preds = %bb7.i.i.i.i188
  %55 = icmp eq i64 %accum.0.i.i.i.i, 0
  br i1 %55, label %"_ZN4core3str6traits66_$LT$impl$u20$core..ops..index..Index$LT$I$GT$$u20$for$u20$str$GT$5index17h2725d05bf1020748E.exit", label %bb2.i.i.i.i193

bb2.i.i.i.i193:                                   ; preds = %"_ZN4core3str21_$LT$impl$u20$str$GT$16is_char_boundary17hb758182025112b0cE.exit.i.i.i190", %bb45, %"_ZN4core3str6traits66_$LT$impl$u20$core..ops..index..Index$LT$I$GT$$u20$for$u20$str$GT$5index17h6f34acbde65192b2E.exit"
  %.sroa.3.0.i.i.i.i205237 = phi i64 [ %len.i.i.i.i, %"_ZN4core3str6traits66_$LT$impl$u20$core..ops..index..Index$LT$I$GT$$u20$for$u20$str$GT$5index17h6f34acbde65192b2E.exit" ], [ %i1.i.i.i.i.i.i, %"_ZN4core3str21_$LT$impl$u20$str$GT$16is_char_boundary17hb758182025112b0cE.exit.i.i.i190" ], [ 0, %bb45 ]
  %_3.i.i.i.i.i.i192 = icmp ugt i64 %len.i.i.i.i, %accum.0.i.i.i.i
  br i1 %_3.i.i.i.i.i.i192, label %"_ZN4core3str21_$LT$impl$u20$str$GT$16is_char_boundary17hb758182025112b0cE.exit.i.i.i196", label %bb7.i.i.i.i194

bb7.i.i.i.i194:                                   ; preds = %bb2.i.i.i.i193
  %56 = icmp eq i64 %len.i.i.i.i, %accum.0.i.i.i.i
  br i1 %56, label %"_ZN4core3str6traits66_$LT$impl$u20$core..ops..index..Index$LT$I$GT$$u20$for$u20$str$GT$5index17h2725d05bf1020748E.exit", label %bb3.i.i

"_ZN4core3str21_$LT$impl$u20$str$GT$16is_char_boundary17hb758182025112b0cE.exit.i.i.i196": ; preds = %bb2.i.i.i.i193
  %57 = getelementptr inbounds i8, i8* %41, i64 %accum.0.i.i.i.i
  %b.i.i.i.i195 = load i8, i8* %57, align 1, !alias.scope !571, !noalias !580
  %58 = icmp sgt i8 %b.i.i.i.i195, -65
  br i1 %58, label %"_ZN4core3str6traits66_$LT$impl$u20$core..ops..index..Index$LT$I$GT$$u20$for$u20$str$GT$5index17h2725d05bf1020748E.exit", label %bb3.i.i

bb3.i.i:                                          ; preds = %"_ZN4core3str21_$LT$impl$u20$str$GT$16is_char_boundary17hb758182025112b0cE.exit.i.i.i196", %bb7.i.i.i.i194
; call core::str::slice_error_fail
  tail call void @_ZN4core3str16slice_error_fail17h0d3b5d2bc1b01573E([0 x i8]* noalias nonnull readonly align 1 %42, i64 %len.i.i.i.i, i64 %accum.0.i.i.i.i, i64 %len.i.i.i.i, %"core::panic::location::Location"* noalias nonnull readonly align 8 dereferenceable(24) bitcast (<{ i8*, [16 x i8] }>* @alloc958 to %"core::panic::location::Location"*)) #19
  unreachable

"_ZN4core3str6traits66_$LT$impl$u20$core..ops..index..Index$LT$I$GT$$u20$for$u20$str$GT$5index17h2725d05bf1020748E.exit": ; preds = %"_ZN4core3str6traits66_$LT$impl$u20$core..ops..index..Index$LT$I$GT$$u20$for$u20$str$GT$5index17h6f34acbde65192b2E.exit", %bb7.i.i.i.i194, %"_ZN4core3str21_$LT$impl$u20$str$GT$16is_char_boundary17hb758182025112b0cE.exit.i.i.i196"
  %.sroa.3.0.i.i.i.i205238 = phi i64 [ %len.i.i.i.i, %"_ZN4core3str6traits66_$LT$impl$u20$core..ops..index..Index$LT$I$GT$$u20$for$u20$str$GT$5index17h6f34acbde65192b2E.exit" ], [ %.sroa.3.0.i.i.i.i205237, %bb7.i.i.i.i194 ], [ %.sroa.3.0.i.i.i.i205237, %"_ZN4core3str21_$LT$impl$u20$str$GT$16is_char_boundary17hb758182025112b0cE.exit.i.i.i196" ]
  %59 = getelementptr inbounds i8, i8* %41, i64 %accum.0.i.i.i.i
  %len.i.i.i.i197 = sub i64 %len.i.i.i.i, %accum.0.i.i.i.i
  %60 = bitcast i8* %59 to [0 x i8]*
  br label %bb48

bb48:                                             ; preds = %bb1.i.i.i.i, %"_ZN4core3str6traits66_$LT$impl$u20$core..ops..index..Index$LT$I$GT$$u20$for$u20$str$GT$5index17h2725d05bf1020748E.exit"
  %ident.sroa.0.0 = phi [0 x i8]* [ %42, %"_ZN4core3str6traits66_$LT$impl$u20$core..ops..index..Index$LT$I$GT$$u20$for$u20$str$GT$5index17h2725d05bf1020748E.exit" ], [ getelementptr inbounds (<{ [0 x i8] }>, <{ [0 x i8] }>* @alloc701, i32 0, i32 0), %bb1.i.i.i.i ]
  %ident.sroa.6.0 = phi i64 [ %.sroa.3.0.i.i.i.i205238, %"_ZN4core3str6traits66_$LT$impl$u20$core..ops..index..Index$LT$I$GT$$u20$for$u20$str$GT$5index17h2725d05bf1020748E.exit" ], [ 0, %bb1.i.i.i.i ]
  %ident.sroa.8.0 = phi [0 x i8]* [ %60, %"_ZN4core3str6traits66_$LT$impl$u20$core..ops..index..Index$LT$I$GT$$u20$for$u20$str$GT$5index17h2725d05bf1020748E.exit" ], [ %42, %bb1.i.i.i.i ]
  %ident.sroa.11.0 = phi i64 [ %len.i.i.i.i197, %"_ZN4core3str6traits66_$LT$impl$u20$core..ops..index..Index$LT$I$GT$$u20$for$u20$str$GT$5index17h2725d05bf1020748E.exit" ], [ %len.i.i.i.i, %bb1.i.i.i.i ]
  %61 = icmp ne [0 x i8]* %ident.sroa.8.0, null
  tail call void @llvm.assume(i1 %61)
  %62 = icmp eq i64 %ident.sroa.11.0, 0
  br i1 %62, label %bb50, label %bb51

bb51:                                             ; preds = %bb48
  %_91.sroa.0.0..sroa_idx = getelementptr inbounds %"core::result::Result<v0::Ident, v0::ParseError>", %"core::result::Result<v0::Ident, v0::ParseError>"* %0, i64 0, i32 1, i64 7
  %63 = bitcast i8* %_91.sroa.0.0..sroa_idx to [0 x i8]**
  store [0 x i8]* %ident.sroa.0.0, [0 x i8]** %63, align 8
  %_91.sroa.4.0..sroa_idx77 = getelementptr inbounds %"core::result::Result<v0::Ident, v0::ParseError>", %"core::result::Result<v0::Ident, v0::ParseError>"* %0, i64 0, i32 1, i64 15
  %64 = bitcast i8* %_91.sroa.4.0..sroa_idx77 to i64*
  store i64 %ident.sroa.6.0, i64* %64, align 8
  %_91.sroa.5.0..sroa_idx79 = getelementptr inbounds %"core::result::Result<v0::Ident, v0::ParseError>", %"core::result::Result<v0::Ident, v0::ParseError>"* %0, i64 0, i32 1, i64 23
  %65 = bitcast i8* %_91.sroa.5.0..sroa_idx79 to [0 x i8]**
  store [0 x i8]* %ident.sroa.8.0, [0 x i8]** %65, align 8
  %_91.sroa.6.0..sroa_idx81 = getelementptr inbounds %"core::result::Result<v0::Ident, v0::ParseError>", %"core::result::Result<v0::Ident, v0::ParseError>"* %0, i64 0, i32 1, i64 31
  %66 = bitcast i8* %_91.sroa.6.0..sroa_idx81 to i64*
  store i64 %ident.sroa.11.0, i64* %66, align 8
  br label %bb57

bb50:                                             ; preds = %bb48
  %67 = getelementptr inbounds %"core::result::Result<v0::Ident, v0::ParseError>", %"core::result::Result<v0::Ident, v0::ParseError>"* %0, i64 0, i32 1, i64 0
  store i8 0, i8* %67, align 1
  br label %bb57

bb57:                                             ; preds = %bb51, %bb52, %bb17, %bb24, %bb6, %bb50, %bb37, %bb34
  %.sink = phi i8 [ 0, %bb51 ], [ 0, %bb52 ], [ 1, %bb17 ], [ 1, %bb24 ], [ 1, %bb6 ], [ 1, %bb50 ], [ 1, %bb37 ], [ 1, %bb34 ]
  %68 = getelementptr inbounds %"core::result::Result<v0::Ident, v0::ParseError>", %"core::result::Result<v0::Ident, v0::ParseError>"* %0, i64 0, i32 0
  store i8 %.sink, i8* %68, align 8
  ret void
}

; rustc_demangle::v0::Printer::eat
; Function Attrs: mustprogress nofree nosync nounwind nonlazybind uwtable willreturn
define internal fastcc zeroext i1 @_ZN14rustc_demangle2v07Printer3eat17h2f7f5c279ccc2d8aE(%"v0::Printer"* noalias align 8 dereferenceable(56) %self, i8 %0) unnamed_addr #4 {
start:
  %1 = getelementptr inbounds %"v0::Printer", %"v0::Printer"* %self, i64 0, i32 0, i32 0
  %2 = load i8, i8* %1, align 8, !range !583, !alias.scope !584
  %switch.not.i = icmp eq i8 %2, 1
  %x1.i = getelementptr inbounds %"v0::Printer", %"v0::Printer"* %self, i64 0, i32 0, i32 1, i64 7
  %3 = getelementptr inbounds %"v0::Printer", %"v0::Printer"* %self, i64 0, i32 0, i32 1, i64 0
  %.sroa.3.0.i = select i1 %switch.not.i, i8* %3, i8* %x1.i
  %switch.i = icmp eq i8 %2, 0
  br i1 %switch.i, label %bb3.i, label %"_ZN4core6result19Result$LT$T$C$E$GT$3map17hce3394f9033b76e6E.exit"

bb3.i:                                            ; preds = %start
  tail call void @llvm.experimental.noalias.scope.decl(metadata !587) #20
  tail call void @llvm.experimental.noalias.scope.decl(metadata !590) #20
  %self.idx.i.i.i = bitcast i8* %.sroa.3.0.i to [0 x i8]**
  %self.idx.val.i.i.i = load [0 x i8]*, [0 x i8]** %self.idx.i.i.i, align 8, !alias.scope !593
  %self.idx1.i.i.i = getelementptr i8, i8* %.sroa.3.0.i, i64 8
  %4 = bitcast i8* %self.idx1.i.i.i to i64*
  %self.idx1.val.i.i.i = load i64, i64* %4, align 8, !alias.scope !593
  %self.idx2.i.i.i = getelementptr i8, i8* %.sroa.3.0.i, i64 16
  %5 = bitcast i8* %self.idx2.i.i.i to i64*
  %self.idx2.val.i.i.i = load i64, i64* %5, align 8, !alias.scope !593
  %_3.i.i.i.i.i.i = icmp uge i64 %self.idx2.val.i.i.i, %self.idx1.val.i.i.i
  %6 = icmp eq [0 x i8]* %self.idx.val.i.i.i, null
  %7 = select i1 %_3.i.i.i.i.i.i, i1 true, i1 %6
  br i1 %7, label %"_ZN4core6result19Result$LT$T$C$E$GT$3map17hce3394f9033b76e6E.exit", label %"_ZN70_$LT$core..option..Option$LT$T$GT$$u20$as$u20$core..cmp..PartialEq$GT$2eq17hc8c71ec5e32672e4E.exit.i.i.i"

"_ZN70_$LT$core..option..Option$LT$T$GT$$u20$as$u20$core..cmp..PartialEq$GT$2eq17hc8c71ec5e32672e4E.exit.i.i.i": ; preds = %bb3.i
  %8 = getelementptr inbounds [0 x i8], [0 x i8]* %self.idx.val.i.i.i, i64 0, i64 %self.idx2.val.i.i.i
  %.val.i.i.i.i.i = load i8, i8* %8, align 1, !alias.scope !594, !noalias !593
  %9 = icmp eq i8 %.val.i.i.i.i.i, %0
  br i1 %9, label %bb3.i.i.i, label %"_ZN4core6result19Result$LT$T$C$E$GT$3map17hce3394f9033b76e6E.exit"

bb3.i.i.i:                                        ; preds = %"_ZN70_$LT$core..option..Option$LT$T$GT$$u20$as$u20$core..cmp..PartialEq$GT$2eq17hc8c71ec5e32672e4E.exit.i.i.i"
  %10 = add nuw i64 %self.idx2.val.i.i.i, 1
  store i64 %10, i64* %5, align 8, !alias.scope !593
  br label %"_ZN4core6result19Result$LT$T$C$E$GT$3map17hce3394f9033b76e6E.exit"

"_ZN4core6result19Result$LT$T$C$E$GT$3map17hce3394f9033b76e6E.exit": ; preds = %start, %bb3.i, %"_ZN70_$LT$core..option..Option$LT$T$GT$$u20$as$u20$core..cmp..PartialEq$GT$2eq17hc8c71ec5e32672e4E.exit.i.i.i", %bb3.i.i.i
  %_10.i = phi i1 [ false, %start ], [ false, %bb3.i ], [ false, %"_ZN70_$LT$core..option..Option$LT$T$GT$$u20$as$u20$core..cmp..PartialEq$GT$2eq17hc8c71ec5e32672e4E.exit.i.i.i" ], [ true, %bb3.i.i.i ]
  ret i1 %_10.i
}

; rustc_demangle::v0::Printer::skipping_printing
; Function Attrs: nonlazybind uwtable
define internal fastcc void @_ZN14rustc_demangle2v07Printer17skipping_printing17h93eb23d77e5148a0E(%"v0::Printer"* noalias align 8 dereferenceable(56) %self) unnamed_addr #1 personality i32 (...)* @rust_eh_personality {
start:
  %e.i = alloca %"core::fmt::Error", align 1
  %_4 = getelementptr inbounds %"v0::Printer", %"v0::Printer"* %self, i64 0, i32 1
  %0 = bitcast i64** %_4 to i64*
  %1 = load i64, i64* %0, align 8, !alias.scope !597
  store i64* null, i64** %_4, align 8, !alias.scope !597
; call rustc_demangle::v0::Printer::print_path
  %2 = tail call fastcc zeroext i1 @_ZN14rustc_demangle2v07Printer10print_path17hdc57822f76edc8d3E(%"v0::Printer"* noalias nonnull align 8 dereferenceable(56) %self, i1 zeroext false)
  %3 = bitcast %"core::fmt::Error"* %e.i to i8*
  call void @llvm.lifetime.start.p0i8(i64 0, i8* nonnull %3)
  br i1 %2, label %bb1.i, label %"_ZN4core6result19Result$LT$T$C$E$GT$6expect17hee3c9afba620e609E.exit"

bb1.i:                                            ; preds = %start
  %_6.0.i = bitcast %"core::fmt::Error"* %e.i to {}*
; call core::result::unwrap_failed
  call void @_ZN4core6result13unwrap_failed17he6aaa65cb062b616E([0 x i8]* noalias nonnull readonly align 1 bitcast (<{ [61 x i8] }>* @alloc963 to [0 x i8]*), i64 61, {}* nonnull align 1 %_6.0.i, [3 x i64]* noalias readonly align 8 dereferenceable(24) bitcast (<{ i8*, [16 x i8], i8*, [0 x i8] }>* @vtable.5 to [3 x i64]*), %"core::panic::location::Location"* noalias nonnull readonly align 8 dereferenceable(24) bitcast (<{ i8*, [16 x i8] }>* @alloc965 to %"core::panic::location::Location"*)) #19
  unreachable

"_ZN4core6result19Result$LT$T$C$E$GT$6expect17hee3c9afba620e609E.exit": ; preds = %start
  %_3.i.i.i.i = inttoptr i64 %1 to i64*
  call void @llvm.lifetime.end.p0i8(i64 0, i8* nonnull %3)
  store i64* %_3.i.i.i.i, i64** %_4, align 8
  ret void
}

; rustc_demangle::v0::Printer::print_backref
; Function Attrs: nonlazybind uwtable
define internal fastcc zeroext i1 @_ZN14rustc_demangle2v07Printer13print_backref17h570c26c63391e955E(%"v0::Printer"* noalias align 8 dereferenceable(56) %self, i8 %f.val) unnamed_addr #1 personality i32 (...)* @rust_eh_personality {
start:
  %orig_parser = alloca %"core::result::Result<v0::Parser, v0::ParseError>", align 8
  %0 = getelementptr inbounds %"v0::Printer", %"v0::Printer"* %self, i64 0, i32 0, i32 0
  %1 = load i8, i8* %0, align 8, !range !583
  %switch.not = icmp eq i8 %1, 1
  br i1 %switch.not, label %bb1, label %bb3

bb3:                                              ; preds = %start
  %parser = getelementptr inbounds %"v0::Printer", %"v0::Printer"* %self, i64 0, i32 0, i32 1, i64 7
  tail call void @llvm.experimental.noalias.scope.decl(metadata !602)
  %2 = getelementptr %"v0::Printer", %"v0::Printer"* %self, i64 0, i32 0, i32 1, i64 23
  %3 = bitcast i8* %2 to i64*
  %_3.i = load i64, i64* %3, align 8, !alias.scope !602, !noalias !605
  tail call void @llvm.experimental.noalias.scope.decl(metadata !607) #20
  tail call void @llvm.experimental.noalias.scope.decl(metadata !610) #20
  %self.idx.i.i.i = bitcast i8* %parser to [0 x i8]**
  %self.idx.val.i.i.i = load [0 x i8]*, [0 x i8]** %self.idx.i.i.i, align 8, !alias.scope !613, !noalias !605
  %self.idx1.i.i.i = getelementptr %"v0::Printer", %"v0::Printer"* %self, i64 0, i32 0, i32 1, i64 15
  %4 = bitcast i8* %self.idx1.i.i.i to i64*
  %self.idx1.val.i.i.i = load i64, i64* %4, align 8, !alias.scope !613, !noalias !605
  %_3.i.i.i.i.i.i = icmp uge i64 %_3.i, %self.idx1.val.i.i.i
  %5 = icmp eq [0 x i8]* %self.idx.val.i.i.i, null
  %6 = select i1 %_3.i.i.i.i.i.i, i1 true, i1 %5
  br i1 %6, label %_ZN14rustc_demangle2v06Parser3eat17hefa37a98ca3635c8E.exit.i.i, label %"_ZN70_$LT$core..option..Option$LT$T$GT$$u20$as$u20$core..cmp..PartialEq$GT$2eq17hc8c71ec5e32672e4E.exit.i.i.i"

"_ZN70_$LT$core..option..Option$LT$T$GT$$u20$as$u20$core..cmp..PartialEq$GT$2eq17hc8c71ec5e32672e4E.exit.i.i.i": ; preds = %bb3
  %7 = getelementptr inbounds [0 x i8], [0 x i8]* %self.idx.val.i.i.i, i64 0, i64 %_3.i
  %.val.i.i.i.i.i = load i8, i8* %7, align 1, !alias.scope !614, !noalias !617
  %8 = icmp eq i8 %.val.i.i.i.i.i, 95
  br i1 %8, label %_ZN14rustc_demangle2v06Parser10integer_6217h89fa80c80c0b691cE.exit.thread49.i, label %_ZN14rustc_demangle2v06Parser3eat17hefa37a98ca3635c8E.exit.i.i

_ZN14rustc_demangle2v06Parser10integer_6217h89fa80c80c0b691cE.exit.thread49.i: ; preds = %"_ZN70_$LT$core..option..Option$LT$T$GT$$u20$as$u20$core..cmp..PartialEq$GT$2eq17hc8c71ec5e32672e4E.exit.i.i.i"
  %9 = add nuw i64 %_3.i, 1
  store i64 %9, i64* %3, align 8, !alias.scope !613, !noalias !605
  br label %bb3.i

_ZN14rustc_demangle2v06Parser3eat17hefa37a98ca3635c8E.exit.i.i: ; preds = %"_ZN70_$LT$core..option..Option$LT$T$GT$$u20$as$u20$core..cmp..PartialEq$GT$2eq17hc8c71ec5e32672e4E.exit.i.i.i", %bb3
  br i1 %5, label %_ZN14rustc_demangle2v06Parser3eat17hefa37a98ca3635c8E.exit.split.us.i.i, label %bb4.i.preheader.i

bb4.i.preheader.i:                                ; preds = %_ZN14rustc_demangle2v06Parser3eat17hefa37a98ca3635c8E.exit.i.i
  %_3.i.i.i.i108.not.i42.i = icmp ult i64 %_3.i, %self.idx1.val.i.i.i
  br i1 %_3.i.i.i.i108.not.i42.i, label %"_ZN70_$LT$core..option..Option$LT$T$GT$$u20$as$u20$core..cmp..PartialEq$GT$2eq17hc8c71ec5e32672e4E.exit.i110.i.i", label %bb5

_ZN14rustc_demangle2v06Parser3eat17hefa37a98ca3635c8E.exit.split.us.i.i: ; preds = %_ZN14rustc_demangle2v06Parser3eat17hefa37a98ca3635c8E.exit.i.i
  tail call void @llvm.experimental.noalias.scope.decl(metadata !618) #20
  br label %bb5

"_ZN70_$LT$core..option..Option$LT$T$GT$$u20$as$u20$core..cmp..PartialEq$GT$2eq17hc8c71ec5e32672e4E.exit.i110.i.i": ; preds = %bb4.i.preheader.i, %bb16.i.i
  %x.0.i44.i = phi i64 [ %23, %bb16.i.i ], [ 0, %bb4.i.preheader.i ]
  %self.idx15.val.i.i43.i = phi i64 [ %17, %bb16.i.i ], [ %_3.i, %bb4.i.preheader.i ]
  tail call void @llvm.experimental.noalias.scope.decl(metadata !618) #20
  %10 = getelementptr inbounds [0 x i8], [0 x i8]* %self.idx.val.i.i.i, i64 0, i64 %self.idx15.val.i.i43.i
  %.val.i.i.i109.i.i = load i8, i8* %10, align 1, !alias.scope !621, !noalias !624
  %11 = icmp eq i8 %.val.i.i.i109.i.i, 95
  br i1 %11, label %_ZN14rustc_demangle2v06Parser10integer_6217h89fa80c80c0b691cE.exit.i, label %bb3.i118.i.i

bb3.i118.i.i:                                     ; preds = %"_ZN70_$LT$core..option..Option$LT$T$GT$$u20$as$u20$core..cmp..PartialEq$GT$2eq17hc8c71ec5e32672e4E.exit.i110.i.i"
  %.val.i.i.off.i.i.i = add i8 %.val.i.i.i109.i.i, -48
  %12 = icmp ult i8 %.val.i.i.off.i.i.i, 10
  br i1 %12, label %bb9.i.i, label %bb5.i.i.i

bb5.i.i.i:                                        ; preds = %bb3.i118.i.i
  %.val.i.i.off18.i.i.i = add i8 %.val.i.i.i109.i.i, -97
  %13 = icmp ult i8 %.val.i.i.off18.i.i.i, 26
  br i1 %13, label %bb10.i.i.i, label %bb7.i.i.i

bb7.i.i.i:                                        ; preds = %bb5.i.i.i
  %.val.i.i.off19.i.i.i = add i8 %.val.i.i.i109.i.i, -65
  %14 = icmp ult i8 %.val.i.i.off19.i.i.i, 26
  br i1 %14, label %bb11.i.i.i, label %bb5

bb10.i.i.i:                                       ; preds = %bb5.i.i.i
  %15 = add nsw i8 %.val.i.i.i109.i.i, -87
  br label %bb9.i.i

bb11.i.i.i:                                       ; preds = %bb7.i.i.i
  %16 = add nsw i8 %.val.i.i.i109.i.i, -29
  br label %bb9.i.i

bb9.i.i:                                          ; preds = %bb11.i.i.i, %bb10.i.i.i, %bb3.i118.i.i
  %d.0.i.i.i = phi i8 [ %15, %bb10.i.i.i ], [ %16, %bb11.i.i.i ], [ %.val.i.i.off.i.i.i, %bb3.i118.i.i ]
  %17 = add i64 %self.idx15.val.i.i43.i, 1
  store i64 %17, i64* %3, align 8, !alias.scope !625, !noalias !605
  %18 = tail call { i64, i1 } @llvm.umul.with.overflow.i64(i64 %x.0.i44.i, i64 62) #20
  %19 = extractvalue { i64, i1 } %18, 1
  br i1 %19, label %bb5, label %bb16.i.i

bb16.i.i:                                         ; preds = %bb9.i.i
  %20 = extractvalue { i64, i1 } %18, 0
  %d.i.i = zext i8 %d.0.i.i.i to i64
  %21 = tail call { i64, i1 } @llvm.uadd.with.overflow.i64(i64 %20, i64 %d.i.i) #20
  %22 = extractvalue { i64, i1 } %21, 1
  %23 = extractvalue { i64, i1 } %21, 0
  %exitcond.not.i = icmp eq i64 %17, %self.idx1.val.i.i.i
  %or.cond.i = select i1 %22, i1 true, i1 %exitcond.not.i
  br i1 %or.cond.i, label %bb5, label %"_ZN70_$LT$core..option..Option$LT$T$GT$$u20$as$u20$core..cmp..PartialEq$GT$2eq17hc8c71ec5e32672e4E.exit.i110.i.i"

_ZN14rustc_demangle2v06Parser10integer_6217h89fa80c80c0b691cE.exit.i: ; preds = %"_ZN70_$LT$core..option..Option$LT$T$GT$$u20$as$u20$core..cmp..PartialEq$GT$2eq17hc8c71ec5e32672e4E.exit.i110.i.i"
  %24 = add nuw i64 %self.idx15.val.i.i43.i, 1
  store i64 %24, i64* %3, align 8, !alias.scope !628, !noalias !605
  %25 = tail call { i64, i1 } @llvm.uadd.with.overflow.i64(i64 %x.0.i44.i, i64 1) #20
  %26 = extractvalue { i64, i1 } %25, 0
  %27 = extractvalue { i64, i1 } %25, 1
  br i1 %27, label %bb5, label %bb3.i

bb3.i:                                            ; preds = %_ZN14rustc_demangle2v06Parser10integer_6217h89fa80c80c0b691cE.exit.i, %_ZN14rustc_demangle2v06Parser10integer_6217h89fa80c80c0b691cE.exit.thread49.i
  %.sroa.625.0.i52.i = phi i64 [ 0, %_ZN14rustc_demangle2v06Parser10integer_6217h89fa80c80c0b691cE.exit.thread49.i ], [ %26, %_ZN14rustc_demangle2v06Parser10integer_6217h89fa80c80c0b691cE.exit.i ]
  %s_start.i = add i64 %_3.i, -1
  %_12.not.i = icmp ugt i64 %s_start.i, %.sroa.625.0.i52.i
  br i1 %_12.not.i, label %bb8.i, label %bb5

bb8.i:                                            ; preds = %bb3.i
  %28 = getelementptr inbounds %"v0::Printer", %"v0::Printer"* %self, i64 0, i32 0, i32 1, i64 31
  %29 = bitcast i8* %28 to i32*
  %_20.i = load i32, i32* %29, align 8, !alias.scope !602, !noalias !605
  %30 = add i32 %_20.i, 1
  %_2.i.i = icmp ugt i32 %30, 500
  br i1 %_2.i.i, label %bb5, label %bb7

bb1:                                              ; preds = %start
  tail call void @llvm.experimental.noalias.scope.decl(metadata !629)
  %_3.i26 = getelementptr inbounds %"v0::Printer", %"v0::Printer"* %self, i64 0, i32 1
  %31 = bitcast i64** %_3.i26 to {}**
  %32 = load {}*, {}** %31, align 8, !alias.scope !629, !noalias !632
  %.not.i = icmp eq {}* %32, null
  br i1 %.not.i, label %bb23, label %bb1.i

bb1.i:                                            ; preds = %bb1
  %33 = bitcast {}* %32 to %"core::fmt::Formatter"*
; call <str as core::fmt::Display>::fmt
  %34 = tail call zeroext i1 @"_ZN42_$LT$str$u20$as$u20$core..fmt..Display$GT$3fmt17h6e40a2e7e798ff25E"([0 x i8]* noalias nonnull readonly align 1 bitcast (<{ [1 x i8] }>* @alloc1408 to [0 x i8]*), i64 1, %"core::fmt::Formatter"* noalias nonnull align 8 dereferenceable(64) %33), !noalias !629
  br label %bb23

bb7:                                              ; preds = %bb8.i
  %_24 = getelementptr inbounds %"v0::Printer", %"v0::Printer"* %self, i64 0, i32 1
  %35 = bitcast i64** %_24 to {}**
  %36 = load {}*, {}** %35, align 8, !alias.scope !634
  %.not.i.not.i = icmp eq {}* %36, null
  br i1 %.not.i.not.i, label %bb23, label %bb18

bb5:                                              ; preds = %bb16.i.i, %bb9.i.i, %bb7.i.i.i, %bb8.i, %_ZN14rustc_demangle2v06Parser10integer_6217h89fa80c80c0b691cE.exit.i, %_ZN14rustc_demangle2v06Parser3eat17hefa37a98ca3635c8E.exit.split.us.i.i, %bb4.i.preheader.i, %bb3.i
  %switch.not.i = phi i1 [ true, %bb8.i ], [ false, %_ZN14rustc_demangle2v06Parser10integer_6217h89fa80c80c0b691cE.exit.i ], [ false, %_ZN14rustc_demangle2v06Parser3eat17hefa37a98ca3635c8E.exit.split.us.i.i ], [ false, %bb4.i.preheader.i ], [ false, %bb3.i ], [ false, %bb7.i.i.i ], [ false, %bb9.i.i ], [ false, %bb16.i.i ]
  %_6.sroa.5.0.ph = phi i8 [ 1, %bb8.i ], [ 0, %_ZN14rustc_demangle2v06Parser10integer_6217h89fa80c80c0b691cE.exit.i ], [ 0, %_ZN14rustc_demangle2v06Parser3eat17hefa37a98ca3635c8E.exit.split.us.i.i ], [ 0, %bb4.i.preheader.i ], [ 0, %bb3.i ], [ 0, %bb7.i.i.i ], [ 0, %bb9.i.i ], [ 0, %bb16.i.i ]
  tail call void @llvm.experimental.noalias.scope.decl(metadata !639)
  %_3.i27 = getelementptr inbounds %"v0::Printer", %"v0::Printer"* %self, i64 0, i32 1
  %37 = bitcast i64** %_3.i27 to {}**
  %38 = load {}*, {}** %37, align 8, !alias.scope !639, !noalias !642
  %.not.i28 = icmp eq {}* %38, null
  br i1 %.not.i28, label %bb11, label %_ZN14rustc_demangle2v07Printer5print17hb4b43e65b9659d15E.exit31

_ZN14rustc_demangle2v07Printer5print17hb4b43e65b9659d15E.exit31: ; preds = %bb5
  %.2.i = select i1 %switch.not.i, [0 x i8]* bitcast (<{ [25 x i8] }>* @alloc961 to [0 x i8]*), [0 x i8]* bitcast (<{ [16 x i8] }>* @alloc962 to [0 x i8]*)
  %..i = select i1 %switch.not.i, i64 25, i64 16
  %39 = bitcast {}* %38 to %"core::fmt::Formatter"*
; call <str as core::fmt::Display>::fmt
  %40 = tail call zeroext i1 @"_ZN42_$LT$str$u20$as$u20$core..fmt..Display$GT$3fmt17h6e40a2e7e798ff25E"([0 x i8]* noalias nonnull readonly align 1 %.2.i, i64 %..i, %"core::fmt::Formatter"* noalias nonnull align 8 dereferenceable(64) %39), !noalias !639
  br i1 %40, label %bb23, label %bb11

bb11:                                             ; preds = %bb5, %_ZN14rustc_demangle2v07Printer5print17hb4b43e65b9659d15E.exit31
  store i8 1, i8* %0, align 8
  %_20.sroa.4.0..sroa_idx = getelementptr inbounds %"v0::Printer", %"v0::Printer"* %self, i64 0, i32 0, i32 1, i64 0
  store i8 %_6.sroa.5.0.ph, i8* %_20.sroa.4.0..sroa_idx, align 1
  br label %bb23

bb18:                                             ; preds = %bb7
  %41 = getelementptr inbounds %"core::result::Result<v0::Parser, v0::ParseError>", %"core::result::Result<v0::Parser, v0::ParseError>"* %orig_parser, i64 0, i32 0
  call void @llvm.lifetime.start.p0i8(i64 40, i8* nonnull %41)
  tail call void @llvm.experimental.noalias.scope.decl(metadata !644)
  tail call void @llvm.experimental.noalias.scope.decl(metadata !647)
  call void @llvm.memcpy.p0i8.p0i8.i64(i8* noundef nonnull align 8 dereferenceable(40) %41, i8* noundef nonnull align 8 dereferenceable(40) %0, i64 40, i1 false) #20, !alias.scope !649, !noalias !647
  store i8 0, i8* %0, align 8, !alias.scope !651, !noalias !644
  store i64 %.sroa.625.0.i52.i, i64* %3, align 8, !alias.scope !651, !noalias !644
  store i32 %30, i32* %29, align 8, !alias.scope !651, !noalias !644
  %_4.i = icmp ne i8 %f.val, 0
; call rustc_demangle::v0::Printer::print_path
  %42 = tail call fastcc zeroext i1 @_ZN14rustc_demangle2v07Printer10print_path17hdc57822f76edc8d3E(%"v0::Printer"* noalias nonnull align 8 dereferenceable(56) %self, i1 zeroext %_4.i), !noalias !652
  call void @llvm.memcpy.p0i8.p0i8.i64(i8* noundef nonnull align 8 dereferenceable(40) %0, i8* noundef nonnull align 8 dereferenceable(40) %41, i64 40, i1 false)
  call void @llvm.lifetime.end.p0i8(i64 40, i8* nonnull %41)
  br label %bb23

bb23:                                             ; preds = %bb11, %_ZN14rustc_demangle2v07Printer5print17hb4b43e65b9659d15E.exit31, %bb7, %bb1, %bb1.i, %bb18
  %.2 = phi i1 [ %42, %bb18 ], [ false, %bb7 ], [ false, %bb1 ], [ %34, %bb1.i ], [ false, %bb11 ], [ true, %_ZN14rustc_demangle2v07Printer5print17hb4b43e65b9659d15E.exit31 ]
  ret i1 %.2
}

; rustc_demangle::v0::Printer::print_backref
; Function Attrs: nonlazybind uwtable
define internal fastcc zeroext i1 @_ZN14rustc_demangle2v07Printer13print_backref17h7d82739afdcad8aaE(%"v0::Printer"* noalias align 8 dereferenceable(56) %self, i8 %f.val) unnamed_addr #1 personality i32 (...)* @rust_eh_personality {
start:
  %orig_parser = alloca %"core::result::Result<v0::Parser, v0::ParseError>", align 8
  %0 = getelementptr inbounds %"v0::Printer", %"v0::Printer"* %self, i64 0, i32 0, i32 0
  %1 = load i8, i8* %0, align 8, !range !583
  %switch.not = icmp eq i8 %1, 1
  br i1 %switch.not, label %bb1, label %bb3

bb3:                                              ; preds = %start
  %parser = getelementptr inbounds %"v0::Printer", %"v0::Printer"* %self, i64 0, i32 0, i32 1, i64 7
  tail call void @llvm.experimental.noalias.scope.decl(metadata !655)
  %2 = getelementptr %"v0::Printer", %"v0::Printer"* %self, i64 0, i32 0, i32 1, i64 23
  %3 = bitcast i8* %2 to i64*
  %_3.i = load i64, i64* %3, align 8, !alias.scope !655, !noalias !658
  tail call void @llvm.experimental.noalias.scope.decl(metadata !660) #20
  tail call void @llvm.experimental.noalias.scope.decl(metadata !663) #20
  %self.idx.i.i.i = bitcast i8* %parser to [0 x i8]**
  %self.idx.val.i.i.i = load [0 x i8]*, [0 x i8]** %self.idx.i.i.i, align 8, !alias.scope !666, !noalias !658
  %self.idx1.i.i.i = getelementptr %"v0::Printer", %"v0::Printer"* %self, i64 0, i32 0, i32 1, i64 15
  %4 = bitcast i8* %self.idx1.i.i.i to i64*
  %self.idx1.val.i.i.i = load i64, i64* %4, align 8, !alias.scope !666, !noalias !658
  %_3.i.i.i.i.i.i = icmp uge i64 %_3.i, %self.idx1.val.i.i.i
  %5 = icmp eq [0 x i8]* %self.idx.val.i.i.i, null
  %6 = select i1 %_3.i.i.i.i.i.i, i1 true, i1 %5
  br i1 %6, label %_ZN14rustc_demangle2v06Parser3eat17hefa37a98ca3635c8E.exit.i.i, label %"_ZN70_$LT$core..option..Option$LT$T$GT$$u20$as$u20$core..cmp..PartialEq$GT$2eq17hc8c71ec5e32672e4E.exit.i.i.i"

"_ZN70_$LT$core..option..Option$LT$T$GT$$u20$as$u20$core..cmp..PartialEq$GT$2eq17hc8c71ec5e32672e4E.exit.i.i.i": ; preds = %bb3
  %7 = getelementptr inbounds [0 x i8], [0 x i8]* %self.idx.val.i.i.i, i64 0, i64 %_3.i
  %.val.i.i.i.i.i = load i8, i8* %7, align 1, !alias.scope !667, !noalias !670
  %8 = icmp eq i8 %.val.i.i.i.i.i, 95
  br i1 %8, label %_ZN14rustc_demangle2v06Parser10integer_6217h89fa80c80c0b691cE.exit.thread49.i, label %_ZN14rustc_demangle2v06Parser3eat17hefa37a98ca3635c8E.exit.i.i

_ZN14rustc_demangle2v06Parser10integer_6217h89fa80c80c0b691cE.exit.thread49.i: ; preds = %"_ZN70_$LT$core..option..Option$LT$T$GT$$u20$as$u20$core..cmp..PartialEq$GT$2eq17hc8c71ec5e32672e4E.exit.i.i.i"
  %9 = add nuw i64 %_3.i, 1
  store i64 %9, i64* %3, align 8, !alias.scope !666, !noalias !658
  br label %bb3.i

_ZN14rustc_demangle2v06Parser3eat17hefa37a98ca3635c8E.exit.i.i: ; preds = %"_ZN70_$LT$core..option..Option$LT$T$GT$$u20$as$u20$core..cmp..PartialEq$GT$2eq17hc8c71ec5e32672e4E.exit.i.i.i", %bb3
  br i1 %5, label %_ZN14rustc_demangle2v06Parser3eat17hefa37a98ca3635c8E.exit.split.us.i.i, label %bb4.i.preheader.i

bb4.i.preheader.i:                                ; preds = %_ZN14rustc_demangle2v06Parser3eat17hefa37a98ca3635c8E.exit.i.i
  %_3.i.i.i.i108.not.i42.i = icmp ult i64 %_3.i, %self.idx1.val.i.i.i
  br i1 %_3.i.i.i.i108.not.i42.i, label %"_ZN70_$LT$core..option..Option$LT$T$GT$$u20$as$u20$core..cmp..PartialEq$GT$2eq17hc8c71ec5e32672e4E.exit.i110.i.i", label %bb5

_ZN14rustc_demangle2v06Parser3eat17hefa37a98ca3635c8E.exit.split.us.i.i: ; preds = %_ZN14rustc_demangle2v06Parser3eat17hefa37a98ca3635c8E.exit.i.i
  tail call void @llvm.experimental.noalias.scope.decl(metadata !671) #20
  br label %bb5

"_ZN70_$LT$core..option..Option$LT$T$GT$$u20$as$u20$core..cmp..PartialEq$GT$2eq17hc8c71ec5e32672e4E.exit.i110.i.i": ; preds = %bb4.i.preheader.i, %bb16.i.i
  %x.0.i44.i = phi i64 [ %23, %bb16.i.i ], [ 0, %bb4.i.preheader.i ]
  %self.idx15.val.i.i43.i = phi i64 [ %17, %bb16.i.i ], [ %_3.i, %bb4.i.preheader.i ]
  tail call void @llvm.experimental.noalias.scope.decl(metadata !671) #20
  %10 = getelementptr inbounds [0 x i8], [0 x i8]* %self.idx.val.i.i.i, i64 0, i64 %self.idx15.val.i.i43.i
  %.val.i.i.i109.i.i = load i8, i8* %10, align 1, !alias.scope !674, !noalias !677
  %11 = icmp eq i8 %.val.i.i.i109.i.i, 95
  br i1 %11, label %_ZN14rustc_demangle2v06Parser10integer_6217h89fa80c80c0b691cE.exit.i, label %bb3.i118.i.i

bb3.i118.i.i:                                     ; preds = %"_ZN70_$LT$core..option..Option$LT$T$GT$$u20$as$u20$core..cmp..PartialEq$GT$2eq17hc8c71ec5e32672e4E.exit.i110.i.i"
  %.val.i.i.off.i.i.i = add i8 %.val.i.i.i109.i.i, -48
  %12 = icmp ult i8 %.val.i.i.off.i.i.i, 10
  br i1 %12, label %bb9.i.i, label %bb5.i.i.i

bb5.i.i.i:                                        ; preds = %bb3.i118.i.i
  %.val.i.i.off18.i.i.i = add i8 %.val.i.i.i109.i.i, -97
  %13 = icmp ult i8 %.val.i.i.off18.i.i.i, 26
  br i1 %13, label %bb10.i.i.i, label %bb7.i.i.i

bb7.i.i.i:                                        ; preds = %bb5.i.i.i
  %.val.i.i.off19.i.i.i = add i8 %.val.i.i.i109.i.i, -65
  %14 = icmp ult i8 %.val.i.i.off19.i.i.i, 26
  br i1 %14, label %bb11.i.i.i, label %bb5

bb10.i.i.i:                                       ; preds = %bb5.i.i.i
  %15 = add nsw i8 %.val.i.i.i109.i.i, -87
  br label %bb9.i.i

bb11.i.i.i:                                       ; preds = %bb7.i.i.i
  %16 = add nsw i8 %.val.i.i.i109.i.i, -29
  br label %bb9.i.i

bb9.i.i:                                          ; preds = %bb11.i.i.i, %bb10.i.i.i, %bb3.i118.i.i
  %d.0.i.i.i = phi i8 [ %15, %bb10.i.i.i ], [ %16, %bb11.i.i.i ], [ %.val.i.i.off.i.i.i, %bb3.i118.i.i ]
  %17 = add i64 %self.idx15.val.i.i43.i, 1
  store i64 %17, i64* %3, align 8, !alias.scope !678, !noalias !658
  %18 = tail call { i64, i1 } @llvm.umul.with.overflow.i64(i64 %x.0.i44.i, i64 62) #20
  %19 = extractvalue { i64, i1 } %18, 1
  br i1 %19, label %bb5, label %bb16.i.i

bb16.i.i:                                         ; preds = %bb9.i.i
  %20 = extractvalue { i64, i1 } %18, 0
  %d.i.i = zext i8 %d.0.i.i.i to i64
  %21 = tail call { i64, i1 } @llvm.uadd.with.overflow.i64(i64 %20, i64 %d.i.i) #20
  %22 = extractvalue { i64, i1 } %21, 1
  %23 = extractvalue { i64, i1 } %21, 0
  %exitcond.not.i = icmp eq i64 %17, %self.idx1.val.i.i.i
  %or.cond.i = select i1 %22, i1 true, i1 %exitcond.not.i
  br i1 %or.cond.i, label %bb5, label %"_ZN70_$LT$core..option..Option$LT$T$GT$$u20$as$u20$core..cmp..PartialEq$GT$2eq17hc8c71ec5e32672e4E.exit.i110.i.i"

_ZN14rustc_demangle2v06Parser10integer_6217h89fa80c80c0b691cE.exit.i: ; preds = %"_ZN70_$LT$core..option..Option$LT$T$GT$$u20$as$u20$core..cmp..PartialEq$GT$2eq17hc8c71ec5e32672e4E.exit.i110.i.i"
  %24 = add nuw i64 %self.idx15.val.i.i43.i, 1
  store i64 %24, i64* %3, align 8, !alias.scope !681, !noalias !658
  %25 = tail call { i64, i1 } @llvm.uadd.with.overflow.i64(i64 %x.0.i44.i, i64 1) #20
  %26 = extractvalue { i64, i1 } %25, 0
  %27 = extractvalue { i64, i1 } %25, 1
  br i1 %27, label %bb5, label %bb3.i

bb3.i:                                            ; preds = %_ZN14rustc_demangle2v06Parser10integer_6217h89fa80c80c0b691cE.exit.i, %_ZN14rustc_demangle2v06Parser10integer_6217h89fa80c80c0b691cE.exit.thread49.i
  %.sroa.625.0.i52.i = phi i64 [ 0, %_ZN14rustc_demangle2v06Parser10integer_6217h89fa80c80c0b691cE.exit.thread49.i ], [ %26, %_ZN14rustc_demangle2v06Parser10integer_6217h89fa80c80c0b691cE.exit.i ]
  %s_start.i = add i64 %_3.i, -1
  %_12.not.i = icmp ugt i64 %s_start.i, %.sroa.625.0.i52.i
  br i1 %_12.not.i, label %bb8.i, label %bb5

bb8.i:                                            ; preds = %bb3.i
  %28 = getelementptr inbounds %"v0::Printer", %"v0::Printer"* %self, i64 0, i32 0, i32 1, i64 31
  %29 = bitcast i8* %28 to i32*
  %_20.i = load i32, i32* %29, align 8, !alias.scope !655, !noalias !658
  %30 = add i32 %_20.i, 1
  %_2.i.i = icmp ugt i32 %30, 500
  br i1 %_2.i.i, label %bb5, label %bb7

bb1:                                              ; preds = %start
  tail call void @llvm.experimental.noalias.scope.decl(metadata !682)
  %_3.i26 = getelementptr inbounds %"v0::Printer", %"v0::Printer"* %self, i64 0, i32 1
  %31 = bitcast i64** %_3.i26 to {}**
  %32 = load {}*, {}** %31, align 8, !alias.scope !682, !noalias !685
  %.not.i = icmp eq {}* %32, null
  br i1 %.not.i, label %bb23, label %bb1.i

bb1.i:                                            ; preds = %bb1
  %33 = bitcast {}* %32 to %"core::fmt::Formatter"*
; call <str as core::fmt::Display>::fmt
  %34 = tail call zeroext i1 @"_ZN42_$LT$str$u20$as$u20$core..fmt..Display$GT$3fmt17h6e40a2e7e798ff25E"([0 x i8]* noalias nonnull readonly align 1 bitcast (<{ [1 x i8] }>* @alloc1408 to [0 x i8]*), i64 1, %"core::fmt::Formatter"* noalias nonnull align 8 dereferenceable(64) %33), !noalias !682
  br label %bb23

bb7:                                              ; preds = %bb8.i
  %_24 = getelementptr inbounds %"v0::Printer", %"v0::Printer"* %self, i64 0, i32 1
  %35 = bitcast i64** %_24 to {}**
  %36 = load {}*, {}** %35, align 8, !alias.scope !687
  %.not.i.not.i = icmp eq {}* %36, null
  br i1 %.not.i.not.i, label %bb23, label %bb18

bb5:                                              ; preds = %bb16.i.i, %bb9.i.i, %bb7.i.i.i, %bb8.i, %_ZN14rustc_demangle2v06Parser10integer_6217h89fa80c80c0b691cE.exit.i, %_ZN14rustc_demangle2v06Parser3eat17hefa37a98ca3635c8E.exit.split.us.i.i, %bb4.i.preheader.i, %bb3.i
  %switch.not.i = phi i1 [ true, %bb8.i ], [ false, %_ZN14rustc_demangle2v06Parser10integer_6217h89fa80c80c0b691cE.exit.i ], [ false, %_ZN14rustc_demangle2v06Parser3eat17hefa37a98ca3635c8E.exit.split.us.i.i ], [ false, %bb4.i.preheader.i ], [ false, %bb3.i ], [ false, %bb7.i.i.i ], [ false, %bb9.i.i ], [ false, %bb16.i.i ]
  %_6.sroa.5.0.ph = phi i8 [ 1, %bb8.i ], [ 0, %_ZN14rustc_demangle2v06Parser10integer_6217h89fa80c80c0b691cE.exit.i ], [ 0, %_ZN14rustc_demangle2v06Parser3eat17hefa37a98ca3635c8E.exit.split.us.i.i ], [ 0, %bb4.i.preheader.i ], [ 0, %bb3.i ], [ 0, %bb7.i.i.i ], [ 0, %bb9.i.i ], [ 0, %bb16.i.i ]
  tail call void @llvm.experimental.noalias.scope.decl(metadata !692)
  %_3.i27 = getelementptr inbounds %"v0::Printer", %"v0::Printer"* %self, i64 0, i32 1
  %37 = bitcast i64** %_3.i27 to {}**
  %38 = load {}*, {}** %37, align 8, !alias.scope !692, !noalias !695
  %.not.i28 = icmp eq {}* %38, null
  br i1 %.not.i28, label %bb11, label %_ZN14rustc_demangle2v07Printer5print17hb4b43e65b9659d15E.exit31

_ZN14rustc_demangle2v07Printer5print17hb4b43e65b9659d15E.exit31: ; preds = %bb5
  %.2.i = select i1 %switch.not.i, [0 x i8]* bitcast (<{ [25 x i8] }>* @alloc961 to [0 x i8]*), [0 x i8]* bitcast (<{ [16 x i8] }>* @alloc962 to [0 x i8]*)
  %..i = select i1 %switch.not.i, i64 25, i64 16
  %39 = bitcast {}* %38 to %"core::fmt::Formatter"*
; call <str as core::fmt::Display>::fmt
  %40 = tail call zeroext i1 @"_ZN42_$LT$str$u20$as$u20$core..fmt..Display$GT$3fmt17h6e40a2e7e798ff25E"([0 x i8]* noalias nonnull readonly align 1 %.2.i, i64 %..i, %"core::fmt::Formatter"* noalias nonnull align 8 dereferenceable(64) %39), !noalias !692
  br i1 %40, label %bb23, label %bb11

bb11:                                             ; preds = %bb5, %_ZN14rustc_demangle2v07Printer5print17hb4b43e65b9659d15E.exit31
  store i8 1, i8* %0, align 8
  %_20.sroa.4.0..sroa_idx = getelementptr inbounds %"v0::Printer", %"v0::Printer"* %self, i64 0, i32 0, i32 1, i64 0
  store i8 %_6.sroa.5.0.ph, i8* %_20.sroa.4.0..sroa_idx, align 1
  br label %bb23

bb18:                                             ; preds = %bb7
  %41 = getelementptr inbounds %"core::result::Result<v0::Parser, v0::ParseError>", %"core::result::Result<v0::Parser, v0::ParseError>"* %orig_parser, i64 0, i32 0
  call void @llvm.lifetime.start.p0i8(i64 40, i8* nonnull %41)
  tail call void @llvm.experimental.noalias.scope.decl(metadata !697)
  tail call void @llvm.experimental.noalias.scope.decl(metadata !700)
  call void @llvm.memcpy.p0i8.p0i8.i64(i8* noundef nonnull align 8 dereferenceable(40) %41, i8* noundef nonnull align 8 dereferenceable(40) %0, i64 40, i1 false) #20, !alias.scope !702, !noalias !700
  store i8 0, i8* %0, align 8, !alias.scope !704, !noalias !697
  store i64 %.sroa.625.0.i52.i, i64* %3, align 8, !alias.scope !704, !noalias !697
  store i32 %30, i32* %29, align 8, !alias.scope !704, !noalias !697
  %_4.i = icmp ne i8 %f.val, 0
; call rustc_demangle::v0::Printer::print_const
  %42 = tail call fastcc zeroext i1 @_ZN14rustc_demangle2v07Printer11print_const17h906ae63889fad0a6E(%"v0::Printer"* noalias nonnull align 8 dereferenceable(56) %self, i1 zeroext %_4.i), !noalias !705
  call void @llvm.memcpy.p0i8.p0i8.i64(i8* noundef nonnull align 8 dereferenceable(40) %0, i8* noundef nonnull align 8 dereferenceable(40) %41, i64 40, i1 false)
  call void @llvm.lifetime.end.p0i8(i64 40, i8* nonnull %41)
  br label %bb23

bb23:                                             ; preds = %bb11, %_ZN14rustc_demangle2v07Printer5print17hb4b43e65b9659d15E.exit31, %bb7, %bb1, %bb1.i, %bb18
  %.2 = phi i1 [ %42, %bb18 ], [ false, %bb7 ], [ false, %bb1 ], [ %34, %bb1.i ], [ false, %bb11 ], [ true, %_ZN14rustc_demangle2v07Printer5print17hb4b43e65b9659d15E.exit31 ]
  ret i1 %.2
}

; rustc_demangle::v0::Printer::print_backref
; Function Attrs: nonlazybind uwtable
define internal fastcc zeroext i1 @_ZN14rustc_demangle2v07Printer13print_backref17he0b739e1d30b58cdE(%"v0::Printer"* noalias align 8 dereferenceable(56) %self) unnamed_addr #1 personality i32 (...)* @rust_eh_personality {
start:
  %orig_parser = alloca %"core::result::Result<v0::Parser, v0::ParseError>", align 8
  %0 = getelementptr inbounds %"v0::Printer", %"v0::Printer"* %self, i64 0, i32 0, i32 0
  %1 = load i8, i8* %0, align 8, !range !583
  %switch.not = icmp eq i8 %1, 1
  br i1 %switch.not, label %bb1, label %bb3

bb3:                                              ; preds = %start
  %parser = getelementptr inbounds %"v0::Printer", %"v0::Printer"* %self, i64 0, i32 0, i32 1, i64 7
  tail call void @llvm.experimental.noalias.scope.decl(metadata !708)
  %2 = getelementptr %"v0::Printer", %"v0::Printer"* %self, i64 0, i32 0, i32 1, i64 23
  %3 = bitcast i8* %2 to i64*
  %_3.i = load i64, i64* %3, align 8, !alias.scope !708, !noalias !711
  tail call void @llvm.experimental.noalias.scope.decl(metadata !713) #20
  tail call void @llvm.experimental.noalias.scope.decl(metadata !716) #20
  %self.idx.i.i.i = bitcast i8* %parser to [0 x i8]**
  %self.idx.val.i.i.i = load [0 x i8]*, [0 x i8]** %self.idx.i.i.i, align 8, !alias.scope !719, !noalias !711
  %self.idx1.i.i.i = getelementptr %"v0::Printer", %"v0::Printer"* %self, i64 0, i32 0, i32 1, i64 15
  %4 = bitcast i8* %self.idx1.i.i.i to i64*
  %self.idx1.val.i.i.i = load i64, i64* %4, align 8, !alias.scope !719, !noalias !711
  %_3.i.i.i.i.i.i = icmp uge i64 %_3.i, %self.idx1.val.i.i.i
  %5 = icmp eq [0 x i8]* %self.idx.val.i.i.i, null
  %6 = select i1 %_3.i.i.i.i.i.i, i1 true, i1 %5
  br i1 %6, label %_ZN14rustc_demangle2v06Parser3eat17hefa37a98ca3635c8E.exit.i.i, label %"_ZN70_$LT$core..option..Option$LT$T$GT$$u20$as$u20$core..cmp..PartialEq$GT$2eq17hc8c71ec5e32672e4E.exit.i.i.i"

"_ZN70_$LT$core..option..Option$LT$T$GT$$u20$as$u20$core..cmp..PartialEq$GT$2eq17hc8c71ec5e32672e4E.exit.i.i.i": ; preds = %bb3
  %7 = getelementptr inbounds [0 x i8], [0 x i8]* %self.idx.val.i.i.i, i64 0, i64 %_3.i
  %.val.i.i.i.i.i = load i8, i8* %7, align 1, !alias.scope !720, !noalias !723
  %8 = icmp eq i8 %.val.i.i.i.i.i, 95
  br i1 %8, label %_ZN14rustc_demangle2v06Parser10integer_6217h89fa80c80c0b691cE.exit.thread49.i, label %_ZN14rustc_demangle2v06Parser3eat17hefa37a98ca3635c8E.exit.i.i

_ZN14rustc_demangle2v06Parser10integer_6217h89fa80c80c0b691cE.exit.thread49.i: ; preds = %"_ZN70_$LT$core..option..Option$LT$T$GT$$u20$as$u20$core..cmp..PartialEq$GT$2eq17hc8c71ec5e32672e4E.exit.i.i.i"
  %9 = add nuw i64 %_3.i, 1
  store i64 %9, i64* %3, align 8, !alias.scope !719, !noalias !711
  br label %bb3.i

_ZN14rustc_demangle2v06Parser3eat17hefa37a98ca3635c8E.exit.i.i: ; preds = %"_ZN70_$LT$core..option..Option$LT$T$GT$$u20$as$u20$core..cmp..PartialEq$GT$2eq17hc8c71ec5e32672e4E.exit.i.i.i", %bb3
  br i1 %5, label %_ZN14rustc_demangle2v06Parser3eat17hefa37a98ca3635c8E.exit.split.us.i.i, label %bb4.i.preheader.i

bb4.i.preheader.i:                                ; preds = %_ZN14rustc_demangle2v06Parser3eat17hefa37a98ca3635c8E.exit.i.i
  %_3.i.i.i.i108.not.i42.i = icmp ult i64 %_3.i, %self.idx1.val.i.i.i
  br i1 %_3.i.i.i.i108.not.i42.i, label %"_ZN70_$LT$core..option..Option$LT$T$GT$$u20$as$u20$core..cmp..PartialEq$GT$2eq17hc8c71ec5e32672e4E.exit.i110.i.i", label %bb5

_ZN14rustc_demangle2v06Parser3eat17hefa37a98ca3635c8E.exit.split.us.i.i: ; preds = %_ZN14rustc_demangle2v06Parser3eat17hefa37a98ca3635c8E.exit.i.i
  tail call void @llvm.experimental.noalias.scope.decl(metadata !724) #20
  br label %bb5

"_ZN70_$LT$core..option..Option$LT$T$GT$$u20$as$u20$core..cmp..PartialEq$GT$2eq17hc8c71ec5e32672e4E.exit.i110.i.i": ; preds = %bb4.i.preheader.i, %bb16.i.i
  %x.0.i44.i = phi i64 [ %23, %bb16.i.i ], [ 0, %bb4.i.preheader.i ]
  %self.idx15.val.i.i43.i = phi i64 [ %17, %bb16.i.i ], [ %_3.i, %bb4.i.preheader.i ]
  tail call void @llvm.experimental.noalias.scope.decl(metadata !724) #20
  %10 = getelementptr inbounds [0 x i8], [0 x i8]* %self.idx.val.i.i.i, i64 0, i64 %self.idx15.val.i.i43.i
  %.val.i.i.i109.i.i = load i8, i8* %10, align 1, !alias.scope !727, !noalias !730
  %11 = icmp eq i8 %.val.i.i.i109.i.i, 95
  br i1 %11, label %_ZN14rustc_demangle2v06Parser10integer_6217h89fa80c80c0b691cE.exit.i, label %bb3.i118.i.i

bb3.i118.i.i:                                     ; preds = %"_ZN70_$LT$core..option..Option$LT$T$GT$$u20$as$u20$core..cmp..PartialEq$GT$2eq17hc8c71ec5e32672e4E.exit.i110.i.i"
  %.val.i.i.off.i.i.i = add i8 %.val.i.i.i109.i.i, -48
  %12 = icmp ult i8 %.val.i.i.off.i.i.i, 10
  br i1 %12, label %bb9.i.i, label %bb5.i.i.i

bb5.i.i.i:                                        ; preds = %bb3.i118.i.i
  %.val.i.i.off18.i.i.i = add i8 %.val.i.i.i109.i.i, -97
  %13 = icmp ult i8 %.val.i.i.off18.i.i.i, 26
  br i1 %13, label %bb10.i.i.i, label %bb7.i.i.i

bb7.i.i.i:                                        ; preds = %bb5.i.i.i
  %.val.i.i.off19.i.i.i = add i8 %.val.i.i.i109.i.i, -65
  %14 = icmp ult i8 %.val.i.i.off19.i.i.i, 26
  br i1 %14, label %bb11.i.i.i, label %bb5

bb10.i.i.i:                                       ; preds = %bb5.i.i.i
  %15 = add nsw i8 %.val.i.i.i109.i.i, -87
  br label %bb9.i.i

bb11.i.i.i:                                       ; preds = %bb7.i.i.i
  %16 = add nsw i8 %.val.i.i.i109.i.i, -29
  br label %bb9.i.i

bb9.i.i:                                          ; preds = %bb11.i.i.i, %bb10.i.i.i, %bb3.i118.i.i
  %d.0.i.i.i = phi i8 [ %15, %bb10.i.i.i ], [ %16, %bb11.i.i.i ], [ %.val.i.i.off.i.i.i, %bb3.i118.i.i ]
  %17 = add i64 %self.idx15.val.i.i43.i, 1
  store i64 %17, i64* %3, align 8, !alias.scope !731, !noalias !711
  %18 = tail call { i64, i1 } @llvm.umul.with.overflow.i64(i64 %x.0.i44.i, i64 62) #20
  %19 = extractvalue { i64, i1 } %18, 1
  br i1 %19, label %bb5, label %bb16.i.i

bb16.i.i:                                         ; preds = %bb9.i.i
  %20 = extractvalue { i64, i1 } %18, 0
  %d.i.i = zext i8 %d.0.i.i.i to i64
  %21 = tail call { i64, i1 } @llvm.uadd.with.overflow.i64(i64 %20, i64 %d.i.i) #20
  %22 = extractvalue { i64, i1 } %21, 1
  %23 = extractvalue { i64, i1 } %21, 0
  %exitcond.not.i = icmp eq i64 %17, %self.idx1.val.i.i.i
  %or.cond.i = select i1 %22, i1 true, i1 %exitcond.not.i
  br i1 %or.cond.i, label %bb5, label %"_ZN70_$LT$core..option..Option$LT$T$GT$$u20$as$u20$core..cmp..PartialEq$GT$2eq17hc8c71ec5e32672e4E.exit.i110.i.i"

_ZN14rustc_demangle2v06Parser10integer_6217h89fa80c80c0b691cE.exit.i: ; preds = %"_ZN70_$LT$core..option..Option$LT$T$GT$$u20$as$u20$core..cmp..PartialEq$GT$2eq17hc8c71ec5e32672e4E.exit.i110.i.i"
  %24 = add nuw i64 %self.idx15.val.i.i43.i, 1
  store i64 %24, i64* %3, align 8, !alias.scope !734, !noalias !711
  %25 = tail call { i64, i1 } @llvm.uadd.with.overflow.i64(i64 %x.0.i44.i, i64 1) #20
  %26 = extractvalue { i64, i1 } %25, 0
  %27 = extractvalue { i64, i1 } %25, 1
  br i1 %27, label %bb5, label %bb3.i

bb3.i:                                            ; preds = %_ZN14rustc_demangle2v06Parser10integer_6217h89fa80c80c0b691cE.exit.i, %_ZN14rustc_demangle2v06Parser10integer_6217h89fa80c80c0b691cE.exit.thread49.i
  %.sroa.625.0.i52.i = phi i64 [ 0, %_ZN14rustc_demangle2v06Parser10integer_6217h89fa80c80c0b691cE.exit.thread49.i ], [ %26, %_ZN14rustc_demangle2v06Parser10integer_6217h89fa80c80c0b691cE.exit.i ]
  %s_start.i = add i64 %_3.i, -1
  %_12.not.i = icmp ugt i64 %s_start.i, %.sroa.625.0.i52.i
  br i1 %_12.not.i, label %bb8.i, label %bb5

bb8.i:                                            ; preds = %bb3.i
  %28 = getelementptr inbounds %"v0::Printer", %"v0::Printer"* %self, i64 0, i32 0, i32 1, i64 31
  %29 = bitcast i8* %28 to i32*
  %_20.i = load i32, i32* %29, align 8, !alias.scope !708, !noalias !711
  %30 = add i32 %_20.i, 1
  %_2.i.i = icmp ugt i32 %30, 500
  br i1 %_2.i.i, label %bb5, label %bb7

bb1:                                              ; preds = %start
  tail call void @llvm.experimental.noalias.scope.decl(metadata !735)
  %_3.i26 = getelementptr inbounds %"v0::Printer", %"v0::Printer"* %self, i64 0, i32 1
  %31 = bitcast i64** %_3.i26 to {}**
  %32 = load {}*, {}** %31, align 8, !alias.scope !735, !noalias !738
  %.not.i = icmp eq {}* %32, null
  br i1 %.not.i, label %bb23, label %bb1.i

bb1.i:                                            ; preds = %bb1
  %33 = bitcast {}* %32 to %"core::fmt::Formatter"*
; call <str as core::fmt::Display>::fmt
  %34 = tail call zeroext i1 @"_ZN42_$LT$str$u20$as$u20$core..fmt..Display$GT$3fmt17h6e40a2e7e798ff25E"([0 x i8]* noalias nonnull readonly align 1 bitcast (<{ [1 x i8] }>* @alloc1408 to [0 x i8]*), i64 1, %"core::fmt::Formatter"* noalias nonnull align 8 dereferenceable(64) %33), !noalias !735
  br label %bb23

bb7:                                              ; preds = %bb8.i
  %_24 = getelementptr inbounds %"v0::Printer", %"v0::Printer"* %self, i64 0, i32 1
  %35 = bitcast i64** %_24 to {}**
  %36 = load {}*, {}** %35, align 8, !alias.scope !740
  %.not.i.not.i = icmp eq {}* %36, null
  br i1 %.not.i.not.i, label %bb23, label %bb18

bb5:                                              ; preds = %bb16.i.i, %bb9.i.i, %bb7.i.i.i, %bb8.i, %_ZN14rustc_demangle2v06Parser10integer_6217h89fa80c80c0b691cE.exit.i, %_ZN14rustc_demangle2v06Parser3eat17hefa37a98ca3635c8E.exit.split.us.i.i, %bb4.i.preheader.i, %bb3.i
  %switch.not.i = phi i1 [ true, %bb8.i ], [ false, %_ZN14rustc_demangle2v06Parser10integer_6217h89fa80c80c0b691cE.exit.i ], [ false, %_ZN14rustc_demangle2v06Parser3eat17hefa37a98ca3635c8E.exit.split.us.i.i ], [ false, %bb4.i.preheader.i ], [ false, %bb3.i ], [ false, %bb7.i.i.i ], [ false, %bb9.i.i ], [ false, %bb16.i.i ]
  %_6.sroa.5.0.ph = phi i8 [ 1, %bb8.i ], [ 0, %_ZN14rustc_demangle2v06Parser10integer_6217h89fa80c80c0b691cE.exit.i ], [ 0, %_ZN14rustc_demangle2v06Parser3eat17hefa37a98ca3635c8E.exit.split.us.i.i ], [ 0, %bb4.i.preheader.i ], [ 0, %bb3.i ], [ 0, %bb7.i.i.i ], [ 0, %bb9.i.i ], [ 0, %bb16.i.i ]
  tail call void @llvm.experimental.noalias.scope.decl(metadata !745)
  %_3.i27 = getelementptr inbounds %"v0::Printer", %"v0::Printer"* %self, i64 0, i32 1
  %37 = bitcast i64** %_3.i27 to {}**
  %38 = load {}*, {}** %37, align 8, !alias.scope !745, !noalias !748
  %.not.i28 = icmp eq {}* %38, null
  br i1 %.not.i28, label %bb11, label %_ZN14rustc_demangle2v07Printer5print17hb4b43e65b9659d15E.exit31

_ZN14rustc_demangle2v07Printer5print17hb4b43e65b9659d15E.exit31: ; preds = %bb5
  %.2.i = select i1 %switch.not.i, [0 x i8]* bitcast (<{ [25 x i8] }>* @alloc961 to [0 x i8]*), [0 x i8]* bitcast (<{ [16 x i8] }>* @alloc962 to [0 x i8]*)
  %..i = select i1 %switch.not.i, i64 25, i64 16
  %39 = bitcast {}* %38 to %"core::fmt::Formatter"*
; call <str as core::fmt::Display>::fmt
